 PhysXCommon_32

 Timestamp is 64259a32 (Thu Mar 30 16:18:26 2023)

 Preferred load address is 10000000

 Start         Length     Name                   Class
 0001:00000000 00004320H .text$di                CODE
 0001:00004320 00130fcfH .text$mn                CODE
 0001:001352ef 000000e5H .text$x                 CODE
 0002:00000000 00000120H .idata$5                DATA
 0002:00000120 00000004H .00cfg                  DATA
 0002:00000124 00000004H .CRT$XCA                DATA
 0002:00000128 000009fcH .CRT$XCU                DATA
 0002:00000b24 00000004H .CRT$XCZ                DATA
 0002:00000b28 00000004H .CRT$XIA                DATA
 0002:00000b2c 0000000cH .CRT$XIC                DATA
 0002:00000b38 00000004H .CRT$XIZ                DATA
 0002:00000b3c 00000004H .CRT$XPA                DATA
 0002:00000b40 00000008H .CRT$XPX                DATA
 0002:00000b48 00000004H .CRT$XPXA               DATA
 0002:00000b4c 00000004H .CRT$XPZ                DATA
 0002:00000b50 00000004H .CRT$XTA                DATA
 0002:00000b54 0000000cH .CRT$XTZ                DATA
 0002:00000b58 00000000H .gfids$y                DATA
 0002:00000b60 0000c7a0H .rdata                  DATA
 0002:0000d300 00000000H .rdata$CastGuardVftablesA DATA
 0002:0000d300 00000000H .rdata$CastGuardVftablesC DATA
 0002:0000d300 0000028cH .rdata$r                DATA
 0002:0000d58c 0000002cH .rdata$sxdata           DATA
 0002:0000d5b8 00000040H .rdata$voltmd           DATA
 0002:0000d5f8 000003fcH .rdata$zzzdbg           DATA
 0002:0000d9f4 00000004H .rtc$IAA                DATA
 0002:0000d9f8 00000004H .rtc$IZZ                DATA
 0002:0000d9fc 00000004H .rtc$TAA                DATA
 0002:0000da00 00000008H .rtc$TZZ                DATA
 0002:0000da08 00000614H .xdata$x                DATA
 0002:0000e01c 00000020H .didat$2                DATA
 0002:0000e03c 00000020H .didat$3                DATA
 0002:0000e05c 00000044H .didat$4                DATA
 0002:0000e0a0 00000300H .didat$6                DATA
 0002:0000e3a0 00000050H .didat$7                DATA
 0002:0000e3f0 00009c30H .edata                  DATA
 0002:00018020 00000014H .idata$2                DATA
 0002:00018034 00000014H .idata$3                DATA
 0002:00018048 00000120H .idata$4                DATA
 0002:00018168 00000534H .idata$6                DATA
 0003:00000000 00000fe0H .data                   DATA
 0003:00000fe0 00000468H .data$r                 DATA
 0003:00001448 000000b4H .data$rs                DATA
 0003:000014fc 00000044H .didat$5                DATA
 0003:00001540 000032c8H .bss                    DATA
 0004:00000000 00002608H _RDATA                  DATA
 0005:00000000 000000a0H .rsrc$01                DATA
 0005:000000a0 000004b0H .rsrc$02                DATA

  Address         Publics by Value              Rva+Base       Lib:Object

 0000:00000000       ___guard_eh_cont_count     00000000     <absolute>
 0000:00000000       ___guard_iat_table         00000000     <absolute>
 0000:00000000       ___x64_code_ranges_to_entry_points_count 00000000     <absolute>
 0000:00000000       ___x64_code_ranges_to_entry_points 00000000     <absolute>
 0000:00000000       ___arm64x_redirection_metadata 00000000     <absolute>
 0000:00000000       ___arm64x_extra_rfe_table  00000000     <absolute>
 0000:00000000       __except_list              00000000     <absolute>
 0000:00000000       ___guard_longjmp_table     00000000     <absolute>
 0000:00000000       ___hybrid_code_map         00000000     <absolute>
 0000:00000000       ___arm64x_extra_rfe_table_size 00000000     <absolute>
 0000:00000000       ___guard_longjmp_count     00000000     <absolute>
 0000:00000000       ___hybrid_code_map_count   00000000     <absolute>
 0000:00000000       ___guard_iat_count         00000000     <absolute>
 0000:00000000       ___guard_check_icall_a64n_fptr 00000000     <absolute>
 0000:00000000       ___arm64x_redirection_metadata_count 00000000     <absolute>
 0000:00000000       ___arm64x_native_entrypoint 00000000     <absolute>
 0000:00000000       ___hybrid_auxiliary_iat    00000000     <absolute>
 0000:00000000       ___dynamic_value_reloc_table 00000000     <absolute>
 0000:00000000       ___guard_eh_cont_table     00000000     <absolute>
 0000:00000000       ___guard_fids_count        00000000     <absolute>
 0000:00000000       ___AbsoluteZero            00000000     <absolute>
 0000:00000000       ___enclave_config          00000000     <absolute>
 0000:00000000       ___guard_fids_table        00000000     <absolute>
 0000:00000000       ___hybrid_auxiliary_iat_copy 00000000     <absolute>
 0000:0000000b       ___safe_se_handler_count   0000000b     <absolute>
 0000:00000100       ___guard_flags             00000100     <absolute>
 0000:00000000       ___ImageBase               10000000     <linker-defined>
 0001:00004320       ??_ECollection@Cm@physx@@UAEPAXI@Z 10005320 f i CmCollection.obj
 0001:00004320       ??_GCollection@Cm@physx@@UAEPAXI@Z 10005320 f i CmCollection.obj
 0001:00004390       ??_EPxCollection@physx@@MAEPAXI@Z 10005390 f i CmCollection.obj
 0001:00004390       ??_GPxCollection@physx@@MAEPAXI@Z 10005390 f i CmCollection.obj
 0001:000043c0       ?PxCreateCollection@@YAPAVPxCollection@physx@@XZ 100053c0 f   CmCollection.obj
 0001:000044c0       ?add@Collection@Cm@physx@@UAEXAAVPxBase@3@_K@Z 100054c0 f   CmCollection.obj
 0001:000045a0       ?add@Collection@Cm@physx@@UAEXAAVPxCollection@3@@Z 100055a0 f   CmCollection.obj
 0001:00004700       ?addId@Collection@Cm@physx@@UAEXAAVPxBase@3@_K@Z 10005700 f   CmCollection.obj
 0001:00004790       ?contains@Collection@Cm@physx@@UBE_NAAVPxBase@3@@Z 10005790 f   CmCollection.obj
 0001:000047b0       ?create@?$HashBase@V?$Pair@$$CB_KPAVPxBase@physx@@@shdfnd@physx@@_KU?$Hash@_K@23@UGetKey@?$HashMapBase@_KPAVPxBase@physx@@U?$Hash@_K@shdfnd@2@VNonTrackingAllocator@42@@internal@23@VNonTrackingAllocator@23@$00@internal@shdfnd@physx@@QAEPAV?$Pair@$$CB_KPAVPxBase@physx@@@34@AB_KAA_N@Z 100057b0 f i CmCollection.obj
 0001:00004890       ?create@?$HashBase@V?$Pair@QAVPxBase@physx@@_K@shdfnd@physx@@PAVPxBase@3@U?$Hash@PAVPxBase@physx@@@23@UGetKey@?$HashMapBase@PAVPxBase@physx@@_KU?$Hash@PAVPxBase@physx@@@shdfnd@2@VNonTrackingAllocator@42@@internal@23@VNonTrackingAllocator@23@$00@internal@shdfnd@physx@@QAEPAV?$Pair@QAVPxBase@physx@@_K@34@ABQAVPxBase@4@AA_N@Z 10005890 f i CmCollection.obj
 0001:000049b0       ?erase@?$HashBase@V?$Pair@QAVPxBase@physx@@_K@shdfnd@physx@@PAVPxBase@3@U?$Hash@PAVPxBase@physx@@@23@UGetKey@?$HashMapBase@PAVPxBase@physx@@_KU?$Hash@PAVPxBase@physx@@@shdfnd@2@VNonTrackingAllocator@42@@internal@23@VNonTrackingAllocator@23@$00@internal@shdfnd@physx@@QAE_NABQAVPxBase@4@@Z 100059b0 f i CmCollection.obj
 0001:00004ac0       ?erase@?$HashMapBase@_KPAVPxBase@physx@@U?$Hash@_K@shdfnd@2@VNonTrackingAllocator@42@@internal@shdfnd@physx@@QAE_NAB_K@Z 10005ac0 f i CmCollection.obj
 0001:00004ba0       ?find@?$HashMapBase@PAVPxBase@physx@@_KU?$Hash@PAVPxBase@physx@@@shdfnd@2@VNonTrackingAllocator@42@@internal@shdfnd@physx@@QBEPBV?$Pair@QAVPxBase@physx@@_K@34@ABQAVPxBase@4@@Z 10005ba0 f i CmCollection.obj
 0001:00004c20       ?find@?$HashMapBase@_KPAVPxBase@physx@@U?$Hash@_K@shdfnd@2@VNonTrackingAllocator@42@@internal@shdfnd@physx@@QBEPBV?$Pair@$$CB_KPAVPxBase@physx@@@34@AB_K@Z 10005c20 f i CmCollection.obj
 0001:00004c80       ?find@Collection@Cm@physx@@UBEPAVPxBase@3@_K@Z 10005c80 f   CmCollection.obj
 0001:00004ca0       ?getId@Collection@Cm@physx@@UBE_KABVPxBase@3@@Z 10005ca0 f   CmCollection.obj
 0001:00004ce0       ?getIds@Collection@Cm@physx@@UBEIPA_KII@Z 10005ce0 f   CmCollection.obj
 0001:00004d90       ?getNbRows@HeightField@Gu@physx@@UBEIXZ 10005d90 f   GuBounds.obj
 0001:00004d90       ?getNbIds@Collection@Cm@physx@@UBEIXZ 10005d90 f   CmCollection.obj
 0001:00004da0       ?getNbObjects@Collection@Cm@physx@@UBEIXZ 10005da0 f   CmCollection.obj
 0001:00004db0       ?getObject@Collection@Cm@physx@@UBEAAVPxBase@3@I@Z 10005db0 f   CmCollection.obj
 0001:00004dc0       ?getObjects@Collection@Cm@physx@@UBEIPAPAVPxBase@3@II@Z 10005dc0 f   CmCollection.obj
 0001:00004e00       ?hash@?$HashBase@V?$Pair@$$CB_KPAVPxBase@physx@@@shdfnd@physx@@_KU?$Hash@_K@23@UGetKey@?$HashMapBase@_KPAVPxBase@physx@@U?$Hash@_K@shdfnd@2@VNonTrackingAllocator@42@@internal@23@VNonTrackingAllocator@23@$00@internal@shdfnd@physx@@ABEIAB_KI@Z 10005e00 f i CmCollection.obj
 0001:00004e90       ?release@Collection@Cm@physx@@UAEXXZ 10005e90 f i CmCollection.obj
 0001:00004ea0       ?remove@Collection@Cm@physx@@UAEXAAVPxBase@3@@Z 10005ea0 f   CmCollection.obj
 0001:00004ef0       ?remove@Collection@Cm@physx@@UAEXAAVPxCollection@3@@Z 10005ef0 f   CmCollection.obj
 0001:000050c0       ?removeId@Collection@Cm@physx@@UAEX_K@Z 100060c0 f   CmCollection.obj
 0001:00005120       ?reserveInternal@?$HashBase@V?$Pair@$$CB_KPAVPxBase@physx@@@shdfnd@physx@@_KU?$Hash@_K@23@UGetKey@?$HashMapBase@_KPAVPxBase@physx@@U?$Hash@_K@shdfnd@2@VNonTrackingAllocator@42@@internal@23@VNonTrackingAllocator@23@$00@internal@shdfnd@physx@@AAEXI@Z 10006120 f i CmCollection.obj
 0001:00005350       ?reserveInternal@?$HashBase@V?$Pair@QAVPxBase@physx@@_K@shdfnd@physx@@PAVPxBase@3@U?$Hash@PAVPxBase@physx@@@23@UGetKey@?$HashMapBase@PAVPxBase@physx@@_KU?$Hash@PAVPxBase@physx@@@shdfnd@2@VNonTrackingAllocator@42@@internal@23@VNonTrackingAllocator@23@$00@internal@shdfnd@physx@@AAEXI@Z 10006350 f i CmCollection.obj
 0001:000054f0       ??0PtrTable@Cm@physx@@QAE@W4PxEMPTY@2@@Z 100064f0 f i CmPtrTable.obj
 0001:00005510       ??0PtrTable@Cm@physx@@QAE@XZ 10006510 f   CmPtrTable.obj
 0001:00005520       ??1PtrTable@Cm@physx@@QAE@XZ 10006520 f   CmPtrTable.obj
 0001:00005520       ?profile@Callback@RTree@Gu@physx@@UAEXXZ 10006520 f   GuMidphaseRTree.obj
 0001:00005520       ??1Box@Gu@physx@@QAE@XZ    10006520 f   GuBounds.obj
 0001:00005520       ??1MaterialIndicesStruct@physx@@QAE@XZ 10006520 f   GuGeometryUnion.obj
 0001:00005520       @_guard_check_icall_nop@4  10006520 f   LIBCMT:guard_support.obj
 0001:00005520       ??1HeightFieldData@Gu@physx@@QAE@XZ 10006520 f   GuBounds.obj
 0001:00005520       ??1AABBTreeBuildNode@Gu@physx@@QAE@XZ 10006520 f   GuAABBTreeBuild.obj
 0001:00005530       ??4BuildStats@Gu@physx@@QAEAAU012@ABU012@@Z 10006530 f i GuAABBTreeBuild.obj
 0001:00005530       ??4MaterialIndicesStruct@physx@@QAEAAU01@ABU01@@Z 10006530 f i GuGeometryUnion.obj
 0001:00005530       ??4CmModuleUpdateLoader@Cm@physx@@QAEAAV012@ABV012@@Z 10006530 f i CmWindowsModuleUpdateLoader.obj
 0001:00005530       ??4PtrTable@Cm@physx@@QAEAAU012@ABU012@@Z 10006530 f i CmPtrTable.obj
 0001:00005550       ?add@PtrTable@Cm@physx@@QAEXPAXAAVPtrTableStorageManager@23@@Z 10006550 f   CmPtrTable.obj
 0001:00005610       ?clear@PtrTable@Cm@physx@@QAEXAAVPtrTableStorageManager@23@@Z 10006610 f   CmPtrTable.obj
 0001:00005670       ?exportExtraData@PtrTable@Cm@physx@@QAEXAAVPxSerializationContext@3@@Z 10006670 f   CmPtrTable.obj
 0001:000056a0       ?find@PtrTable@Cm@physx@@QBEIPBX@Z 100066a0 f   CmPtrTable.obj
 0001:000056d0       ?getBinaryMetaData@PtrTable@Cm@physx@@SAXAAVPxOutputStream@3@@Z 100066d0 f   CmPtrTable.obj
 0001:000058b0       ?getCount@PtrTable@Cm@physx@@QBEIXZ 100068b0 f i CmPtrTable.obj
 0001:000058c0       ?getPtrs@PtrTable@Cm@physx@@QBEPBQAXXZ 100068c0 f i CmPtrTable.obj
 0001:000058c0       ?getPtrs@PtrTable@Cm@physx@@QAEPAPAXXZ 100068c0 f i CmPtrTable.obj
 0001:000058d0       ?importExtraData@PtrTable@Cm@physx@@QAEXAAVPxDeserializationContext@3@@Z 100068d0 f   CmPtrTable.obj
 0001:00005900       ?realloc@PtrTable@Cm@physx@@AAEXIIAAVPtrTableStorageManager@23@@Z 10006900 f   CmPtrTable.obj
 0001:00005970       ?replaceWithLast@PtrTable@Cm@physx@@QAEXIAAVPtrTableStorageManager@23@@Z 10006970 f   CmPtrTable.obj
 0001:00005a40       ??0RadixSort@Cm@physx@@QAE@XZ 10006a40 f   CmRadixSort.obj
 0001:00005a80       ??1RadixSort@Cm@physx@@UAE@XZ 10006a80 f   CmRadixSort.obj
 0001:00005a90       ??_ERadixSort@Cm@physx@@UAEPAXI@Z 10006a90 f i CmRadixSort.obj
 0001:00005b00       ?getTriangles@TriangleMesh@Gu@physx@@UBEPBXXZ 10006b00 f i GuTriangleMesh.obj
 0001:00005b00       ?getBounds@BVHStructure@Gu@physx@@UBEPBVPxBounds3@3@XZ 10006b00 f i GuBVHStructure.obj
 0001:00005b00       ?GetNbHits@RadixSort@Cm@physx@@QBEIXZ 10006b00 f i CmRadixSort.obj
 0001:00005b10       ?getVertices@TriangleMesh@Gu@physx@@UBEPBVPxVec3@3@XZ 10006b10 f i GuTriangleMesh.obj
 0001:00005b10       ?GetNbTotalCalls@RadixSort@Cm@physx@@QBEIXZ 10006b10 f i CmRadixSort.obj
 0001:00005b10       ?getPos@AABBTreeBuildNode@Gu@physx@@QBEPBV123@XZ 10006b10 f i GuAABBTreeBuild.obj
 0001:00005b20       ?raw_length@DNameStatusNode@@UBEHXZ 10006b20 f i libvcruntime:undname.obj
 0001:00005b20       ?GetNbVerts@BigConvexData@physx@@QBEIXZ 10006b20 f i GuMetaData.obj
 0001:00005b20       ?length@DNameStatusNode@@UBEHXZ 10006b20 f i libvcruntime:undname.obj
 0001:00005b20       ?length@pcharNode@@UBEHXZ  10006b20 f i libvcruntime:undname.obj
 0001:00005b20       ?GetRanks@RadixSort@Cm@physx@@QBEPBIXZ 10006b20 f i CmRadixSort.obj
 0001:00005b20       ?raw_length@pcharNode@@UBEHXZ 10006b20 f i libvcruntime:undname.obj
 0001:00005b30       ?getReferenceCount@TriangleMesh@Gu@physx@@UBEIXZ 10006b30 f i GuTriangleMesh.obj
 0001:00005b30       ?getHeightField@HeightFieldUtil@Gu@physx@@QBEABVHeightField@23@XZ 10006b30 f i GuCCTSweepTests.obj
 0001:00005b30       ?getReferenceCount@HeightField@Gu@physx@@UBEIXZ 10006b30 f i GuHeightField.obj
 0001:00005b30       ?getReferenceCount@ConvexMesh@Gu@physx@@UBEIXZ 10006b30 f i GuConvexMesh.obj
 0001:00005b30       ?GetRecyclable@RadixSort@Cm@physx@@QBEPAIXZ 10006b30 f i CmRadixSort.obj
 0001:00005b30       ?raw_length@pairNode@@UBEHXZ 10006b30 f i libvcruntime:undname.obj
 0001:00005b40       ?SetBuffers@RadixSort@Cm@physx@@QAE_NPAI00PAPAI@Z 10006b40 f   CmRadixSort.obj
 0001:00005b90       ?Sort@RadixSort@Cm@physx@@QAEAAV123@PBIIW4RadixHint@23@@Z 10006b90 f   CmRadixSort.obj
 0001:00006170       ?Sort@RadixSort@Cm@physx@@QAEAAV123@PBMI@Z 10007170 f   CmRadixSort.obj
 0001:00006850       ?invalidateRanks@RadixSort@Cm@physx@@QAEXXZ 10007850 f i CmRadixSort.obj
 0001:00006860       ??0RadixSortBuffered@Cm@physx@@QAE@XZ 10007860 f   CmRadixSortBuffered.obj
 0001:00006880       ??1RadixSortBuffered@Cm@physx@@UAE@XZ 10007880 f   CmRadixSortBuffered.obj
 0001:000068e0       ??_ERadixSortBuffered@Cm@physx@@UAEPAXI@Z 100078e0 f i CmRadixSortBuffered.obj
 0001:000069b0       ?CheckResize@RadixSortBuffered@Cm@physx@@AAEXI@Z 100079b0 f i CmRadixSortBuffered.obj
 0001:000069e0       ?Resize@RadixSortBuffered@Cm@physx@@AAE_NI@Z 100079e0 f   CmRadixSortBuffered.obj
 0001:00006a80       ?Sort@RadixSortBuffered@Cm@physx@@QAEAAV123@PBIIW4RadixHint@23@@Z 10007a80 f   CmRadixSortBuffered.obj
 0001:00006b00       ?Sort@RadixSortBuffered@Cm@physx@@QAEAAV123@PBMI@Z 10007b00 f   CmRadixSortBuffered.obj
 0001:00006b70       ?reset@RadixSortBuffered@Cm@physx@@QAEXXZ 10007b70 f   CmRadixSortBuffered.obj
 0001:00006bc0       ??0DebugText@Cm@physx@@QAA@ABVPxVec3@2@MPBDZZ 10007bc0 f   CmRenderOutput.obj
 0001:00006c20       ??0DebugText@Cm@physx@@QAE@$$QAU012@@Z 10007c20 f i CmRenderOutput.obj
 0001:00006c20       ??0DebugText@Cm@physx@@QAE@ABU012@@Z 10007c20 f i CmRenderOutput.obj
 0001:00006c70       ??0PxDebugLine@physx@@QAE@ABVPxVec3@1@0ABI@Z 10007c70 f i CmRenderOutput.obj
 0001:00006cb0       ??0PxDebugTriangle@physx@@QAE@ABVPxVec3@1@00ABI@Z 10007cb0 f i CmRenderOutput.obj
 0001:00006d10       ??0PxMat44@physx@@QAE@ABV01@@Z 10007d10 f i CmRenderOutput.obj
 0001:00006d10       ??4PxMat44@physx@@QAEAAV01@ABV01@@Z 10007d10 f i CmRenderOutput.obj
 0001:00006d80       ??0RenderOutput@Cm@physx@@QAE@AAVRenderBuffer@12@@Z 10007d80 f i CmRenderOutput.obj
 0001:00006e40       ??0RenderOutput@Cm@physx@@QAE@ABV012@@Z 10007e40 f i CmRenderOutput.obj
 0001:00006ea0       ??4DebugText@Cm@physx@@QAEAAU012@ABU012@@Z 10007ea0 f i CmRenderOutput.obj
 0001:00006ea0       ??4DebugText@Cm@physx@@QAEAAU012@$$QAU012@@Z 10007ea0 f i CmRenderOutput.obj
 0001:00006f30       ??6Cm@physx@@YAAAVRenderOutput@01@AAV201@ABUDebugArc@01@@Z 10007f30 f   CmRenderOutput.obj
 0001:00007020       ??6Cm@physx@@YAAAVRenderOutput@01@AAV201@ABUDebugArrow@01@@Z 10008020 f   CmRenderOutput.obj
 0001:00007400       ??6Cm@physx@@YAAAVRenderOutput@01@AAV201@ABUDebugBasis@01@@Z 10008400 f   CmRenderOutput.obj
 0001:00007510       ??6Cm@physx@@YAAAVRenderOutput@01@AAV201@ABUDebugBox@01@@Z 10008510 f   CmRenderOutput.obj
 0001:00007a10       ??6Cm@physx@@YAAAVRenderOutput@01@AAV201@ABUDebugCircle@01@@Z 10008a10 f   CmRenderOutput.obj
 0001:00007ae0       ??6RenderOutput@Cm@physx@@QAEAAV012@ABUDebugText@12@@Z 10008ae0 f   CmRenderOutput.obj
 0001:00007cc0       ??6RenderOutput@Cm@physx@@QAEAAV012@ABVPxMat44@2@@Z 10008cc0 f   CmRenderOutput.obj
 0001:00007ce0       ??6RenderOutput@Cm@physx@@QAEAAV012@ABVPxTransform@2@@Z 10008ce0 f   CmRenderOutput.obj
 0001:00007e80       ??6RenderOutput@Cm@physx@@QAEAAV012@I@Z 10008e80 f   CmRenderOutput.obj
 0001:00007e90       ??6RenderOutput@Cm@physx@@QAEAAV012@VPxVec3@2@@Z 10008e90 f   CmRenderOutput.obj
 0001:00008270       ??6RenderOutput@Cm@physx@@QAEAAV012@W4Primitive@012@@Z 10009270 f   CmRenderOutput.obj
 0001:00008290       ?allocate@?$Array@DV?$ReflectionAllocator@D@shdfnd@physx@@@shdfnd@physx@@IAEPADI@Z 10009290 f i CmRenderOutput.obj
 0001:000082f0       ?allocate@?$Array@UPxDebugLine@physx@@V?$ReflectionAllocator@UPxDebugLine@physx@@@shdfnd@2@@shdfnd@physx@@IAEPAUPxDebugLine@3@I@Z 100092f0 f i CmRenderOutput.obj
 0001:00008360       ?allocate@?$Array@UPxDebugPoint@physx@@V?$ReflectionAllocator@UPxDebugPoint@physx@@@shdfnd@2@@shdfnd@physx@@IAEPAUPxDebugPoint@3@I@Z 10009360 f i CmRenderOutput.obj
 0001:000083d0       ?allocate@?$Array@UPxDebugText@physx@@V?$ReflectionAllocator@UPxDebugText@physx@@@shdfnd@2@@shdfnd@physx@@IAEPAUPxDebugText@3@I@Z 100093d0 f i CmRenderOutput.obj
 0001:00008440       ?allocate@?$Array@UPxDebugTriangle@physx@@V?$ReflectionAllocator@UPxDebugTriangle@physx@@@shdfnd@2@@shdfnd@physx@@IAEPAUPxDebugTriangle@3@I@Z 10009440 f i CmRenderOutput.obj
 0001:000084b0       ?copy@?$Array@UPxDebugLine@physx@@V?$ReflectionAllocator@UPxDebugLine@physx@@@shdfnd@2@@shdfnd@physx@@KAXPAUPxDebugLine@3@0PBU43@@Z 100094b0 f i CmRenderOutput.obj
 0001:00008520       ?copy@?$Array@UPxDebugPoint@physx@@V?$ReflectionAllocator@UPxDebugPoint@physx@@@shdfnd@2@@shdfnd@physx@@KAXPAUPxDebugPoint@3@0PBU43@@Z 10009520 f i CmRenderOutput.obj
 0001:00008570       ?copy@?$Array@UPxDebugText@physx@@V?$ReflectionAllocator@UPxDebugText@physx@@@shdfnd@2@@shdfnd@physx@@KAXPAUPxDebugText@3@0PBU43@@Z 10009570 f i CmRenderOutput.obj
 0001:000085d0       ?copy@?$Array@UPxDebugTriangle@physx@@V?$ReflectionAllocator@UPxDebugTriangle@physx@@@shdfnd@2@@shdfnd@physx@@KAXPAUPxDebugTriangle@3@0PBU43@@Z 100095d0 f i CmRenderOutput.obj
 0001:00008650       ?growAndPushBack@?$Array@DV?$ReflectionAllocator@D@shdfnd@physx@@@shdfnd@physx@@IAEAADABD@Z 10009650 f i CmRenderOutput.obj
 0001:000086d0       ?growAndPushBack@?$Array@UPxDebugLine@physx@@V?$ReflectionAllocator@UPxDebugLine@physx@@@shdfnd@2@@shdfnd@physx@@IAEAAUPxDebugLine@3@ABU43@@Z 100096d0 f i CmRenderOutput.obj
 0001:00008780       ?growAndPushBack@?$Array@UPxDebugPoint@physx@@V?$ReflectionAllocator@UPxDebugPoint@physx@@@shdfnd@2@@shdfnd@physx@@IAEAAUPxDebugPoint@3@ABU43@@Z 10009780 f i CmRenderOutput.obj
 0001:00008810       ?growAndPushBack@?$Array@UPxDebugText@physx@@V?$ReflectionAllocator@UPxDebugText@physx@@@shdfnd@2@@shdfnd@physx@@IAEAAUPxDebugText@3@ABU43@@Z 10009810 f i CmRenderOutput.obj
 0001:000088b0       ?growAndPushBack@?$Array@UPxDebugTriangle@physx@@V?$ReflectionAllocator@UPxDebugTriangle@physx@@@shdfnd@2@@shdfnd@physx@@IAEAAUPxDebugTriangle@3@ABU43@@Z 100098b0 f i CmRenderOutput.obj
 0001:00008980       ?outputCapsule@RenderOutput@Cm@physx@@QAEAAV123@MMABVPxMat44@3@@Z 10009980 f   CmRenderOutput.obj
 0001:00009480       ?outputSegment@RenderOutput@Cm@physx@@QAEXABVPxVec3@3@0@Z 1000a480 f i CmRenderOutput.obj
 0001:00009510       ?recreate@?$Array@DV?$ReflectionAllocator@D@shdfnd@physx@@@shdfnd@physx@@IAEXI@Z 1000a510 f i CmRenderOutput.obj
 0001:00009570       ?recreate@?$Array@UPxDebugLine@physx@@V?$ReflectionAllocator@UPxDebugLine@physx@@@shdfnd@2@@shdfnd@physx@@IAEXI@Z 1000a570 f i CmRenderOutput.obj
 0001:000095d0       ?reserveSegments@RenderOutput@Cm@physx@@QAEPAUPxDebugLine@3@I@Z 1000a5d0 f i CmRenderOutput.obj
 0001:00009630       ?visualizeAngularLimit@Cm@physx@@YAXAAVRenderOutput@12@MABVPxTransform@2@MM_N@Z 1000a630 f   CmVisualization.obj
 0001:000097c0       ?visualizeDoubleCone@Cm@physx@@YAXAAVRenderOutput@12@MABVPxTransform@2@M_N@Z 1000a7c0 f   CmVisualization.obj
 0001:000099f0       ?visualizeJointFrames@Cm@physx@@YAXAAVRenderOutput@12@MABVPxTransform@2@1@Z 1000a9f0 f   CmVisualization.obj
 0001:00009ab0       ?visualizeLimitCone@Cm@physx@@YAXAAVRenderOutput@12@MABVPxTransform@2@MM_N@Z 1000aab0 f   CmVisualization.obj
 0001:00009cc0       ?visualizeLinearLimit@Cm@physx@@YAXAAVRenderOutput@12@MABVPxTransform@2@1M_N@Z 1000acc0 f   CmVisualization.obj
 0001:00009ef0       ??0CmModuleUpdateLoader@Cm@physx@@QAE@PBD@Z 1000aef0 f   CmWindowsModuleUpdateLoader.obj
 0001:00009f20       ??1CmModuleUpdateLoader@Cm@physx@@QAE@XZ 1000af20 f   CmWindowsModuleUpdateLoader.obj
 0001:00009f40       ?LoadModule@CmModuleUpdateLoader@Cm@physx@@QAEPAUHINSTANCE__@@PBD0@Z 1000af40 f   CmWindowsModuleUpdateLoader.obj
 0001:00009f70       ?commonDelayHook@@YGP6GHXZIPAUDelayLoadInfo@@@Z 1000af70 f   CmWindowsDelayLoadHook.obj
 0001:0000a010       _PxSetPhysXCommonDelayLoadHook 1000b010 f   CmWindowsDelayLoadHook.obj
 0001:0000a020       ??0Box@Gu@physx@@QAE@ABV012@@Z 1000b020 f i GuBounds.obj
 0001:0000a020       ??4Box@Gu@physx@@QAEABV012@ABV012@@Z 1000b020 f i GuBounds.obj
 0001:0000a090       ??0Box@Gu@physx@@QAE@ABVPxVec3@2@0ABVPxMat33@2@@Z 1000b090 f i GuBounds.obj
 0001:0000a100       ?getGeometry@GeometryUnion@Gu@physx@@QBEABVPxGeometry@3@XZ 1000b100 f i GuGeometryUnion.obj
 0001:0000a100       ?getPaddedBounds@HeightFieldData@Gu@physx@@QBEABVCenterExtentsPadded@23@XZ 1000b100 f i GuBounds.obj
 0001:0000a100       ??0Box@Gu@physx@@QAE@XZ    1000b100 f i GuBounds.obj
 0001:0000a100       ??0AABBTreeBuildNode@Gu@physx@@QAE@XZ 1000b100 f i GuAABBTreeBuild.obj
 0001:0000a100       ?getAABB@AABBTreeBuildNode@Gu@physx@@QBEABVPxBounds3@3@XZ 1000b100 f i GuAABBTreeBuild.obj
 0001:0000a110       ??0HeightFieldData@Gu@physx@@QAE@ABU012@@Z 1000b110 f i GuBounds.obj
 0001:0000a110       ??4HeightFieldData@Gu@physx@@QAEAAU012@$$QAU012@@Z 1000b110 f i GuBounds.obj
 0001:0000a110       ??4HeightFieldData@Gu@physx@@QAEAAU012@ABU012@@Z 1000b110 f i GuBounds.obj
 0001:0000a110       ??0HeightFieldData@Gu@physx@@QAE@$$QAU012@@Z 1000b110 f i GuBounds.obj
 0001:0000a180       ??0GeometryUnion@Gu@physx@@QAE@W4PxEMPTY@2@@Z 1000b180 f i GuGeometryUnion.obj
 0001:0000a180       ??0MaterialIndicesStruct@physx@@QAE@W4PxEMPTY@1@@Z 1000b180 f i GuGeometryUnion.obj
 0001:0000a180       ??0HeightFieldData@Gu@physx@@QAE@W4PxEMPTY@2@@Z 1000b180 f i GuBounds.obj
 0001:0000a180       ??0BigConvexData@physx@@QAE@W4PxEMPTY@1@@Z 1000b180 f i GuMetaData.obj
 0001:0000a190       ??0HeightFieldData@Gu@physx@@QAE@XZ 1000b190 f i GuBounds.obj
 0001:0000a1a0       ??0PxQuat@physx@@QAE@ABVPxMat33@1@@Z 1000b1a0 f i GuBounds.obj
 0001:0000a360       ??0ShapeData@Gu@physx@@QAE@ABVPxGeometry@2@ABVPxTransform@2@M@Z 1000b360 f   GuBounds.obj
 0001:0000a890       ??1PxConvexMesh@physx@@MAE@XZ 1000b890 f i GuBounds.obj
 0001:0000a890       ??1PxHeightField@physx@@MAE@XZ 1000b890 f i GuBounds.obj
 0001:0000a8a0       ??_GPxBase@physx@@MAEPAXI@Z 1000b8a0 f i GuBounds.obj
 0001:0000a8a0       ??_EPxBVHStructure@physx@@MAEPAXI@Z 1000b8a0 f i GuBVHStructure.obj
 0001:0000a8a0       ??_GPxBVHStructure@physx@@MAEPAXI@Z 1000b8a0 f i GuBVHStructure.obj
 0001:0000a8a0       ??_EPxBase@physx@@MAEPAXI@Z 1000b8a0 f i GuBounds.obj
 0001:0000a8a0       ??_EPxTriangleMesh@physx@@MAEPAXI@Z 1000b8a0 f i GuTriangleMesh.obj
 0001:0000a8a0       ??_GPxTriangleMesh@physx@@MAEPAXI@Z 1000b8a0 f i GuTriangleMesh.obj
 0001:0000a8d0       ??_H@YGXPAXIIP6EPAX0@Z@Z   1000b8d0 f i GuBounds.obj
 0001:0000a900       ?computeAABBExtent@Box@Gu@physx@@QBE?AVPxVec3@3@XZ 1000b900 f i GuBounds.obj
 0001:0000a9b0       ?computeBounds@Gu@physx@@YAXAAVPxBounds3@2@ABVPxGeometry@2@ABVPxTransform@2@MPIBVCenterExtentsPadded@12@M@Z 1000b9b0 f   GuBounds.obj
 0001:0000b3b0       ?computeBoundsWithCCDThreshold@Gu@physx@@YAMAAVVec3p@12@0ABVPxGeometry@2@ABVPxTransform@2@PIBVCenterExtentsPadded@12@@Z 1000c3b0 f   GuBounds.obj
 0001:0000b540       ?computeBoxPoints@Box@Gu@physx@@QBEXPIAVPxVec3@3@@Z 1000c540 f i GuBounds.obj
 0001:0000c4d0       ?getConcreteTypeName@PxConvexMesh@physx@@UBEPBDXZ 1000d4d0 f i GuBounds.obj
 0001:0000c4e0       ?getConcreteTypeName@PxHeightField@physx@@UBEPBDXZ 1000d4e0 f i GuBounds.obj
 0001:0000c4f0       ?getConvexEdgeThreshold@HeightField@Gu@physx@@UBEMXZ 1000d4f0 f i GuBounds.obj
 0001:0000c500       ?getFlags@HeightField@Gu@physx@@UBE?AV?$PxFlags@W4Enum@PxHeightFieldFlag@physx@@G@3@XZ 1000d500 f i GuBounds.obj
 0001:0000c510       ?getFormat@HeightField@Gu@physx@@UBE?AW4Enum@PxHeightFieldFormat@3@XZ 1000d510 f i GuBounds.obj
 0001:0000c510       ?getTrianglesRemap@TriangleMesh@Gu@physx@@UBEPBIXZ 1000d510 f i GuTriangleMesh.obj
 0001:0000c520       ?getHeight@HeightField@Gu@physx@@UBEMMM@Z 1000d520 f i GuBounds.obj
 0001:0000c580       ?getHeightInternal2@HeightField@Gu@physx@@QBEMIMM@Z 1000d580 f i GuBounds.obj
 0001:0000c6d0       ?getIndexBuffer@ConvexMesh@Gu@physx@@UBEPBEXZ 1000d6d0 f i GuBounds.obj
 0001:0000c710       ?getNbColumns@HeightField@Gu@physx@@UBEIXZ 1000d710 f i GuBounds.obj
 0001:0000c720       ?getNbPolygons@ConvexMesh@Gu@physx@@UBEIXZ 1000d720 f i GuBounds.obj
 0001:0000c730       ?getNbVertices@ConvexMesh@Gu@physx@@UBEIXZ 1000d730 f i GuBounds.obj
 0001:0000c740       ?getSample@HeightField@Gu@physx@@UBEABUPxHeightFieldSample@3@II@Z 1000d740 f i GuBounds.obj
 0001:0000c760       ?getSampleStride@HeightField@Gu@physx@@UBEIXZ 1000d760 f i GuBounds.obj
 0001:0000c770       ?getTimestamp@HeightField@Gu@physx@@UBEIXZ 1000d770 f i GuBounds.obj
 0001:0000c780       ?getTransform@Box@Gu@physx@@QBE?AVPxTransform@3@XZ 1000d780 f i GuBounds.obj
 0001:0000c7d0       ?getTriangleMaterialIndex@HeightField@Gu@physx@@UBEGI@Z 1000d7d0 f i GuBounds.obj
 0001:0000c800       ?getTriangleNormal@HeightField@Gu@physx@@UBE?AVPxVec3@3@I@Z 1000d800 f i GuBounds.obj
 0001:0000c8f0       ?getVertices@ConvexMesh@Gu@physx@@UBEPBVPxVec3@3@XZ 1000d8f0 f i GuBounds.obj
 0001:0000c900       ?isKindOf@PxBase@physx@@MBE_NPBD@Z 1000d900 f i GuBounds.obj
 0001:0000c950       ?isKindOf@PxConvexMesh@physx@@MBE_NPBD@Z 1000d950 f i GuBounds.obj
 0001:0000c9d0       ?isKindOf@PxHeightField@physx@@MBE_NPBD@Z 1000d9d0 f i GuBounds.obj
 0001:0000ca50       ?isReleasable@PxBase@physx@@UBE_NXZ 1000da50 f i GuBounds.obj
 0001:0000ca60       ?isValid@Box@Gu@physx@@QBE_NXZ 1000da60 f i GuBounds.obj
 0001:0000ca80       ?preExportDataReset@HeightField@Gu@physx@@QAEXXZ 1000da80 f i GuBounds.obj
 0001:0000ca80       ?preExportDataReset@ConvexMesh@Gu@physx@@QAEXXZ 1000da80 f i GuBounds.obj
 0001:0000ca90       ?rotate@Box@Gu@physx@@QBE?AVPxVec3@3@ABV43@@Z 1000da90 f i GuBounds.obj
 0001:0000cb10       ?rotateInv@Box@Gu@physx@@QBE?AVPxVec3@3@ABV43@@Z 1000db10 f i GuBounds.obj
 0001:0000cb90       ?setAxes@Box@Gu@physx@@QAEXABVPxVec3@3@00@Z 1000db90 f i GuBounds.obj
 0001:0000cbe0       ?setEmpty@Box@Gu@physx@@QAEXXZ 1000dbe0 f i GuBounds.obj
 0001:0000cc50       ?transform@Box@Gu@physx@@QBE?AVPxVec3@3@ABV43@@Z 1000dc50 f i GuBounds.obj
 0001:0000cce0       ?computeOBBPoints@Gu@physx@@YAXPIAVPxVec3@2@ABV32@1111@Z 1000dce0 f   GuBox.obj
 0001:0000cf40       ?create@Box@Gu@physx@@QAEXABVCapsule@23@@Z 1000df40 f   GuBox.obj
 0001:0000d180       ?getBoxEdges@Gu@physx@@YAPBEXZ 1000e180 f   GuBox.obj
 0001:0000d190       ?computeBasis@shdfnd@physx@@YAXABVPxVec3@2@0AAV32@11@Z 1000e190 f i GuCapsule.obj
 0001:0000d320       ?computeBoxAroundCapsule@Gu@physx@@YAXABVCapsule@12@AAVBox@12@@Z 1000e320 f   GuCapsule.obj
 0001:0000d4a0       ??0HeightFieldTraceUtil@Gu@physx@@QAE@ABVPxHeightFieldGeometry@2@@Z 1000e4a0 f i GuCCTSweepTests.obj
 0001:0000d4a0       ??0HeightFieldUtil@Gu@physx@@QAE@ABVPxHeightFieldGeometry@2@@Z 1000e4a0 f i GuCCTSweepTests.obj
 0001:0000d4e0       ??4HeightFieldTraceUtil@Gu@physx@@QAEAAV012@$$QAV012@@Z 1000e4e0 f i GuCCTSweepTests.obj
 0001:0000d4e0       ??4HeightFieldTraceUtil@Gu@physx@@QAEAAV012@ABV012@@Z 1000e4e0 f i GuCCTSweepTests.obj
 0001:0000d4e0       ??4HeightFieldUtil@Gu@physx@@QAEAAV012@ABV012@@Z 1000e4e0 f i GuCCTSweepTests.obj
 0001:0000d500       ??4HeightFieldUtil@Gu@physx@@QAEAAV012@$$QAV012@@Z 1000e500 f i GuCCTSweepTests.obj
 0001:0000d530       ??_G?$EntityReport@I@Gu@physx@@UAEPAXI@Z 1000e530 f i GuCCTSweepTests.obj
 0001:0000d530       ??_E?$EntityReport@I@Gu@physx@@UAEPAXI@Z 1000e530 f i GuCCTSweepTests.obj
 0001:0000d590       ?ceilUp@HeightFieldTraceUtil@Gu@physx@@SAMM@Z 1000e590 f i GuCCTSweepTests.obj
 0001:0000d5d0       ?computePointNormal@HeightFieldUtil@Gu@physx@@QBE?AVPxVec3@3@IABV43@ABVPxTransform@3@MMMMAAM@Z 1000e5d0 f i GuCCTSweepTests.obj
 0001:0000d9e0       ?floorDown@HeightFieldTraceUtil@Gu@physx@@SAMM@Z 1000e9e0 f i GuCCTSweepTests.obj
 0001:0000da50       ?getFeatureIndex@HeightFieldUtil@Gu@physx@@SAII@Z 1000ea50 f i GuCCTSweepTests.obj
 0001:0000da60       ?getFeatureType@HeightFieldUtil@Gu@physx@@SA?AW4Feature@123@I@Z 1000ea60 f i GuCCTSweepTests.obj
 0001:0000da70       ?getHeightAtShapePoint@HeightFieldUtil@Gu@physx@@QBEMMM@Z 1000ea70 f i GuCCTSweepTests.obj
 0001:0000dae0       ?GetValencies@BigConvexData@physx@@QBEPBUValency@Gu@2@XZ 1000eae0 f i GuMetaData.obj
 0001:0000dae0       ?getHeightFieldGeometry@HeightFieldUtil@Gu@physx@@QBEABVPxHeightFieldGeometry@3@XZ 1000eae0 f i GuCCTSweepTests.obj
 0001:0000dae0       ?getNbVertices@TriangleMesh@Gu@physx@@UBEIXZ 1000eae0 f i GuTriangleMesh.obj
 0001:0000daf0       ?getNormalAtShapePoint@HeightFieldUtil@Gu@physx@@QBE?AVPxVec3@3@MM@Z 1000eaf0 f i GuCCTSweepTests.obj
 0001:0000dba0       ?getNormal_2@HeightField@Gu@physx@@QBE?AVPxVec3@3@IMMMMM@Z 1000eba0 f i GuCCTSweepTests.obj
 0001:0000dca0       ?getOneOverColumnScale@HeightFieldUtil@Gu@physx@@QBEMXZ 1000eca0 f i GuCCTSweepTests.obj
 0001:0000dcb0       ?getOneOverHeightScale@HeightFieldUtil@Gu@physx@@QBEMXZ 1000ecb0 f i GuCCTSweepTests.obj
 0001:0000dcc0       ?getOneOverRowScale@HeightFieldUtil@Gu@physx@@QBEMXZ 1000ecc0 f i GuCCTSweepTests.obj
 0001:0000dcd0       ?getVertexNormal@HeightFieldUtil@Gu@physx@@QBE?AVPxVec3@3@I@Z 1000ecd0 f i GuCCTSweepTests.obj
 0001:0000dd00       ?hf2shapen@HeightFieldUtil@Gu@physx@@QBE?AVPxVec3@3@ABV43@@Z 1000ed00 f i GuCCTSweepTests.obj
 0001:0000dd00       ?shape2hfp@HeightFieldUtil@Gu@physx@@QBE?AVPxVec3@3@ABV43@@Z 1000ed00 f i GuCCTSweepTests.obj
 0001:0000dd40       ?hf2shapep@HeightFieldUtil@Gu@physx@@QBE?AVPxVec3@3@ABV43@@Z 1000ed40 f i GuCCTSweepTests.obj
 0001:0000dd80       ?hf2worldn@HeightFieldUtil@Gu@physx@@QBE?AVPxVec3@3@ABVPxTransform@3@ABV43@@Z 1000ed80 f i GuCCTSweepTests.obj
 0001:0000deb0       ?hf2worldp@HeightFieldUtil@Gu@physx@@QBE?AVPxVec3@3@ABVPxTransform@3@ABV43@@Z 1000eeb0 f i GuCCTSweepTests.obj
 0001:0000dff0       ?isCollisionVertex@HeightFieldUtil@Gu@physx@@QBE_NIII@Z 1000eff0 f i GuCCTSweepTests.obj
 0001:0000e010       ?isQueryVertex@HeightFieldUtil@Gu@physx@@QBE_NIII@Z 1000f010 f i GuCCTSweepTests.obj
 0001:0000e0a0       ?isShapePointOnHeightField@HeightFieldUtil@Gu@physx@@QBE_NMM@Z 1000f0a0 f i GuCCTSweepTests.obj
 0001:0000e100       ?makeFeatureCode@HeightFieldUtil@Gu@physx@@SAIIW4Feature@123@@Z 1000f100 f i GuCCTSweepTests.obj
 0001:0000e260       ?poseExtent@PxBounds3@physx@@SA?AV12@ABVPxTransform@2@ABVPxVec3@2@@Z 1000f260 f i GuCCTSweepTests.obj
 0001:0000e460       ?sweepBoxTriangles_Precise@Gu@physx@@YA_NIPBVPxTriangle@2@_NABVPxBoxGeometry@2@ABVPxTransform@2@ABVPxVec3@2@MAAUPxSweepHit@2@PBIMV?$PxFlags@W4Enum@PxHitFlag@physx@@G@2@@Z 1000f460 f   GuCCTSweepTests.obj
 0001:0000f2f0       ?sweepBox_BoxGeom_Precise@@YA_NABVPxGeometry@physx@@ABVPxTransform@2@ABVPxBoxGeometry@2@1ABVBox@Gu@2@ABVPxVec3@2@MAAUPxSweepHit@2@V?$PxFlags@W4Enum@PxHitFlag@physx@@G@2@M@Z 100102f0 f   GuCCTSweepTests.obj
 0001:0000f4d0       ?sweepBox_CapsuleGeom_Precise@@YA_NABVPxGeometry@physx@@ABVPxTransform@2@ABVPxBoxGeometry@2@1ABVBox@Gu@2@ABVPxVec3@2@MAAUPxSweepHit@2@V?$PxFlags@W4Enum@PxHitFlag@physx@@G@2@M@Z 100104d0 f   GuCCTSweepTests.obj
 0001:0000f890       ?sweepBox_HeightFieldGeom_Precise@@YA_NABVPxGeometry@physx@@ABVPxTransform@2@ABVPxBoxGeometry@2@1ABVBox@Gu@2@ABVPxVec3@2@MAAUPxSweepHit@2@V?$PxFlags@W4Enum@PxHitFlag@physx@@G@2@M@Z 10010890 f   GuCCTSweepTests.obj
 0001:0000faa0       ?sweepBox_SphereGeom_Precise@@YA_NABVPxGeometry@physx@@ABVPxTransform@2@ABVPxBoxGeometry@2@1ABVBox@Gu@2@ABVPxVec3@2@MAAUPxSweepHit@2@V?$PxFlags@W4Enum@PxHitFlag@physx@@G@2@M@Z 10010aa0 f   GuCCTSweepTests.obj
 0001:0000fd30       ?sweepCapsule_BoxGeom_Precise@@YA_NABVPxGeometry@physx@@ABVPxTransform@2@ABVPxCapsuleGeometry@2@1ABVCapsule@Gu@2@ABVPxVec3@2@MAAUPxSweepHit@2@V?$PxFlags@W4Enum@PxHitFlag@physx@@G@2@M@Z 10010d30 f   GuCCTSweepTests.obj
 0001:00010360       ?computePenetration@PxGeometryQuery@physx@@SA_NAAVPxVec3@2@AAMABVPxGeometry@2@ABVPxTransform@2@23@Z 10011360 f   GuGeometryQuery.obj
 0001:00010460       ?getWorldBounds@PxGeometryQuery@physx@@SA?AVPxBounds3@2@ABVPxGeometry@2@ABVPxTransform@2@M@Z 10011460 f   GuGeometryQuery.obj
 0001:000104c0       ?isFinite@PxQuat@physx@@QBE_NXZ 100114c0 f i GuGeometryQuery.obj
 0001:00010550       ?isValid@PxGeometryQuery@physx@@SA_NABVPxGeometry@2@@Z 10011550 f   GuGeometryQuery.obj
 0001:000107b0       ?overlap@PxGeometryQuery@physx@@SA_NABVPxGeometry@2@ABVPxTransform@2@01@Z 100117b0 f   GuGeometryQuery.obj
 0001:00010830       ?pointDistance@PxGeometryQuery@physx@@SAMABVPxVec3@2@ABVPxGeometry@2@ABVPxTransform@2@PAV32@@Z 10011830 f   GuGeometryQuery.obj
 0001:00010f10       ?raycast@PxGeometryQuery@physx@@SAIABVPxVec3@2@0ABVPxGeometry@2@ABVPxTransform@2@MV?$PxFlags@W4Enum@PxHitFlag@physx@@G@2@IPIAUPxRaycastHit@2@@Z 10011f10 f   GuGeometryQuery.obj
 0001:00010f80       ?sweep@PxGeometryQuery@physx@@SA_NABVPxVec3@2@MABVPxGeometry@2@ABVPxTransform@2@12AAUPxSweepHit@2@V?$PxFlags@W4Enum@PxHitFlag@physx@@G@2@M@Z 10011f80 f   GuGeometryQuery.obj
 0001:000113c0       ??0GeometryUnion@Gu@physx@@QAE@ABVPxGeometry@2@@Z 100123c0 f i GuGeometryUnion.obj
 0001:000113e0       ??0GeometryUnion@Gu@physx@@QAE@XZ 100123e0 f i GuGeometryUnion.obj
 0001:000113f0       ??0MaterialIndicesStruct@physx@@QAE@XZ 100123f0 f i GuGeometryUnion.obj
 0001:00011400       ??4GeometryUnion@Gu@physx@@QAEAAV012@ABV012@@Z 10012400 f i GuGeometryUnion.obj
 0001:00011400       ??4GeometryUnion@Gu@physx@@QAEAAV012@$$QAV012@@Z 10012400 f i GuGeometryUnion.obj
 0001:00011430       ?allocate@MaterialIndicesStruct@physx@@QAEXG@Z 10012430 f i GuGeometryUnion.obj
 0001:00011480       ?deallocate@MaterialIndicesStruct@physx@@QAEXXZ 10012480 f i GuGeometryUnion.obj
 0001:000114b0       ?getCount@BuildStats@Gu@physx@@QBEIXZ 100124b0 f i GuAABBTreeBuild.obj
 0001:000114b0       ?getType@GeometryUnion@Gu@physx@@QBE?AW4Enum@PxGeometryType@3@XZ 100124b0 f i GuGeometryUnion.obj
 0001:000114b0       ?getNumAxes@SeparatingAxes@Gu@physx@@QBEIXZ 100124b0 f i GuMTD.obj
 0001:000114c0       ?set@GeometryUnion@Gu@physx@@QAEXABVPxGeometry@3@@Z 100124c0 f   GuGeometryUnion.obj
 0001:00011680       ?computeBoundsAroundVertices@Gu@physx@@YAXAAVPxBounds3@2@IPIBVPxVec3@2@@Z 10012680 f   GuInternal.obj
 0001:00011710       ?computeBoxPoints@Gu@physx@@YAXABVPxBounds3@2@PIAVPxVec3@2@@Z 10012710 f   GuInternal.obj
 0001:000117b0       ?computeSweptBox@Gu@physx@@YAXAAVBox@12@ABVPxVec3@2@1ABVPxMat33@2@1M@Z 100127b0 f   GuInternal.obj
 0001:00011c80       ?getPlane@Gu@physx@@YA?AVPxPlane@2@ABVPxTransform@2@@Z 10012c80 f   GuInternal.obj
 0001:00011d20       ??0GuMeshFactory@physx@@QAE@XZ 10012d20 f   GuMeshFactory.obj
 0001:00011ef0       ??0TriangleMeshData@Gu@physx@@QAE@XZ 10012ef0 f i GuMeshFactory.obj
 0001:00011f90       ??1GuMeshFactory@physx@@MAE@XZ 10012f90 f   GuMeshFactory.obj
 0001:00012030       ??1MeshDataBase@Gu@physx@@UAE@XZ 10013030 f i GuMeshFactory.obj
 0001:000120d0       ??1TriangleMeshData@Gu@physx@@UAE@XZ 100130d0 f i GuMeshFactory.obj
 0001:00012150       ??_EGuMeshFactory@physx@@MAEPAXI@Z 10013150 f i GuMeshFactory.obj
 0001:00012210       ??_EBV4TriangleData@Gu@physx@@UAEPAXI@Z 10013210 f i GuMeshFactory.obj
 0001:00012210       ??_GBV4TriangleData@Gu@physx@@UAEPAXI@Z 10013210 f i GuMeshFactory.obj
 0001:00012270       ??_EMeshDataBase@Gu@physx@@UAEPAXI@Z 10013270 f i GuMeshFactory.obj
 0001:00012270       ??_GMeshDataBase@Gu@physx@@UAEPAXI@Z 10013270 f i GuMeshFactory.obj
 0001:000122b0       ??_ERTreeTriangleData@Gu@physx@@UAEPAXI@Z 100132b0 f i GuMeshFactory.obj
 0001:000122b0       ??_GRTreeTriangleData@Gu@physx@@UAEPAXI@Z 100132b0 f i GuMeshFactory.obj
 0001:00012330       ??_GTriangleMeshData@Gu@physx@@UAEPAXI@Z 10013330 f i GuMeshFactory.obj
 0001:00012330       ??_ETriangleMeshData@Gu@physx@@UAEPAXI@Z 10013330 f i GuMeshFactory.obj
 0001:00012370       ?__global_array_delete@@YAXPAXI@Z 10013370 f i GuMeshFactory.obj
 0001:00012380       ?__global_delete@@YAXPAXI@Z 10013380 f i GuMeshFactory.obj
 0001:00012390       ?addBVHStructure@GuMeshFactory@physx@@QAEXPAVBVHStructure@Gu@2@_N@Z 10013390 f   GuMeshFactory.obj
 0001:000123f0       ?addConvexMesh@GuMeshFactory@physx@@QAEXPAVConvexMesh@Gu@2@_N@Z 100133f0 f   GuMeshFactory.obj
 0001:00012450       ?addFactoryListener@GuMeshFactory@physx@@QAEXAAVGuMeshFactoryListener@2@@Z 10013450 f   GuMeshFactory.obj
 0001:000124b0       ?addHeightField@GuMeshFactory@physx@@QAEXPAVHeightField@Gu@2@_N@Z 100134b0 f   GuMeshFactory.obj
 0001:00012510       ?addTriangleMesh@GuMeshFactory@physx@@QAEXPAVTriangleMesh@Gu@2@_N@Z 10013510 f   GuMeshFactory.obj
 0001:00012570       ?create@?$HashBase@PAVTriangleMesh@Gu@physx@@PAV123@U?$Hash@PAVTriangleMesh@Gu@physx@@@shdfnd@3@UGetKey@?$HashSetBase@PAVTriangleMesh@Gu@physx@@U?$Hash@PAVTriangleMesh@Gu@physx@@@shdfnd@3@VNonTrackingAllocator@53@$00@internal@53@VNonTrackingAllocator@53@$00@internal@shdfnd@physx@@QAEPAPAVTriangleMesh@Gu@4@ABQAV564@AA_N@Z 10013570 f i GuMeshFactory.obj
 0001:00012570       ?create@?$HashBase@PAVConvexMesh@Gu@physx@@PAV123@U?$Hash@PAVConvexMesh@Gu@physx@@@shdfnd@3@UGetKey@?$HashSetBase@PAVConvexMesh@Gu@physx@@U?$Hash@PAVConvexMesh@Gu@physx@@@shdfnd@3@VNonTrackingAllocator@53@$00@internal@53@VNonTrackingAllocator@53@$00@internal@shdfnd@physx@@QAEPAPAVConvexMesh@Gu@4@ABQAV564@AA_N@Z 10013570 f i GuMeshFactory.obj
 0001:00012570       ?create@?$HashBase@PAVHeightField@Gu@physx@@PAV123@U?$Hash@PAVHeightField@Gu@physx@@@shdfnd@3@UGetKey@?$HashSetBase@PAVHeightField@Gu@physx@@U?$Hash@PAVHeightField@Gu@physx@@@shdfnd@3@VNonTrackingAllocator@53@$00@internal@53@VNonTrackingAllocator@53@$00@internal@shdfnd@physx@@QAEPAPAVHeightField@Gu@4@ABQAV564@AA_N@Z 10013570 f i GuMeshFactory.obj
 0001:00012570       ?create@?$HashBase@PAVBVHStructure@Gu@physx@@PAV123@U?$Hash@PAVBVHStructure@Gu@physx@@@shdfnd@3@UGetKey@?$HashSetBase@PAVBVHStructure@Gu@physx@@U?$Hash@PAVBVHStructure@Gu@physx@@@shdfnd@3@VNonTrackingAllocator@53@$00@internal@53@VNonTrackingAllocator@53@$00@internal@shdfnd@physx@@QAEPAPAVBVHStructure@Gu@4@ABQAV564@AA_N@Z 10013570 f i GuMeshFactory.obj
 0001:000126a0       ?createBVHStructure@GuMeshFactory@physx@@IAEPAVPxBVHStructure@2@AAUBVHStructureData@Gu@2@@Z 100136a0 f   GuMeshFactory.obj
 0001:00012760       ?createBVHStructure@GuMeshFactory@physx@@QAEPAVPxBVHStructure@2@AAVPxInputStream@2@@Z 10013760 f   GuMeshFactory.obj
 0001:00012840       ?createBVHStructure@GuMeshFactory@physx@@QAEPAVPxBVHStructure@2@PAX@Z 10013840 f   GuMeshFactory.obj
 0001:00012850       ?createConvexMesh@GuMeshFactory@physx@@IAEPAVPxConvexMesh@2@AAUConvexHullInitData@Gu@2@@Z 10013850 f   GuMeshFactory.obj
 0001:00012910       ?createConvexMesh@GuMeshFactory@physx@@QAEPAVPxConvexMesh@2@AAVPxInputStream@2@@Z 10013910 f   GuMeshFactory.obj
 0001:000129f0       ?createConvexMesh@GuMeshFactory@physx@@QAEPAVPxConvexMesh@2@PAX@Z 100139f0 f   GuMeshFactory.obj
 0001:00012a00       ?createHeightField@GuMeshFactory@physx@@QAEPAVPxHeightField@2@AAVPxInputStream@2@@Z 10013a00 f   GuMeshFactory.obj
 0001:00012ae0       ?createHeightField@GuMeshFactory@physx@@QAEPAVPxHeightField@2@PAX@Z 10013ae0 f   GuMeshFactory.obj
 0001:00012ba0       ?createTriangleMesh@GuMeshFactory@physx@@IAEPAVPxTriangleMesh@2@AAVTriangleMeshData@Gu@2@@Z 10013ba0 f   GuMeshFactory.obj
 0001:00012cd0       ?createTriangleMesh@GuMeshFactory@physx@@QAEPAVPxTriangleMesh@2@AAVPxInputStream@2@@Z 10013cd0 f   GuMeshFactory.obj
 0001:00012d10       ?createTriangleMesh@GuMeshFactory@physx@@QAEPAVPxTriangleMesh@2@PAX@Z 10013d10 f   GuMeshFactory.obj
 0001:00012d20       ?erase@?$HashBase@PAVBVHStructure@Gu@physx@@PAV123@U?$Hash@PAVBVHStructure@Gu@physx@@@shdfnd@3@UGetKey@?$HashSetBase@PAVBVHStructure@Gu@physx@@U?$Hash@PAVBVHStructure@Gu@physx@@@shdfnd@3@VNonTrackingAllocator@53@$00@internal@53@VNonTrackingAllocator@53@$00@internal@shdfnd@physx@@QAE_NABQAVBVHStructure@Gu@4@@Z 10013d20 f i GuMeshFactory.obj
 0001:00012d20       ?erase@?$HashBase@PAVConvexMesh@Gu@physx@@PAV123@U?$Hash@PAVConvexMesh@Gu@physx@@@shdfnd@3@UGetKey@?$HashSetBase@PAVConvexMesh@Gu@physx@@U?$Hash@PAVConvexMesh@Gu@physx@@@shdfnd@3@VNonTrackingAllocator@53@$00@internal@53@VNonTrackingAllocator@53@$00@internal@shdfnd@physx@@QAE_NABQAVConvexMesh@Gu@4@@Z 10013d20 f i GuMeshFactory.obj
 0001:00012d20       ?erase@?$HashBase@PAVTriangleMesh@Gu@physx@@PAV123@U?$Hash@PAVTriangleMesh@Gu@physx@@@shdfnd@3@UGetKey@?$HashSetBase@PAVTriangleMesh@Gu@physx@@U?$Hash@PAVTriangleMesh@Gu@physx@@@shdfnd@3@VNonTrackingAllocator@53@$00@internal@53@VNonTrackingAllocator@53@$00@internal@shdfnd@physx@@QAE_NABQAVTriangleMesh@Gu@4@@Z 10013d20 f i GuMeshFactory.obj
 0001:00012d20       ?erase@?$HashBase@PAVHeightField@Gu@physx@@PAV123@U?$Hash@PAVHeightField@Gu@physx@@@shdfnd@3@UGetKey@?$HashSetBase@PAVHeightField@Gu@physx@@U?$Hash@PAVHeightField@Gu@physx@@@shdfnd@3@VNonTrackingAllocator@53@$00@internal@53@VNonTrackingAllocator@53@$00@internal@shdfnd@physx@@QAE_NABQAVHeightField@Gu@4@@Z 10013d20 f i GuMeshFactory.obj
 0001:00012e20       ?getBVHStructures@GuMeshFactory@physx@@QBEIPAPAVPxBVHStructure@2@II@Z 10013e20 f   GuMeshFactory.obj
 0001:00012e90       ?getConvexMeshes@GuMeshFactory@physx@@QBEIPAPAVPxConvexMesh@2@II@Z 10013e90 f   GuMeshFactory.obj
 0001:00012ef0       ?getHeightFields@GuMeshFactory@physx@@QBEIPAPAVPxHeightField@2@II@Z 10013ef0 f   GuMeshFactory.obj
 0001:00012f50       ?getNbBVHStructures@GuMeshFactory@physx@@QBEIXZ 10013f50 f   GuMeshFactory.obj
 0001:00012f80       ?getNbConvexMeshes@GuMeshFactory@physx@@QBEIXZ 10013f80 f   GuMeshFactory.obj
 0001:00012fa0       ?getNbHeightFields@GuMeshFactory@physx@@QBEIXZ 10013fa0 f   GuMeshFactory.obj
 0001:00012fc0       ?getNbTriangleMeshes@GuMeshFactory@physx@@QBEIXZ 10013fc0 f   GuMeshFactory.obj
 0001:00012fe0       ?getTriangleMeshes@GuMeshFactory@physx@@QBEIPAPAVPxTriangleMesh@2@II@Z 10013fe0 f   GuMeshFactory.obj
 0001:00013040       ?growAndPushBack@?$Array@PAVGuMeshFactoryListener@physx@@V?$ReflectionAllocator@PAVGuMeshFactoryListener@physx@@@shdfnd@2@@shdfnd@physx@@IAEAAPAVGuMeshFactoryListener@3@ABQAV43@@Z 10014040 f i GuMeshFactory.obj
 0001:00013db0       ?notifyFactoryListener@GuMeshFactory@physx@@QAEXPBVPxBase@2@G@Z 10014db0 f   GuMeshFactory.obj
 0001:00013df0       ?release@GuMeshFactory@physx@@QAEXXZ 10014df0 f   GuMeshFactory.obj
 0001:00013e70       ?removeBVHStructure@GuMeshFactory@physx@@QAE_NAAVPxBVHStructure@2@@Z 10014e70 f   GuMeshFactory.obj
 0001:00013eb0       ?removeConvexMesh@GuMeshFactory@physx@@QAE_NAAVPxConvexMesh@2@@Z 10014eb0 f   GuMeshFactory.obj
 0001:00013ef0       ?removeFactoryListener@GuMeshFactory@physx@@QAEXAAVGuMeshFactoryListener@2@@Z 10014ef0 f   GuMeshFactory.obj
 0001:00013f50       ?removeHeightField@GuMeshFactory@physx@@QAE_NAAVPxHeightField@2@@Z 10014f50 f   GuMeshFactory.obj
 0001:00013f90       ?removeTriangleMesh@GuMeshFactory@physx@@QAE_NAAVPxTriangleMesh@2@@Z 10014f90 f   GuMeshFactory.obj
 0001:00013fd0       ?reserveInternal@?$HashBase@PAVHeightField@Gu@physx@@PAV123@U?$Hash@PAVHeightField@Gu@physx@@@shdfnd@3@UGetKey@?$HashSetBase@PAVHeightField@Gu@physx@@U?$Hash@PAVHeightField@Gu@physx@@@shdfnd@3@VNonTrackingAllocator@53@$00@internal@53@VNonTrackingAllocator@53@$00@internal@shdfnd@physx@@AAEXI@Z 10014fd0 f i GuMeshFactory.obj
 0001:00013fd0       ?reserveInternal@?$HashBase@PAVConvexMesh@Gu@physx@@PAV123@U?$Hash@PAVConvexMesh@Gu@physx@@@shdfnd@3@UGetKey@?$HashSetBase@PAVConvexMesh@Gu@physx@@U?$Hash@PAVConvexMesh@Gu@physx@@@shdfnd@3@VNonTrackingAllocator@53@$00@internal@53@VNonTrackingAllocator@53@$00@internal@shdfnd@physx@@AAEXI@Z 10014fd0 f i GuMeshFactory.obj
 0001:00013fd0       ?reserveInternal@?$HashBase@PAVTriangleMesh@Gu@physx@@PAV123@U?$Hash@PAVTriangleMesh@Gu@physx@@@shdfnd@3@UGetKey@?$HashSetBase@PAVTriangleMesh@Gu@physx@@U?$Hash@PAVTriangleMesh@Gu@physx@@@shdfnd@3@VNonTrackingAllocator@53@$00@internal@53@VNonTrackingAllocator@53@$00@internal@shdfnd@physx@@AAEXI@Z 10014fd0 f i GuMeshFactory.obj
 0001:00013fd0       ?reserveInternal@?$HashBase@PAVBVHStructure@Gu@physx@@PAV123@U?$Hash@PAVBVHStructure@Gu@physx@@@shdfnd@3@UGetKey@?$HashSetBase@PAVBVHStructure@Gu@physx@@U?$Hash@PAVBVHStructure@Gu@physx@@@shdfnd@3@VNonTrackingAllocator@53@$00@internal@53@VNonTrackingAllocator@53@$00@internal@shdfnd@physx@@AAEXI@Z 10014fd0 f i GuMeshFactory.obj
 0001:00014170       ??4BigConvexData@physx@@QAEAAV01@ABV01@@Z 10015170 f i GuMetaData.obj
 0001:00014190       ?GetAdjacentVerts@BigConvexData@physx@@QBEPBEXZ 10015190 f i GuMetaData.obj
 0001:00014190       ?getNbBounds@BVHStructure@Gu@physx@@UBEIXZ 10015190 f i GuBVHStructure.obj
 0001:00014190       ?getNbTriangles@TriangleMesh@Gu@physx@@UBEIXZ 10015190 f i GuTriangleMesh.obj
 0001:000141a0       ?GetNbNeighbors@BigConvexData@physx@@QBEGI@Z 100151a0 f i GuMetaData.obj
 0001:000141a0       ?GetValency@BigConvexData@physx@@QBEGI@Z 100151a0 f i GuMetaData.obj
 0001:000141b0       ?GetNbSamples@BigConvexData@physx@@QBEIXZ 100151b0 f i GuMetaData.obj
 0001:000141c0       ?GetNeighbors@BigConvexData@physx@@QBEPBEI@Z 100151c0 f i GuMetaData.obj
 0001:000141e0       ?GetOffset@BigConvexData@physx@@QBEGI@Z 100151e0 f i GuMetaData.obj
 0001:000141f0       ?GetSubdiv@BigConvexData@physx@@QBEIXZ 100151f0 f i GuMetaData.obj
 0001:00014200       ?getBinaryMetaData@BV4Tree@Gu@physx@@SAXAAVPxOutputStream@3@@Z 10015200 f   GuMetaData.obj
 0001:00014650       ?getBinaryMetaData@BV4TriangleMesh@Gu@physx@@SAXAAVPxOutputStream@3@@Z 10015650 f   GuMetaData.obj
 0001:000149c0       ?getBinaryMetaData@BigConvexData@physx@@SAXAAVPxOutputStream@2@@Z 100159c0 f   GuMetaData.obj
 0001:00014d30       ?getBinaryMetaData@ConvexMesh@Gu@physx@@SAXAAVPxOutputStream@3@@Z 10015d30 f   GuMetaData.obj
 0001:00015570       ?getBinaryMetaData@GeometryUnion@Gu@physx@@SAXAAVPxOutputStream@3@@Z 10016570 f   GuMetaData.obj
 0001:00015e70       ?getBinaryMetaData@HeightField@Gu@physx@@SAXAAVPxOutputStream@3@@Z 10016e70 f   GuMetaData.obj
 0001:000163b0       ?getBinaryMetaData@MaterialIndicesStruct@physx@@SAXAAVPxOutputStream@2@@Z 100173b0 f   GuMetaData.obj
 0001:00016540       ?getBinaryMetaData@RTree@Gu@physx@@SAXAAVPxOutputStream@3@@Z 10017540 f   GuMetaData.obj
 0001:00016940       ?getBinaryMetaData@RTreeTriangleMesh@Gu@physx@@SAXAAVPxOutputStream@3@@Z 10017940 f   GuMetaData.obj
 0001:00017330       ?getBinaryMetaData@TriangleMesh@Gu@physx@@SAXAAVPxOutputStream@3@@Z 10018330 f   GuMetaData.obj
 0001:00018bc0       ?doSupport@?$SupportLocalImpl@VConvexHullV@Gu@physx@@@Gu@physx@@UBE?AT__m128@@ABT4@@Z 10019bc0 f i GuMTD.obj
 0001:00018c70       ?doSupport@?$SupportLocalImpl@VConvexHullV@Gu@physx@@@Gu@physx@@UBEXABT__m128@@AAT4@1@Z 10019c70 f i GuMTD.obj
 0001:00018f80       ?populateVerts@?$SupportLocalImpl@VConvexHullV@Gu@physx@@@Gu@physx@@UBEXPBEIPBVPxVec3@3@PAT__m128@@@Z 10019f80 f i GuMTD.obj
 0001:00018ff0       ??_G?$SupportLocalImpl@VBoxV@Gu@physx@@@Gu@physx@@UAEPAXI@Z 10019ff0 f i GuMTD.obj
 0001:00018ff0       ??_G?$SupportLocalImpl@VTriangleV@Gu@physx@@@Gu@physx@@UAEPAXI@Z 10019ff0 f i GuPCMContactConvexCommon.obj
 0001:00018ff0       ??_G?$SupportLocalImpl@VConvexHullV@Gu@physx@@@Gu@physx@@UAEPAXI@Z 10019ff0 f i GuMTD.obj
 0001:00018ff0       ??_E?$SupportLocalImpl@VConvexHullNoScaleV@Gu@physx@@@Gu@physx@@UAEPAXI@Z 10019ff0 f i GuMTD.obj
 0001:00018ff0       ??_E?$SupportLocalImpl@VTriangleV@Gu@physx@@@Gu@physx@@UAEPAXI@Z 10019ff0 f i GuPCMContactConvexCommon.obj
 0001:00018ff0       ??_G?$SupportLocalImpl@VConvexHullNoScaleV@Gu@physx@@@Gu@physx@@UAEPAXI@Z 10019ff0 f i GuMTD.obj
 0001:00018ff0       ??_E?$SupportLocalImpl@VConvexHullV@Gu@physx@@@Gu@physx@@UAEPAXI@Z 10019ff0 f i GuMTD.obj
 0001:00018ff0       ??_E?$SupportLocalImpl@VBoxV@Gu@physx@@@Gu@physx@@UAEPAXI@Z 10019ff0 f i GuMTD.obj
 0001:00019020       ?doSupport@?$SupportLocalImpl@VConvexHullNoScaleV@Gu@physx@@@Gu@physx@@UBE?AT__m128@@ABT4@@Z 1001a020 f i GuMTD.obj
 0001:00019050       ?doSupport@?$SupportLocalImpl@VConvexHullNoScaleV@Gu@physx@@@Gu@physx@@UBEXABT__m128@@AAT4@1@Z 1001a050 f i GuMTD.obj
 0001:000191a0       ?populateVerts@?$SupportLocalImpl@VBoxV@Gu@physx@@@Gu@physx@@UBEXPBEIPBVPxVec3@3@PAT__m128@@@Z 1001a1a0 f i GuMTD.obj
 0001:000191a0       ?populateVerts@?$SupportLocalImpl@VConvexHullNoScaleV@Gu@physx@@@Gu@physx@@UBEXPBEIPBVPxVec3@3@PAT__m128@@@Z 1001a1a0 f i GuMTD.obj
 0001:000191e0       ?doSupport@?$SupportLocalImpl@VBoxV@Gu@physx@@@Gu@physx@@UBE?AT__m128@@ABT4@@Z 1001a1e0 f i GuMTD.obj
 0001:00019210       ?doSupport@?$SupportLocalImpl@VBoxV@Gu@physx@@@Gu@physx@@UBEXABT__m128@@AAT4@1@Z 1001a210 f i GuMTD.obj
 0001:00019270       ??_GSupportLocal@Gu@physx@@UAEPAXI@Z 1001a270 f i GuMTD.obj
 0001:00019270       ??_ESupportLocal@Gu@physx@@UAEPAXI@Z 1001a270 f i GuMTD.obj
 0001:0001ad00       ??$gjk@U?$LocalConvex@VCapsuleV@Gu@physx@@@Gu@physx@@U?$LocalConvex@VConvexHullV@Gu@physx@@@23@@Gu@physx@@YA?AW4GjkStatus@01@ABU?$LocalConvex@VCapsuleV@Gu@physx@@@01@ABU?$LocalConvex@VConvexHullV@Gu@physx@@@01@ABT__m128@@2AAT5@333@Z 1001bd00 f i GuMTD.obj
 0001:0001bc80       ??0MultiplePersistentContactManifold@Gu@physx@@QAE@XZ 1001cc80 f i GuMTD.obj
 0001:0001bd00       ??0PolygonalBox@Gu@physx@@QAE@ABV012@@Z 1001cd00 f i GuMTD.obj
 0001:0001bf80       ??0SeparatingAxes@Gu@physx@@QAE@ABV012@@Z 1001cf80 f i GuMTD.obj
 0001:0001bf80       ??0SeparatingAxes@Gu@physx@@QAE@$$QAV012@@Z 1001cf80 f i GuMTD.obj
 0001:0001c040       ??0SeparatingAxes@Gu@physx@@QAE@XZ 1001d040 f i GuMTD.obj
 0001:0001c050       ??4MultiplePersistentContactManifold@Gu@physx@@QAEAAV012@$$QAV012@@Z 1001d050 f i GuMTD.obj
 0001:0001c140       ??4MultiplePersistentContactManifold@Gu@physx@@QAEAAV012@ABV012@@Z 1001d140 f i GuMTD.obj
 0001:0001c160       ??4SeparatingAxes@Gu@physx@@QAEAAV012@ABV012@@Z 1001d160 f i GuMTD.obj
 0001:0001c160       ??4SeparatingAxes@Gu@physx@@QAEAAV012@$$QAV012@@Z 1001d160 f i GuMTD.obj
 0001:0001c230       ??_E?$LocalConvex@VTriangleV@Gu@physx@@@Gu@physx@@UAEPAXI@Z 1001d230 f i GuSweepTests.obj
 0001:0001c230       ??_GGjkConvexBase@Gu@physx@@UAEPAXI@Z 1001d230 f i GuMTD.obj
 0001:0001c230       ??_G?$LocalConvex@VCapsuleV@Gu@physx@@@Gu@physx@@UAEPAXI@Z 1001d230 f i GuMTD.obj
 0001:0001c230       ??_EGjkConvexBase@Gu@physx@@UAEPAXI@Z 1001d230 f i GuMTD.obj
 0001:0001c230       ??_G?$LocalConvex@VConvexHullV@Gu@physx@@@Gu@physx@@UAEPAXI@Z 1001d230 f i GuMTD.obj
 0001:0001c230       ??_G?$LocalConvex@VConvexHullNoScaleV@Gu@physx@@@Gu@physx@@UAEPAXI@Z 1001d230 f i GuPCMContactBoxConvex.obj
 0001:0001c230       ??_E?$LocalConvex@VConvexHullNoScaleV@Gu@physx@@@Gu@physx@@UAEPAXI@Z 1001d230 f i GuPCMContactBoxConvex.obj
 0001:0001c230       ??_G?$LocalConvex@VBoxV@Gu@physx@@@Gu@physx@@UAEPAXI@Z 1001d230 f i GuSweepTests.obj
 0001:0001c230       ??_E?$LocalConvex@VConvexHullV@Gu@physx@@@Gu@physx@@UAEPAXI@Z 1001d230 f i GuMTD.obj
 0001:0001c230       ??_G?$LocalConvex@VTriangleV@Gu@physx@@@Gu@physx@@UAEPAXI@Z 1001d230 f i GuSweepTests.obj
 0001:0001c230       ??_E?$LocalConvex@VCapsuleV@Gu@physx@@@Gu@physx@@UAEPAXI@Z 1001d230 f i GuMTD.obj
 0001:0001c230       ??_E?$LocalConvex@VBoxV@Gu@physx@@@Gu@physx@@UAEPAXI@Z 1001d230 f i GuSweepTests.obj
 0001:0001c9c0       ?clearManifold@MultiplePersistentContactManifold@Gu@physx@@QAEXXZ 1001d9c0 f i GuMTD.obj
 0001:0001ff70       ?getAxes@SeparatingAxes@Gu@physx@@QBEPBVPxVec3@3@XZ 10020f70 f i GuMTD.obj
 0001:0001ff80       ?getCenter@?$LocalConvex@VTriangleV@Gu@physx@@@Gu@physx@@UBE?AT__m128@@XZ 10020f80 f i GuSweepTests.obj
 0001:0001ff80       ?getCenter@?$LocalConvex@VConvexHullV@Gu@physx@@@Gu@physx@@UBE?AT__m128@@XZ 10020f80 f i GuMTD.obj
 0001:0001ff80       ?getCenter@?$LocalConvex@VCapsuleV@Gu@physx@@@Gu@physx@@UBE?AT__m128@@XZ 10020f80 f i GuMTD.obj
 0001:0001ff80       ?getCenter@?$LocalConvex@VConvexHullNoScaleV@Gu@physx@@@Gu@physx@@UBE?AT__m128@@XZ 10020f80 f i GuPCMContactBoxConvex.obj
 0001:0001ff80       ?getCenter@?$LocalConvex@VBoxV@Gu@physx@@@Gu@physx@@UBE?AT__m128@@XZ 10020f80 f i GuSweepTests.obj
 0001:0001ff90       ?getEmptyManifold@MultiplePersistentContactManifold@Gu@physx@@QAEPAVSinglePersistentContactManifold@23@XZ 10020f90 f i GuMTD.obj
 0001:0001ffb0       ?getManifold@MultiplePersistentContactManifold@Gu@physx@@QAEPAVSinglePersistentContactManifold@23@I@Z 10020fb0 f i GuMTD.obj
 0001:0001ffd0       ?getSweepMargin@?$RelativeConvex@VCapsuleV@Gu@physx@@@Gu@physx@@UBE?AT__m128@@XZ 10020fd0 f i GuCCDSweepPrimitives.obj
 0001:0001ffd0       ?getSweepMargin@?$LocalConvex@VCapsuleV@Gu@physx@@@Gu@physx@@UBE?AT__m128@@XZ 10020fd0 f i GuMTD.obj
 0001:0001ffe0       ?getSweepMargin@?$LocalConvex@VConvexHullV@Gu@physx@@@Gu@physx@@UBE?AT__m128@@XZ 10020fe0 f i GuMTD.obj
 0001:0001ffe0       ?getSweepMargin@?$RelativeConvex@VConvexHullV@Gu@physx@@@Gu@physx@@UBE?AT__m128@@XZ 10020fe0 f i GuOverlapTests.obj
 0001:0001ffe0       ?getSweepMargin@?$LocalConvex@VConvexHullNoScaleV@Gu@physx@@@Gu@physx@@UBE?AT__m128@@XZ 10020fe0 f i GuPCMContactBoxConvex.obj
 0001:0001ffe0       ?getSweepMargin@?$RelativeConvex@VBoxV@Gu@physx@@@Gu@physx@@UBE?AT__m128@@XZ 10020fe0 f i GuOverlapTests.obj
 0001:0001ffe0       ?getSweepMargin@?$LocalConvex@VBoxV@Gu@physx@@@Gu@physx@@UBE?AT__m128@@XZ 10020fe0 f i GuSweepTests.obj
 0001:0001ffe0       ?getSweepMargin@?$RelativeConvex@VConvexHullNoScaleV@Gu@physx@@@Gu@physx@@UBE?AT__m128@@XZ 10020fe0 f i GuPCMContactConvexConvex.obj
 0001:00020000       ?hillClimbing@ConvexHullV@Gu@physx@@QBEIABT__m128@@@Z 10021000 f i GuMTD.obj
 0001:000202c0       ?initialize@MultiplePersistentContactManifold@Gu@physx@@QAEXXZ 100212c0 f i GuMTD.obj
 0001:00020330       ?invalidate@MultiplePersistentContactManifold@Gu@physx@@QAEIABVPsTransformV@aos@shdfnd@3@ABT__m128@@1@Z 10021330 f i GuMTD.obj
 0001:000203c0       ?invalidate@MultiplePersistentContactManifold@Gu@physx@@QAEIABVPsTransformV@aos@shdfnd@3@ABT__m128@@@Z 100213c0 f i GuMTD.obj
 0001:00020450       ?maxTransformPositionDelta@MultiplePersistentContactManifold@Gu@physx@@QAE?AT__m128@@ABT4@@Z 10021450 f i GuMTD.obj
 0001:00020490       ?maxTransformQuatDelta@MultiplePersistentContactManifold@Gu@physx@@QAE?AT__m128@@ABT4@@Z 10021490 f i GuMTD.obj
 0001:000204d0       ?pointConvexDistance@@YA_NAAVPxVec3@physx@@0AAMABV12@PBVConvexMesh@Gu@2@ABVPxMeshScale@2@ABVPxTransform@2@@Z 100214d0 f   GuMTD.obj
 0001:00021120       ?reduceManifoldContactsInDifferentPatches@MultiplePersistentContactManifold@Gu@physx@@QAEIPAPAUPCMContactPatch@23@IPAVMeshPersistentContact@23@IABT__m128@@@Z 10022120 f i GuMTD.obj
 0001:00021280       ?refineContactPatchConnective@MultiplePersistentContactManifold@Gu@physx@@QAEXPAPAUPCMContactPatch@23@IPAVMeshPersistentContact@23@ABT__m128@@@Z 10022280 f i GuMTD.obj
 0001:00021340       ?refreshManifold@MultiplePersistentContactManifold@Gu@physx@@QAEXABVPsMatTransformV@aos@shdfnd@3@ABT__m128@@1@Z 10022340 f i GuMTD.obj
 0001:00021420       ?reset@SeparatingAxes@Gu@physx@@QAEXXZ 10022420 f i GuMTD.obj
 0001:00021430       ?setRelativeTransform@MultiplePersistentContactManifold@Gu@physx@@QAEXABVPsTransformV@aos@shdfnd@3@@Z 10022430 f i GuMTD.obj
 0001:00021450       ?support@?$LocalConvex@VCapsuleV@Gu@physx@@@Gu@physx@@UBE?AT__m128@@ABT4@@Z 10022450 f i GuMTD.obj
 0001:000214b0       ?support@?$LocalConvex@VCapsuleV@Gu@physx@@@Gu@physx@@UBE?AT__m128@@ABT4@AAH@Z 100224b0 f i GuMTD.obj
 0001:00021530       ?support@?$LocalConvex@VConvexHullV@Gu@physx@@@Gu@physx@@UBE?AT__m128@@ABT4@@Z 10022530 f i GuMTD.obj
 0001:000215e0       ?support@?$LocalConvex@VConvexHullV@Gu@physx@@@Gu@physx@@UBE?AT__m128@@ABT4@AAH@Z 100225e0 f i GuMTD.obj
 0001:00021690       ?supportPoint@?$LocalConvex@VCapsuleV@Gu@physx@@@Gu@physx@@UBE?AT__m128@@H@Z 10022690 f i GuMTD.obj
 0001:000216b0       ?supportPoint@?$LocalConvex@VConvexHullV@Gu@physx@@@Gu@physx@@UBE?AT__m128@@H@Z 100226b0 f i GuMTD.obj
 0001:00021700       ?supportVertexIndex@ConvexHullV@Gu@physx@@QBEIABT__m128@@@Z 10022700 f i GuMTD.obj
 0001:000217b0       ?toBuffer@MultiplePersistentContactManifold@Gu@physx@@QAEXPIAE@Z 100227b0 f i GuMTD.obj
 0001:00021890       ?supportPoint@?$RelativeConvex@VBoxV@Gu@physx@@@Gu@physx@@UBE?AT__m128@@H@Z 10022890 f i GuOverlapTests.obj
 0001:000218f0       ?support@?$RelativeConvex@VBoxV@Gu@physx@@@Gu@physx@@UBE?AT__m128@@ABT4@@Z 100228f0 f i GuOverlapTests.obj
 0001:00021970       ?support@?$RelativeConvex@VBoxV@Gu@physx@@@Gu@physx@@UBE?AT__m128@@ABT4@AAH@Z 10022970 f i GuOverlapTests.obj
 0001:00021a00       ?getCenter@?$RelativeConvex@VCapsuleV@Gu@physx@@@Gu@physx@@UBE?AT__m128@@XZ 10022a00 f i GuCCDSweepPrimitives.obj
 0001:00021a00       ?getCenter@?$RelativeConvex@VConvexHullNoScaleV@Gu@physx@@@Gu@physx@@UBE?AT__m128@@XZ 10022a00 f i GuPCMContactConvexConvex.obj
 0001:00021a00       ?getCenter@?$RelativeConvex@VConvexHullV@Gu@physx@@@Gu@physx@@UBE?AT__m128@@XZ 10022a00 f i GuOverlapTests.obj
 0001:00021a00       ?getCenter@?$RelativeConvex@VTriangleV@Gu@physx@@@Gu@physx@@UBE?AT__m128@@XZ 10022a00 f i GuCCDSweepPrimitives.obj
 0001:00021a00       ?getCenter@?$RelativeConvex@VBoxV@Gu@physx@@@Gu@physx@@UBE?AT__m128@@XZ 10022a00 f i GuOverlapTests.obj
 0001:00021a40       ??_G?$RelativeConvex@VConvexHullV@Gu@physx@@@Gu@physx@@UAEPAXI@Z 10022a40 f i GuOverlapTests.obj
 0001:00021a40       ??_G?$RelativeConvex@VCapsuleV@Gu@physx@@@Gu@physx@@UAEPAXI@Z 10022a40 f i GuCCDSweepPrimitives.obj
 0001:00021a40       ??_G?$RelativeConvex@VBoxV@Gu@physx@@@Gu@physx@@UAEPAXI@Z 10022a40 f i GuOverlapTests.obj
 0001:00021a40       ??_E?$RelativeConvex@VBoxV@Gu@physx@@@Gu@physx@@UAEPAXI@Z 10022a40 f i GuOverlapTests.obj
 0001:00021a40       ??_E?$RelativeConvex@VTriangleV@Gu@physx@@@Gu@physx@@UAEPAXI@Z 10022a40 f i GuCCDSweepPrimitives.obj
 0001:00021a40       ??_E?$RelativeConvex@VConvexHullV@Gu@physx@@@Gu@physx@@UAEPAXI@Z 10022a40 f i GuOverlapTests.obj
 0001:00021a40       ??_G?$RelativeConvex@VConvexHullNoScaleV@Gu@physx@@@Gu@physx@@UAEPAXI@Z 10022a40 f i GuPCMContactConvexConvex.obj
 0001:00021a40       ??_E?$RelativeConvex@VConvexHullNoScaleV@Gu@physx@@@Gu@physx@@UAEPAXI@Z 10022a40 f i GuPCMContactConvexConvex.obj
 0001:00021a40       ??_G?$RelativeConvex@VTriangleV@Gu@physx@@@Gu@physx@@UAEPAXI@Z 10022a40 f i GuCCDSweepPrimitives.obj
 0001:00021a40       ??_E?$RelativeConvex@VCapsuleV@Gu@physx@@@Gu@physx@@UAEPAXI@Z 10022a40 f i GuCCDSweepPrimitives.obj
 0001:00023e00       ?supportPoint@?$RelativeConvex@VConvexHullV@Gu@physx@@@Gu@physx@@UBE?AT__m128@@H@Z 10024e00 f i GuOverlapTests.obj
 0001:00023e80       ?support@?$RelativeConvex@VConvexHullV@Gu@physx@@@Gu@physx@@UBE?AT__m128@@ABT4@@Z 10024e80 f i GuOverlapTests.obj
 0001:00023f80       ?support@?$RelativeConvex@VConvexHullV@Gu@physx@@@Gu@physx@@UBE?AT__m128@@ABT4@AAH@Z 10024f80 f i GuOverlapTests.obj
 0001:000240b0       ??$gjk@U?$RelativeConvex@VBoxV@Gu@physx@@@Gu@physx@@U?$LocalConvex@VConvexHullV@Gu@physx@@@23@@Gu@physx@@YA?AW4GjkStatus@01@ABU?$RelativeConvex@VBoxV@Gu@physx@@@01@ABU?$LocalConvex@VConvexHullV@Gu@physx@@@01@ABT__m128@@2AAT5@333@Z 100250b0 f i GuOverlapTests.obj
 0001:00025080       ??$gjk@U?$RelativeConvex@VConvexHullV@Gu@physx@@@Gu@physx@@U?$LocalConvex@VConvexHullV@Gu@physx@@@23@@Gu@physx@@YA?AW4GjkStatus@01@ABU?$RelativeConvex@VConvexHullV@Gu@physx@@@01@ABU?$LocalConvex@VConvexHullV@Gu@physx@@@01@ABT__m128@@2AAT5@333@Z 10026080 f i GuOverlapTests.obj
 0001:00026170       ?ComputeCubemapNearestOffset@physx@@YAIABVPxVec3@1@I@Z 10027170 f i GuOverlapTests.obj
 0001:000262b0       ?getOverlapFuncTable@Gu@physx@@YAPAY06Q6A_NABVPxGeometry@2@ABVPxTransform@2@01PAUTriggerCache@12@@ZXZ 100272b0 f   GuOverlapTests.obj
 0001:00027ff0       ?registerHeightFields@Gu@physx@@YAXXZ 10028ff0 f   GuOverlapTests.obj
 0001:00028030       ?raycast_box@@YAIABVPxGeometry@physx@@ABVPxTransform@2@ABVPxVec3@2@2MV?$PxFlags@W4Enum@PxHitFlag@physx@@G@2@IPIAUPxRaycastHit@2@@Z 10029030 f   GuRaycastTests.obj
 0001:00028670       ?raycast_sphere@@YAIABVPxGeometry@physx@@ABVPxTransform@2@ABVPxVec3@2@2MV?$PxFlags@W4Enum@PxHitFlag@physx@@G@2@IPIAUPxRaycastHit@2@@Z 10029670 f   GuRaycastTests.obj
 0001:000287e0       ?raycast_capsule@@YAIABVPxGeometry@physx@@ABVPxTransform@2@ABVPxVec3@2@2MV?$PxFlags@W4Enum@PxHitFlag@physx@@G@2@IPIAUPxRaycastHit@2@@Z 100297e0 f   GuRaycastTests.obj
 0001:00028ce0       ?raycast_plane@@YAIABVPxGeometry@physx@@ABVPxTransform@2@ABVPxVec3@2@2MV?$PxFlags@W4Enum@PxHitFlag@physx@@G@2@IPIAUPxRaycastHit@2@@Z 10029ce0 f   GuRaycastTests.obj
 0001:00028e10       ?raycast_convexMesh@@YAIABVPxGeometry@physx@@ABVPxTransform@2@ABVPxVec3@2@2MV?$PxFlags@W4Enum@PxHitFlag@physx@@G@2@IPIAUPxRaycastHit@2@@Z 10029e10 f   GuRaycastTests.obj
 0001:00029ae0       ?raycast_triangleMesh@@YAIABVPxGeometry@physx@@ABVPxTransform@2@ABVPxVec3@2@2MV?$PxFlags@W4Enum@PxHitFlag@physx@@G@2@IPIAUPxRaycastHit@2@@Z 1002aae0 f   GuRaycastTests.obj
 0001:0002b260       ??Dphysx@@YA?AVMatrix34@Cm@0@ABVPxMeshScale@0@ABVPxTransform@0@@Z 1002c260 f i GuRaycastTests.obj
 0001:0002be40       ?getRaycastFuncTable@Gu@physx@@YAAAY06Q6AIABVPxGeometry@2@ABVPxTransform@2@ABVPxVec3@2@2MV?$PxFlags@W4Enum@PxHitFlag@physx@@G@2@IPIAUPxRaycastHit@2@@ZXZ 1002ce40 f   GuRaycastTests.obj
 0001:0002be50       ?raycast_heightField@@YAIABVPxGeometry@physx@@ABVPxTransform@2@ABVPxVec3@2@2MV?$PxFlags@W4Enum@PxHitFlag@physx@@G@2@IPIAUPxRaycastHit@2@@Z 1002ce50 f   GuRaycastTests.obj
 0001:0002c660       ?registerHeightFields_Raycasts@@YAXXZ 1002d660 f   GuRaycastTests.obj
 0001:0002c670       ?ReadHeader@Gu@physx@@YA_NEEEEAAIAA_NAAVPxInputStream@2@@Z 1002d670 f   GuSerialize.obj
 0001:0002c770       ?ReadIndices@Gu@physx@@YAXGIPAGAAVPxInputStream@2@_N@Z 1002d770 f   GuSerialize.obj
 0001:0002c880       ?StoreIndices@Gu@physx@@YAXGIPBGAAVPxOutputStream@2@_N@Z 1002d880 f   GuSerialize.obj
 0001:0002c910       ?StoreIndices@Gu@physx@@YAXIIPBIAAVPxOutputStream@2@_N@Z 1002d910 f   GuSerialize.obj
 0001:0002ca10       ?WriteHeader@Gu@physx@@YA_NEEEEI_NAAVPxOutputStream@2@@Z 1002da10 f   GuSerialize.obj
 0001:0002cb00       ?computeMaxIndex@physx@@YAGPBGI@Z 1002db00 f   GuSerialize.obj
 0001:0002cb40       ?computeMaxIndex@physx@@YAIPBII@Z 1002db40 f   GuSerialize.obj
 0001:0002cb70       ?readChunk@physx@@YAXAAC000AAVPxInputStream@1@@Z 1002db70 f   GuSerialize.obj
 0001:0002cbb0       ?readDword@physx@@YAI_NAAVPxInputStream@1@@Z 1002dbb0 f   GuSerialize.obj
 0001:0002cbf0       ?readFloat@physx@@YAM_NAAVPxInputStream@1@@Z 1002dbf0 f   GuSerialize.obj
 0001:0002cc30       ?readFloatBuffer@physx@@YA_NPAMI_NAAVPxInputStream@1@@Z 1002dc30 f   GuSerialize.obj
 0001:0002cc90       ?readHeader@physx@@YA_NCCCCAAIAA_NAAVPxInputStream@1@@Z 1002dc90 f   GuSerialize.obj
 0001:0002cd80       ?readIndices@physx@@YAXIIPAIAAVPxInputStream@1@_N@Z 1002dd80 f   GuSerialize.obj
 0001:0002ce40       ?readWord@physx@@YAG_NAAVPxInputStream@1@@Z 1002de40 f   GuSerialize.obj
 0001:0002ce70       ?readWordBuffer@physx@@YAXPAGI_NAAVPxInputStream@1@@Z 1002de70 f   GuSerialize.obj
 0001:0002ceb0       ?storeIndices@physx@@YAXIIPBIAAVPxOutputStream@1@_N@Z 1002deb0 f   GuSerialize.obj
 0001:0002cf80       ?writeFloat@physx@@YAXM_NAAVPxOutputStream@1@@Z 1002df80 f   GuSerialize.obj
 0001:0002cf80       ?writeDword@physx@@YAXI_NAAVPxOutputStream@1@@Z 1002df80 f   GuSerialize.obj
 0001:0002cfc0       ?writeFloatBuffer@physx@@YAXPBMI_NAAVPxOutputStream@1@@Z 1002dfc0 f   GuSerialize.obj
 0001:0002d040       ?writeHeader@physx@@YA_NCCCCI_NAAVPxOutputStream@1@@Z 1002e040 f   GuSerialize.obj
 0001:0002d130       ?writeWord@physx@@YAXG_NAAVPxOutputStream@1@@Z 1002e130 f   GuSerialize.obj
 0001:0002d160       ?writeWordBuffer@physx@@YAXPBGI_NAAVPxOutputStream@1@@Z 1002e160 f   GuSerialize.obj
 0001:0002d1d0       ??0FastVertex2ShapeScaling@Cm@physx@@QAE@XZ 1002e1d0 f i GuSweepMTD.obj
 0001:0002d260       ??Dphysx@@YA?AVMatrix34@Cm@0@ABVPxTransform@0@ABVPxMeshScale@0@@Z 1002e260 f i GuSweepMTD.obj
 0001:0002d870       ??_G?$MeshHitCallback@UPxRaycastHit@physx@@@Gu@physx@@UAEPAXI@Z 1002e870 f i GuSweepMTD.obj
 0001:0002d870       ??_E?$MeshHitCallback@UPxRaycastHit@physx@@@Gu@physx@@UAEPAXI@Z 1002e870 f i GuSweepMTD.obj
 0001:0002d8a0       ??_GMeshMTDGenerationCallback@@UAEPAXI@Z 1002e8a0 f i GuSweepMTD.obj
 0001:0002d8a0       ??_EMeshMTDGenerationCallback@@UAEPAXI@Z 1002e8a0 f i GuSweepMTD.obj
 0001:0002d8d0       ??_EMidPhaseQueryLocalReport@@UAEPAXI@Z 1002e8d0 f i GuSweepMTD.obj
 0001:0002d8d0       ??_GMidPhaseQueryLocalReport@@UAEPAXI@Z 1002e8d0 f i GuSweepMTD.obj
 0001:0002d900       ?allocate@?$ReflectionAllocator@I@shdfnd@physx@@QAEPAXIPBDH@Z 1002e900 f i GuSweepMTD.obj
 0001:0002dce0       ?computeBox_HeightFieldMTD@Gu@physx@@YA_NABVPxHeightFieldGeometry@2@ABVPxTransform@2@ABVBox@12@1M_NIAAUPxSweepHit@2@@Z 1002ece0 f   GuSweepMTD.obj
 0001:0002ec90       ?computeBox_TriangleMeshMTD@Gu@physx@@YA_NABVPxTriangleMeshGeometry@2@ABVPxTransform@2@ABVBox@12@1M_NAAUPxSweepHit@2@@Z 1002fc90 f   GuSweepMTD.obj
 0001:0002f970       ?computeCapsule_CapsuleMTD@Gu@physx@@YA_NABVCapsule@12@0AAUPxSweepHit@2@@Z 10030970 f   GuSweepMTD.obj
 0001:0002fb70       ?computeCapsule_HeightFieldMTD@Gu@physx@@YA_NABVPxHeightFieldGeometry@2@ABVPxTransform@2@AAVCapsuleV@12@M_NIAAUPxSweepHit@2@@Z 10030b70 f   GuSweepMTD.obj
 0001:00030200       ?computeCapsule_TriangleMeshMTD@Gu@physx@@YA_NABVPxTriangleMeshGeometry@2@ABVPxTransform@2@AAVCapsuleV@12@M_NAAUPxSweepHit@2@@Z 10031200 f   GuSweepMTD.obj
 0001:00030920       ?computeConvex_HeightFieldMTD@Gu@physx@@YA_NABVPxHeightFieldGeometry@2@ABVPxTransform@2@ABVPxConvexMeshGeometry@2@1M_NIAAUPxSweepHit@2@@Z 10031920 f   GuSweepMTD.obj
 0001:00031d50       ?computeConvex_TriangleMeshMTD@Gu@physx@@YA_NABVPxTriangleMeshGeometry@2@ABVPxTransform@2@ABVPxConvexMeshGeometry@2@1M_NAAUPxSweepHit@2@@Z 10032d50 f   GuSweepMTD.obj
 0001:00033100       ?computePlane_BoxMTD@Gu@physx@@YA_NABVPxPlane@2@ABVBox@12@AAUPxSweepHit@2@@Z 10034100 f   GuSweepMTD.obj
 0001:00033340       ?computePlane_CapsuleMTD@Gu@physx@@YA_NABVPxPlane@2@ABVCapsule@12@AAUPxSweepHit@2@@Z 10034340 f   GuSweepMTD.obj
 0001:00033430       ?computePlane_ConvexMTD@Gu@physx@@YA_NABVPxPlane@2@ABVPxConvexMeshGeometry@2@ABVPxTransform@2@AAUPxSweepHit@2@@Z 10034430 f   GuSweepMTD.obj
 0001:00033890       ?computeSphere_CapsuleMTD@Gu@physx@@YA_NABVSphere@12@ABVCapsule@12@AAUPxSweepHit@2@@Z 10034890 f   GuSweepMTD.obj
 0001:00033a20       ?computeSphere_SphereMTD@Gu@physx@@YA_NABVSphere@12@0AAUPxSweepHit@2@@Z 10034a20 f   GuSweepMTD.obj
 0001:00033b00       ?getInverse@PxMat33@physx@@QBE?BV12@XZ 10034b00 f i GuSweepMTD.obj
 0001:00033d50       ?growAndPushBack@?$Array@IV?$ReflectionAllocator@I@shdfnd@physx@@@shdfnd@physx@@IAEAAIABI@Z 10034d50 f i GuSweepMTD.obj
 0001:00033df0       ?init@FastVertex2ShapeScaling@Cm@physx@@QAEXABVPxVec3@3@ABVPxQuat@3@@Z 10034df0 f i GuSweepMTD.obj
 0001:000341a0       ?onEvent@MidPhaseQueryLocalReport@@UAE_NIPAI@Z 100351a0 f i GuSweepMTD.obj
 0001:000341f0       ?processHit@MeshMTDGenerationCallback@@UAE_NABUPxRaycastHit@physx@@ABVPxVec3@3@11AAMPBI@Z 100351f0 f i GuSweepMTD.obj
 0001:00034230       ?recreate@?$Array@IV?$ReflectionAllocator@I@shdfnd@physx@@@shdfnd@physx@@IAEXI@Z 10035230 f i GuSweepMTD.obj
 0001:000342b0       ??$gjkPenetration@U?$LocalConvex@VCapsuleV@Gu@physx@@@Gu@physx@@U?$LocalConvex@VConvexHullV@Gu@physx@@@23@@Gu@physx@@YA?AW4GjkStatus@01@ABU?$LocalConvex@VCapsuleV@Gu@physx@@@01@ABU?$LocalConvex@VConvexHullV@Gu@physx@@@01@ABT__m128@@2_NPIAE4AAEAAUGjkOutput@01@@Z 100352b0 f i GuSweepSharedTests.obj
 0001:00035bb0       ??$gjkPenetration@U?$RelativeConvex@VBoxV@Gu@physx@@@Gu@physx@@U?$LocalConvex@VConvexHullV@Gu@physx@@@23@@Gu@physx@@YA?AW4GjkStatus@01@ABU?$RelativeConvex@VBoxV@Gu@physx@@@01@ABU?$LocalConvex@VConvexHullV@Gu@physx@@@01@ABT__m128@@2_NPIAE4AAEAAUGjkOutput@01@@Z 10036bb0 f i GuSweepSharedTests.obj
 0001:00037510       ??$gjkPenetration@U?$RelativeConvex@VConvexHullV@Gu@physx@@@Gu@physx@@U?$LocalConvex@VConvexHullV@Gu@physx@@@23@@Gu@physx@@YA?AW4GjkStatus@01@ABU?$RelativeConvex@VConvexHullV@Gu@physx@@@01@ABU?$LocalConvex@VConvexHullV@Gu@physx@@@01@ABT__m128@@2_NPIAE4AAEAAUGjkOutput@01@@Z 10038510 f i GuSweepSharedTests.obj
 0001:00038ed0       ??$gjkRaycast@U?$LocalConvex@VCapsuleV@Gu@physx@@@Gu@physx@@U?$LocalConvex@VConvexHullV@Gu@physx@@@23@@Gu@physx@@YA_NABU?$LocalConvex@VCapsuleV@Gu@physx@@@01@ABU?$LocalConvex@VConvexHullV@Gu@physx@@@01@ABT__m128@@222AAT4@33M@Z 10039ed0 f i GuSweepSharedTests.obj
 0001:00039da0       ??$gjkRaycast@U?$RelativeConvex@VBoxV@Gu@physx@@@Gu@physx@@U?$LocalConvex@VConvexHullV@Gu@physx@@@23@@Gu@physx@@YA_NABU?$RelativeConvex@VBoxV@Gu@physx@@@01@ABU?$LocalConvex@VConvexHullV@Gu@physx@@@01@ABT__m128@@222AAT4@33M@Z 1003ada0 f i GuSweepSharedTests.obj
 0001:0003ace0       ??$gjkRaycast@U?$RelativeConvex@VConvexHullV@Gu@physx@@@Gu@physx@@U?$LocalConvex@VConvexHullV@Gu@physx@@@23@@Gu@physx@@YA_NABU?$RelativeConvex@VConvexHullV@Gu@physx@@@01@ABU?$LocalConvex@VConvexHullV@Gu@physx@@@01@ABT__m128@@222AAT4@33M@Z 1003bce0 f i GuSweepSharedTests.obj
 0001:0003bd10       ??$gjkRaycastPenetration@U?$LocalConvex@VCapsuleV@Gu@physx@@@Gu@physx@@U?$LocalConvex@VConvexHullV@Gu@physx@@@23@@Gu@physx@@YA_NABU?$LocalConvex@VCapsuleV@Gu@physx@@@01@ABU?$LocalConvex@VConvexHullV@Gu@physx@@@01@ABT__m128@@222AAT4@33M_N@Z 1003cd10 f i GuSweepSharedTests.obj
 0001:0003bf10       ??$gjkRaycastPenetration@U?$RelativeConvex@VBoxV@Gu@physx@@@Gu@physx@@U?$LocalConvex@VConvexHullV@Gu@physx@@@23@@Gu@physx@@YA_NABU?$RelativeConvex@VBoxV@Gu@physx@@@01@ABU?$LocalConvex@VConvexHullV@Gu@physx@@@01@ABT__m128@@222AAT4@33M_N@Z 1003cf10 f i GuSweepSharedTests.obj
 0001:0003c170       ??$gjkRaycastPenetration@U?$RelativeConvex@VConvexHullV@Gu@physx@@@Gu@physx@@U?$LocalConvex@VConvexHullV@Gu@physx@@@23@@Gu@physx@@YA_NABU?$RelativeConvex@VConvexHullV@Gu@physx@@@01@ABU?$LocalConvex@VConvexHullV@Gu@physx@@@01@ABT__m128@@222AAT4@33M_N@Z 1003d170 f i GuSweepSharedTests.obj
 0001:0003c3d0       ??0?$RelativeConvex@VConvexHullV@Gu@physx@@@Gu@physx@@QAE@ABVConvexHullV@12@ABVPsMatTransformV@aos@shdfnd@2@@Z 1003d3d0 f i GuSweepSharedTests.obj
 0001:0003c880       ?sweepBox_ConvexGeom@@YA_NABVPxGeometry@physx@@ABVPxTransform@2@ABVPxBoxGeometry@2@1ABVBox@Gu@2@ABVPxVec3@2@MAAUPxSweepHit@2@V?$PxFlags@W4Enum@PxHitFlag@physx@@G@2@M@Z 1003d880 f   GuSweepSharedTests.obj
 0001:0003d620       ?sweepBox_PlaneGeom@@YA_NABVPxGeometry@physx@@ABVPxTransform@2@ABVPxBoxGeometry@2@1ABVBox@Gu@2@ABVPxVec3@2@MAAUPxSweepHit@2@V?$PxFlags@W4Enum@PxHitFlag@physx@@G@2@M@Z 1003e620 f   GuSweepSharedTests.obj
 0001:0003d9e0       ?sweepCapsuleTriangles@Gu@physx@@YA_NIPBVPxTriangle@2@_NABVPxCapsuleGeometry@2@ABVPxTransform@2@ABVPxVec3@2@MAAUPxSweepHit@2@PBIMV?$PxFlags@W4Enum@PxHitFlag@physx@@G@2@@Z 1003e9e0 f   GuSweepSharedTests.obj
 0001:0003db70       ?sweepCapsule_CapsuleGeom@@YA_NABVPxGeometry@physx@@ABVPxTransform@2@ABVPxCapsuleGeometry@2@1ABVCapsule@Gu@2@ABVPxVec3@2@MAAUPxSweepHit@2@V?$PxFlags@W4Enum@PxHitFlag@physx@@G@2@M@Z 1003eb70 f   GuSweepSharedTests.obj
 0001:0003dd20       ?sweepCapsule_ConvexGeom@@YA_NABVPxGeometry@physx@@ABVPxTransform@2@ABVPxCapsuleGeometry@2@1ABVCapsule@Gu@2@ABVPxVec3@2@MAAUPxSweepHit@2@V?$PxFlags@W4Enum@PxHitFlag@physx@@G@2@M@Z 1003ed20 f   GuSweepSharedTests.obj
 0001:0003ea70       ?sweepCapsule_PlaneGeom@@YA_NABVPxGeometry@physx@@ABVPxTransform@2@ABVPxCapsuleGeometry@2@1ABVCapsule@Gu@2@ABVPxVec3@2@MAAUPxSweepHit@2@V?$PxFlags@W4Enum@PxHitFlag@physx@@G@2@M@Z 1003fa70 f   GuSweepSharedTests.obj
 0001:0003ed30       ?sweepCapsule_SphereGeom@@YA_NABVPxGeometry@physx@@ABVPxTransform@2@ABVPxCapsuleGeometry@2@1ABVCapsule@Gu@2@ABVPxVec3@2@MAAUPxSweepHit@2@V?$PxFlags@W4Enum@PxHitFlag@physx@@G@2@M@Z 1003fd30 f   GuSweepSharedTests.obj
 0001:0003eec0       ?sweepConvex_BoxGeom@@YA_NABVPxGeometry@physx@@ABVPxTransform@2@ABVPxConvexMeshGeometry@2@1ABVPxVec3@2@MAAUPxSweepHit@2@V?$PxFlags@W4Enum@PxHitFlag@physx@@G@2@M@Z 1003fec0 f   GuSweepSharedTests.obj
 0001:0003f0a0       ?sweepConvex_CapsuleGeom@@YA_NABVPxGeometry@physx@@ABVPxTransform@2@ABVPxConvexMeshGeometry@2@1ABVPxVec3@2@MAAUPxSweepHit@2@V?$PxFlags@W4Enum@PxHitFlag@physx@@G@2@M@Z 100400a0 f   GuSweepSharedTests.obj
 0001:0003f290       ?sweepConvex_ConvexGeom@@YA_NABVPxGeometry@physx@@ABVPxTransform@2@ABVPxConvexMeshGeometry@2@1ABVPxVec3@2@MAAUPxSweepHit@2@V?$PxFlags@W4Enum@PxHitFlag@physx@@G@2@M@Z 10040290 f   GuSweepSharedTests.obj
 0001:000402e0       ?sweepConvex_PlaneGeom@@YA_NABVPxGeometry@physx@@ABVPxTransform@2@ABVPxConvexMeshGeometry@2@1ABVPxVec3@2@MAAUPxSweepHit@2@V?$PxFlags@W4Enum@PxHitFlag@physx@@G@2@M@Z 100412e0 f   GuSweepSharedTests.obj
 0001:00040730       ?sweepConvex_SphereGeom@@YA_NABVPxGeometry@physx@@ABVPxTransform@2@ABVPxConvexMeshGeometry@2@1ABVPxVec3@2@MAAUPxSweepHit@2@V?$PxFlags@W4Enum@PxHitFlag@physx@@G@2@M@Z 10041730 f   GuSweepSharedTests.obj
 0001:000412f0       ?sweepCapsule_BoxGeom@@YA_NABVPxGeometry@physx@@ABVPxTransform@2@ABVPxCapsuleGeometry@2@1ABVCapsule@Gu@2@ABVPxVec3@2@MAAUPxSweepHit@2@V?$PxFlags@W4Enum@PxHitFlag@physx@@G@2@M@Z 100422f0 f   GuSweepTests.obj
 0001:00041b80       ?sweepBox_SphereGeom@@YA_NABVPxGeometry@physx@@ABVPxTransform@2@ABVPxBoxGeometry@2@1ABVBox@Gu@2@ABVPxVec3@2@MAAUPxSweepHit@2@V?$PxFlags@W4Enum@PxHitFlag@physx@@G@2@M@Z 10042b80 f   GuSweepTests.obj
 0001:00042230       ?sweepBox_CapsuleGeom@@YA_NABVPxGeometry@physx@@ABVPxTransform@2@ABVPxBoxGeometry@2@1ABVBox@Gu@2@ABVPxVec3@2@MAAUPxSweepHit@2@V?$PxFlags@W4Enum@PxHitFlag@physx@@G@2@M@Z 10043230 f   GuSweepTests.obj
 0001:00042a60       ?sweepBox_BoxGeom@@YA_NABVPxGeometry@physx@@ABVPxTransform@2@ABVPxBoxGeometry@2@1ABVBox@Gu@2@ABVPxVec3@2@MAAUPxSweepHit@2@V?$PxFlags@W4Enum@PxHitFlag@physx@@G@2@M@Z 10043a60 f   GuSweepTests.obj
 0001:000433e0       ??$gjkPenetration@U?$LocalConvex@VCapsuleV@Gu@physx@@@Gu@physx@@U?$LocalConvex@VBoxV@Gu@physx@@@23@@Gu@physx@@YA?AW4GjkStatus@01@ABU?$LocalConvex@VCapsuleV@Gu@physx@@@01@ABU?$LocalConvex@VBoxV@Gu@physx@@@01@ABT__m128@@2_NPIAE4AAEAAUGjkOutput@01@@Z 100443e0 f i GuSweepTests.obj
 0001:00044c60       ??$gjkPenetration@U?$RelativeConvex@VBoxV@Gu@physx@@@Gu@physx@@U?$LocalConvex@VBoxV@Gu@physx@@@23@@Gu@physx@@YA?AW4GjkStatus@01@ABU?$RelativeConvex@VBoxV@Gu@physx@@@01@ABU?$LocalConvex@VBoxV@Gu@physx@@@01@ABT__m128@@2_NPIAE4AAEAAUGjkOutput@01@@Z 10045c60 f i GuSweepTests.obj
 0001:00046520       ??$gjkRaycast@U?$LocalConvex@VCapsuleV@Gu@physx@@@Gu@physx@@U?$LocalConvex@VBoxV@Gu@physx@@@23@@Gu@physx@@YA_NABU?$LocalConvex@VCapsuleV@Gu@physx@@@01@ABU?$LocalConvex@VBoxV@Gu@physx@@@01@ABT__m128@@222AAT4@33M@Z 10047520 f i GuSweepTests.obj
 0001:00047290       ??$gjkRaycast@U?$LocalConvex@VTriangleV@Gu@physx@@@Gu@physx@@U?$LocalConvex@VBoxV@Gu@physx@@@23@@Gu@physx@@YA_NABU?$LocalConvex@VTriangleV@Gu@physx@@@01@ABU?$LocalConvex@VBoxV@Gu@physx@@@01@ABT__m128@@222AAT4@33M@Z 10048290 f i GuSweepTests.obj
 0001:00048090       ??$gjkRaycast@U?$RelativeConvex@VBoxV@Gu@physx@@@Gu@physx@@U?$LocalConvex@VBoxV@Gu@physx@@@23@@Gu@physx@@YA_NABU?$RelativeConvex@VBoxV@Gu@physx@@@01@ABU?$LocalConvex@VBoxV@Gu@physx@@@01@ABT__m128@@222AAT4@33M@Z 10049090 f i GuSweepTests.obj
 0001:00048e70       ??$gjkRaycastPenetration@U?$LocalConvex@VCapsuleV@Gu@physx@@@Gu@physx@@U?$LocalConvex@VBoxV@Gu@physx@@@23@@Gu@physx@@YA_NABU?$LocalConvex@VCapsuleV@Gu@physx@@@01@ABU?$LocalConvex@VBoxV@Gu@physx@@@01@ABT__m128@@222AAT4@33M_N@Z 10049e70 f i GuSweepTests.obj
 0001:00049070       ??$gjkRaycastPenetration@U?$RelativeConvex@VBoxV@Gu@physx@@@Gu@physx@@U?$LocalConvex@VBoxV@Gu@physx@@@23@@Gu@physx@@YA_NABU?$RelativeConvex@VBoxV@Gu@physx@@@01@ABU?$LocalConvex@VBoxV@Gu@physx@@@01@ABT__m128@@222AAT4@33M_N@Z 1004a070 f i GuSweepTests.obj
 0001:000492d0       ?getSweepFuncTable@Gu@physx@@YAABUGeomSweepFuncs@12@XZ 1004a2d0 f   GuSweepTests.obj
 0001:000492e0       ?getSweepMargin@?$RelativeConvex@VTriangleV@Gu@physx@@@Gu@physx@@UBE?AT__m128@@XZ 1004a2e0 f i GuCCDSweepPrimitives.obj
 0001:000492e0       ?getSweepMargin@?$LocalConvex@VTriangleV@Gu@physx@@@Gu@physx@@UBE?AT__m128@@XZ 1004a2e0 f i GuSweepTests.obj
 0001:00049300       ?registerHeightFields_Sweeps@@YAXXZ 1004a300 f   GuSweepTests.obj
 0001:00049340       ?support@?$LocalConvex@VBoxV@Gu@physx@@@Gu@physx@@UBE?AT__m128@@ABT4@@Z 1004a340 f i GuSweepTests.obj
 0001:00049370       ?support@?$LocalConvex@VBoxV@Gu@physx@@@Gu@physx@@UBE?AT__m128@@ABT4@AAH@Z 1004a370 f i GuSweepTests.obj
 0001:000493b0       ?support@?$LocalConvex@VTriangleV@Gu@physx@@@Gu@physx@@UBE?AT__m128@@ABT4@@Z 1004a3b0 f i GuSweepTests.obj
 0001:00049450       ?support@?$LocalConvex@VTriangleV@Gu@physx@@@Gu@physx@@UBE?AT__m128@@ABT4@AAH@Z 1004a450 f i GuSweepTests.obj
 0001:00049540       ?supportPoint@?$LocalConvex@VBoxV@Gu@physx@@@Gu@physx@@UBE?AT__m128@@H@Z 1004a540 f i GuSweepTests.obj
 0001:00049580       ?supportPoint@?$LocalConvex@VTriangleV@Gu@physx@@@Gu@physx@@UBE?AT__m128@@H@Z 1004a580 f i GuSweepTests.obj
 0001:000495a0       ?sweepBoxTriangles@Gu@physx@@YA_NIPBVPxTriangle@2@_NABVPxBoxGeometry@2@ABVPxTransform@2@ABVPxVec3@2@MAAUPxSweepHit@2@PBIMV?$PxFlags@W4Enum@PxHitFlag@physx@@G@2@@Z 1004a5a0 f   GuSweepTests.obj
 0001:0004a0a0       ??$copy@V?$ReflectionAllocator@USlab@NodeAllocator@Gu@physx@@@shdfnd@physx@@@?$Array@USlab@NodeAllocator@Gu@physx@@V?$ReflectionAllocator@USlab@NodeAllocator@Gu@physx@@@shdfnd@4@@shdfnd@physx@@IAEXABV012@@Z 1004b0a0 f i GuAABBTreeBuild.obj
 0001:0004a110       ??4AABBTreeBuildNode@Gu@physx@@QAEAAV012@ABV012@@Z 1004b110 f i GuAABBTreeBuild.obj
 0001:0004a110       ??0AABBTreeBuildNode@Gu@physx@@QAE@ABV012@@Z 1004b110 f i GuAABBTreeBuild.obj
 0001:0004a110       ??0PxMat33@physx@@QAE@ABV01@@Z 1004b110 f i GuMidphaseBV4.obj
 0001:0004a150       ??0AABBTreeBuildParams@Gu@physx@@QAE@IIPBVPxBounds3@2@@Z 1004b150 f i GuAABBTreeBuild.obj
 0001:0004a170       ??0BuildStats@Gu@physx@@QAE@XZ 1004b170 f i GuAABBTreeBuild.obj
 0001:0004a180       ??0NodeAllocator@Gu@physx@@QAE@ABV012@@Z 1004b180 f i GuAABBTreeBuild.obj
 0001:0004a1b0       ??0NodeAllocator@Gu@physx@@QAE@XZ 1004b1b0 f   GuAABBTreeBuild.obj
 0001:0004a1e0       ??1AABBTreeBuildParams@Gu@physx@@QAE@XZ 1004b1e0 f i GuAABBTreeBuild.obj
 0001:0004a1e0       ?reset@AABBTreeBuildParams@Gu@physx@@QAEXXZ 1004b1e0 f i GuAABBTreeBuild.obj
 0001:0004a220       ??1NodeAllocator@Gu@physx@@QAE@XZ 1004b220 f   GuAABBTreeBuild.obj
 0001:0004a250       ??4AABBTreeBuildParams@Gu@physx@@QAEAAV012@ABV012@@Z 1004b250 f i GuAABBTreeBuild.obj
 0001:0004a260       ??4BuildStats@Gu@physx@@QAEAAU012@$$QAU012@@Z 1004b260 f i GuAABBTreeBuild.obj
 0001:0004a280       ??4NodeAllocator@Gu@physx@@QAEAAV012@ABV012@@Z 1004b280 f i GuAABBTreeBuild.obj
 0001:0004a310       ??_FAABBTreeBuildParams@Gu@physx@@QAEXXZ 1004b310 f i GuAABBTreeBuild.obj
 0001:0004a330       ?_buildHierarchy@AABBTreeBuildNode@Gu@physx@@QAEXAAVAABBTreeBuildParams@23@AAUBuildStats@23@AAVNodeAllocator@23@QAI@Z 1004b330 f   GuAABBTreeBuild.obj
 0001:0004a390       ?allocate@?$Array@USlab@NodeAllocator@Gu@physx@@V?$ReflectionAllocator@USlab@NodeAllocator@Gu@physx@@@shdfnd@4@@shdfnd@physx@@IAEPAUSlab@NodeAllocator@Gu@3@I@Z 1004b390 f i GuAABBTreeBuild.obj
 0001:0004a400       ?buildAABBTree@Gu@physx@@YA_NAAVAABBTreeBuildParams@12@AAVNodeAllocator@12@AAUBuildStats@12@AAPAI@Z 1004b400 f   GuAABBTreeBuild.obj
 0001:0004a480       ?getBiNode@NodeAllocator@Gu@physx@@QAEPAVAABBTreeBuildNode@23@XZ 1004b480 f   GuAABBTreeBuild.obj
 0001:0004a590       ?getNbPrimitives@AABBTreeBuildNode@Gu@physx@@QBEIXZ 1004b590 f i GuAABBTreeBuild.obj
 0001:0004a590       ?getNbRuntimePrimitives@AABBTreeBuildNode@Gu@physx@@QBEIXZ 1004b590 f i GuAABBTreeBuild.obj
 0001:0004a5a0       ?getNeg@AABBTreeBuildNode@Gu@physx@@QBEPBV123@XZ 1004b5a0 f i GuAABBTreeBuild.obj
 0001:0004a5b0       ?getPrimitives@AABBTreeBuildNode@Gu@physx@@QBEPBIPBI@Z 1004b5b0 f i GuAABBTreeBuild.obj
 0001:0004a5b0       ?getPrimitives@AABBTreeBuildNode@Gu@physx@@QAEPAIPAI@Z 1004b5b0 f i GuAABBTreeBuild.obj
 0001:0004a5c0       ?growAndPushBack@?$Array@USlab@NodeAllocator@Gu@physx@@V?$ReflectionAllocator@USlab@NodeAllocator@Gu@physx@@@shdfnd@4@@shdfnd@physx@@IAEAAUSlab@NodeAllocator@Gu@3@ABU4563@@Z 1004b5c0 f i GuAABBTreeBuild.obj
 0001:0004a680       ?increaseCount@BuildStats@Gu@physx@@QAEXI@Z 1004b680 f i GuAABBTreeBuild.obj
 0001:0004a690       ?init@NodeAllocator@Gu@physx@@QAEXII@Z 1004b690 f   GuAABBTreeBuild.obj
 0001:0004a7b0       ?initAABBTreeBuild@Gu@physx@@YA_NAAVAABBTreeBuildParams@12@AAVNodeAllocator@12@AAUBuildStats@12@AAPAI@Z 1004b7b0 f   GuAABBTreeBuild.obj
 0001:0004a970       ?isLeaf@AABBTreeBuildNode@Gu@physx@@QBE_NXZ 1004b970 f i GuAABBTreeBuild.obj
 0001:0004a980       ?recreate@?$Array@USlab@NodeAllocator@Gu@physx@@V?$ReflectionAllocator@USlab@NodeAllocator@Gu@physx@@@shdfnd@4@@shdfnd@physx@@IAEXI@Z 1004b980 f i GuAABBTreeBuild.obj
 0001:0004a9f0       ?release@NodeAllocator@Gu@physx@@QAEXXZ 1004b9f0 f   GuAABBTreeBuild.obj
 0001:0004aa70       ?reset@BuildStats@Gu@physx@@QAEXXZ 1004ba70 f i GuAABBTreeBuild.obj
 0001:0004aa80       ?resize@?$Array@USlab@NodeAllocator@Gu@physx@@V?$ReflectionAllocator@USlab@NodeAllocator@Gu@physx@@@shdfnd@4@@shdfnd@physx@@QAEXIABUSlab@NodeAllocator@Gu@3@@Z 1004ba80 f i GuAABBTreeBuild.obj
 0001:0004aae0       ?setCount@BuildStats@Gu@physx@@QAEXI@Z 1004bae0 f i GuAABBTreeBuild.obj
 0001:0004aaf0       ?setNbRunTimePrimitives@AABBTreeBuildNode@Gu@physx@@QAEXI@Z 1004baf0 f i GuAABBTreeBuild.obj
 0001:0004ab00       ?subdivide@AABBTreeBuildNode@Gu@physx@@QAEXABVAABBTreeBuildParams@23@AAUBuildStats@23@AAVNodeAllocator@23@QAI@Z 1004bb00 f   GuAABBTreeBuild.obj
 0001:0004ad20       ??0BVHStructure@Gu@physx@@QAE@PAVGuMeshFactory@2@@Z 1004bd20 f   GuBVHStructure.obj
 0001:0004ad80       ??0BVHStructure@Gu@physx@@QAE@PAVGuMeshFactory@2@AAUBVHStructureData@12@@Z 1004bd80 f   GuBVHStructure.obj
 0001:0004ade0       ??R?$AABBTreeOverlap@UAABBAABBTest@Gu@physx@@UBVHTree@23@UBVHNode@23@IUBVHCallback@23@@Gu@physx@@QAE_NPBIPBVPxBounds3@2@ABUBVHTree@12@ABUAABBAABBTest@12@AAUBVHCallback@12@@Z 1004bde0 f i GuBVHStructure.obj
 0001:0004b0b0       ??R?$AABBTreeRaycast@$00UBVHTree@Gu@physx@@UBVHNode@23@IUBVHCallback@23@@Gu@physx@@QAE_NPBIPBVPxBounds3@2@ABUBVHTree@12@ABVPxVec3@2@3AAM3AAUBVHCallback@12@@Z 1004c0b0 f i GuBVHStructure.obj
 0001:0004b7a0       ??R?$AABBTreeRaycast@$0A@UBVHTree@Gu@physx@@UBVHNode@23@IUBVHCallback@23@@Gu@physx@@QAE_NPBIPBVPxBounds3@2@ABUBVHTree@12@ABVPxVec3@2@3AAM3AAUBVHCallback@12@@Z 1004c7a0 f i GuBVHStructure.obj
 0001:0004bdfc       ??_EBVHStructure@Gu@physx@@W7AEPAXI@Z 1004cdfc f i GuBVHStructure.obj
 0001:0004be10       ??_GBVHStructure@Gu@physx@@UAEPAXI@Z 1004ce10 f i GuBVHStructure.obj
 0001:0004be10       ??_EBVHStructure@Gu@physx@@UAEPAXI@Z 1004ce10 f i GuBVHStructure.obj
 0001:0004be60       ??_GRefCountable@Cm@physx@@UAEPAXI@Z 1004ce60 f i GuBVHStructure.obj
 0001:0004be60       ??_ERefCountable@Cm@physx@@UAEPAXI@Z 1004ce60 f i GuBVHStructure.obj
 0001:0004be90       ?allocate@?$Array@PBUBVHNode@Gu@physx@@V?$InlineAllocator@$0EAA@V?$ReflectionAllocator@PBUBVHNode@Gu@physx@@@shdfnd@physx@@@shdfnd@3@@shdfnd@physx@@IAEPAPBUBVHNode@Gu@3@I@Z 1004ce90 f i GuBVHStructure.obj
 0001:0004bf20       ?createVolumes@BVHStructure@Gu@physx@@ABEXXZ 1004cf20 f   GuBVHStructure.obj
 0001:0004bf80       ?getConcreteTypeName@PxBVHStructure@physx@@UBEPBDXZ 1004cf80 f i GuBVHStructure.obj
 0001:0004bf90       ?isKindOf@PxBVHStructure@physx@@MBE_NPBD@Z 1004cf90 f i GuBVHStructure.obj
 0001:0004c010       ?load@BVHStructure@Gu@physx@@QAE_NAAVPxInputStream@3@@Z 1004d010 f   GuBVHStructure.obj
 0001:0004c160       ?onRefCountZero@BVHStructure@Gu@physx@@UAEXXZ 1004d160 f   GuBVHStructure.obj
 0001:0004c240       ?onRefCountZero@RefCountable@Cm@physx@@UAEXXZ 1004d240 f i GuBVHStructure.obj
 0001:0004c250       ?overlap@BVHStructure@Gu@physx@@UBEIABVPxBounds3@3@IPIAI@Z 1004d250 f   GuBVHStructure.obj
 0001:0004c330       ?raycast@BVHStructure@Gu@physx@@UBEIABVPxVec3@3@0MIPIAI@Z 1004d330 f   GuBVHStructure.obj
 0001:0004c3b0       ?recreate@?$Array@PBUBVHNode@Gu@physx@@V?$InlineAllocator@$0EAA@V?$ReflectionAllocator@PBUBVHNode@Gu@physx@@@shdfnd@physx@@@shdfnd@3@@shdfnd@physx@@IAEXI@Z 1004d3b0 f i GuBVHStructure.obj
 0001:0004c440       ?release@TriangleMesh@Gu@physx@@UAEXXZ 1004d440 f   GuTriangleMesh.obj
 0001:0004c440       ?release@BVHStructure@Gu@physx@@UAEXXZ 1004d440 f   GuBVHStructure.obj
 0001:0004c440       ?release@HeightField@Gu@physx@@UAEXXZ 1004d440 f   GuHeightField.obj
 0001:0004c440       ?release@ConvexMesh@Gu@physx@@UAEXXZ 1004d440 f   GuConvexMesh.obj
 0001:0004c460       ?resizeUninitialized@?$Array@PBUBVHNode@Gu@physx@@V?$InlineAllocator@$0EAA@V?$ReflectionAllocator@PBUBVHNode@Gu@physx@@@shdfnd@physx@@@shdfnd@3@@shdfnd@physx@@QAEXI@Z 1004d460 f i GuBVHStructure.obj
 0001:0004c490       ?sweep@BVHStructure@Gu@physx@@UBEIABVPxBounds3@3@ABVPxVec3@3@MIPIAI@Z 1004d490 f   GuBVHStructure.obj
 0001:0004c580       ??_GRayMeshColliderCallback@@UAEPAXI@Z 1004d580 f   GuMidphaseRTree.obj
 0001:0004c580       ??_ERayMeshColliderCallback@@UAEPAXI@Z 1004d580 f   GuMidphaseRTree.obj
 0001:0004c5b0       ?SweepAnyShapeHeightfield@Gu@physx@@YAMABUCCDShape@12@0ABVPxTransform@2@111MAAVPxVec3@2@2MAAIM@Z 1004d5b0 f   GuCCDSweepConvexMesh.obj
 0001:0004d8a0       ?SweepAnyShapeMesh@Gu@physx@@YAMABUCCDShape@12@0ABVPxTransform@2@111MAAVPxVec3@2@2MAAIM@Z 1004e8a0 f   GuCCDSweepConvexMesh.obj
 0001:0004f160       ?SweepEstimateAnyShapeHeightfield@Gu@physx@@YAMABUCCDShape@12@0ABVPxTransform@2@111MM@Z 10050160 f   GuCCDSweepConvexMesh.obj
 0001:0004fab0       ?SweepEstimateAnyShapeMesh@Gu@physx@@YAMABUCCDShape@12@0ABVPxTransform@2@111MM@Z 10050ab0 f   GuCCDSweepConvexMesh.obj
 0001:0004fda0       ?allocate@?$Array@IV?$InlineAllocator@$0BAA@V?$ReflectionAllocator@I@shdfnd@physx@@@shdfnd@physx@@@shdfnd@physx@@IAEPAII@Z 10050da0 f i GuCCDSweepConvexMesh.obj
 0001:00050920       ?growAndPushBack@?$Array@IV?$InlineAllocator@$0BAA@V?$ReflectionAllocator@I@shdfnd@physx@@@shdfnd@physx@@@shdfnd@physx@@IAEAAIABI@Z 10051920 f i GuCCDSweepConvexMesh.obj
 0001:00051010       ?recreate@?$Array@IV?$InlineAllocator@$0BAA@V?$ReflectionAllocator@I@shdfnd@physx@@@shdfnd@physx@@@shdfnd@physx@@IAEXI@Z 10052010 f i GuCCDSweepConvexMesh.obj
 0001:000510a0       ?resize@?$Array@IV?$InlineAllocator@$0BAA@V?$ReflectionAllocator@I@shdfnd@physx@@@shdfnd@physx@@@shdfnd@physx@@QAEXIABI@Z 100520a0 f i GuCCDSweepConvexMesh.obj
 0001:00051150       ?resize@?$Array@IV?$ReflectionAllocator@I@shdfnd@physx@@@shdfnd@physx@@QAEXIABI@Z 10052150 f i GuCCDSweepConvexMesh.obj
 0001:000511f0       ?transformBoxOrthonormal@physx@@YA?AVBox@Gu@1@ABV231@ABVPxTransform@1@@Z 100521f0 f i GuCCDSweepConvexMesh.obj
 0001:00051680       ?UnimplementedSweep@Gu@physx@@YAMABUCCDShape@12@0ABVPxTransform@2@111MAAVPxVec3@2@2MAAIM@Z 10052680 f   GuCCDSweepPrimitives.obj
 0001:00051690       ??$SweepGeomGeom@VCapsuleV@Gu@physx@@V123@@Gu@physx@@YAMABUCCDShape@01@0ABVPxTransform@1@111MAAVPxVec3@1@2MAAIM@Z 10052690 f i GuCCDSweepPrimitives.obj
 0001:000517d0       ??$SweepGeomGeom@VCapsuleV@Gu@physx@@VBoxV@23@@Gu@physx@@YAMABUCCDShape@01@0ABVPxTransform@1@111MAAVPxVec3@1@2MAAIM@Z 100527d0 f i GuCCDSweepPrimitives.obj
 0001:00051910       ??$SweepGeomGeom@VCapsuleV@Gu@physx@@VConvexHullV@23@@Gu@physx@@YAMABUCCDShape@01@0ABVPxTransform@1@111MAAVPxVec3@1@2MAAIM@Z 10052910 f i GuCCDSweepPrimitives.obj
 0001:00051ed0       ??$SweepGeomGeom@VBoxV@Gu@physx@@V123@@Gu@physx@@YAMABUCCDShape@01@0ABVPxTransform@1@111MAAVPxVec3@1@2MAAIM@Z 10052ed0 f i GuCCDSweepPrimitives.obj
 0001:00052020       ??$SweepGeomGeom@VBoxV@Gu@physx@@VConvexHullV@23@@Gu@physx@@YAMABUCCDShape@01@0ABVPxTransform@1@111MAAVPxVec3@1@2MAAIM@Z 10053020 f i GuCCDSweepPrimitives.obj
 0001:000525e0       ??$SweepGeomGeom@VConvexHullV@Gu@physx@@V123@@Gu@physx@@YAMABUCCDShape@01@0ABVPxTransform@1@111MAAVPxVec3@1@2MAAIM@Z 100535e0 f i GuCCDSweepPrimitives.obj
 0001:00052fa0       ?UnimplementedTriangleSweep@Gu@physx@@YAMABVGeometryUnion@12@0ABVPxTransform@2@111MAAVPxVec3@2@2ABVFastVertex2ShapeScaling@Cm@2@AAVTriangleV@12@M@Z 10053fa0 f   GuCCDSweepPrimitives.obj
 0001:00052fb0       ??$SweepGeomTriangles@VCapsuleV@Gu@physx@@@Gu@physx@@YAMABVGeometryUnion@01@0ABVPxTransform@1@111MAAVPxVec3@1@2ABVFastVertex2ShapeScaling@Cm@1@AAVTriangleV@01@M@Z 10053fb0 f i GuCCDSweepPrimitives.obj
 0001:00053070       ??$SweepGeomTriangles@VBoxV@Gu@physx@@@Gu@physx@@YAMABVGeometryUnion@01@0ABVPxTransform@1@111MAAVPxVec3@1@2ABVFastVertex2ShapeScaling@Cm@1@AAVTriangleV@01@M@Z 10054070 f i GuCCDSweepPrimitives.obj
 0001:00053130       ??$SweepGeomTriangles@VConvexHullV@Gu@physx@@@Gu@physx@@YAMABVGeometryUnion@01@0ABVPxTransform@1@111MAAVPxVec3@1@2ABVFastVertex2ShapeScaling@Cm@1@AAVTriangleV@01@M@Z 10054130 f i GuCCDSweepPrimitives.obj
 0001:00053650       ?supportPoint@?$RelativeConvex@VCapsuleV@Gu@physx@@@Gu@physx@@UBE?AT__m128@@H@Z 10054650 f i GuCCDSweepPrimitives.obj
 0001:000536a0       ?support@?$RelativeConvex@VCapsuleV@Gu@physx@@@Gu@physx@@UBE?AT__m128@@ABT4@@Z 100546a0 f i GuCCDSweepPrimitives.obj
 0001:00053750       ?support@?$RelativeConvex@VCapsuleV@Gu@physx@@@Gu@physx@@UBE?AT__m128@@ABT4@AAH@Z 10054750 f i GuCCDSweepPrimitives.obj
 0001:00053820       ?supportPoint@?$RelativeConvex@VTriangleV@Gu@physx@@@Gu@physx@@UBE?AT__m128@@H@Z 10054820 f i GuCCDSweepPrimitives.obj
 0001:00053870       ?support@?$RelativeConvex@VTriangleV@Gu@physx@@@Gu@physx@@UBE?AT__m128@@ABT4@@Z 10054870 f i GuCCDSweepPrimitives.obj
 0001:00053960       ?support@?$RelativeConvex@VTriangleV@Gu@physx@@@Gu@physx@@UBE?AT__m128@@ABT4@AAH@Z 10054960 f i GuCCDSweepPrimitives.obj
 0001:00056b00       ??$gjkPenetration@U?$RelativeConvex@VCapsuleV@Gu@physx@@@Gu@physx@@U?$LocalConvex@VBoxV@Gu@physx@@@23@@Gu@physx@@YA?AW4GjkStatus@01@ABU?$RelativeConvex@VCapsuleV@Gu@physx@@@01@ABU?$LocalConvex@VBoxV@Gu@physx@@@01@ABT__m128@@2_NPIAE4AAEAAUGjkOutput@01@@Z 10057b00 f i GuCCDSweepPrimitives.obj
 0001:000583e0       ??$gjkPenetration@U?$RelativeConvex@VCapsuleV@Gu@physx@@@Gu@physx@@U?$LocalConvex@VCapsuleV@Gu@physx@@@23@@Gu@physx@@YA?AW4GjkStatus@01@ABU?$RelativeConvex@VCapsuleV@Gu@physx@@@01@ABU?$LocalConvex@VCapsuleV@Gu@physx@@@01@ABT__m128@@2_NPIAE4AAEAAUGjkOutput@01@@Z 100593e0 f i GuCCDSweepPrimitives.obj
 0001:00059d00       ??$gjkPenetration@U?$RelativeConvex@VCapsuleV@Gu@physx@@@Gu@physx@@U?$LocalConvex@VConvexHullV@Gu@physx@@@23@@Gu@physx@@YA?AW4GjkStatus@01@ABU?$RelativeConvex@VCapsuleV@Gu@physx@@@01@ABU?$LocalConvex@VConvexHullV@Gu@physx@@@01@ABT__m128@@2_NPIAE4AAEAAUGjkOutput@01@@Z 1005ad00 f i GuCCDSweepPrimitives.obj
 0001:0005b6a0       ??$gjkPenetration@U?$RelativeConvex@VTriangleV@Gu@physx@@@Gu@physx@@U?$LocalConvex@VBoxV@Gu@physx@@@23@@Gu@physx@@YA?AW4GjkStatus@01@ABU?$RelativeConvex@VTriangleV@Gu@physx@@@01@ABU?$LocalConvex@VBoxV@Gu@physx@@@01@ABT__m128@@2_NPIAE4AAEAAUGjkOutput@01@@Z 1005c6a0 f i GuCCDSweepPrimitives.obj
 0001:0005d010       ??$gjkPenetration@U?$RelativeConvex@VTriangleV@Gu@physx@@@Gu@physx@@U?$LocalConvex@VCapsuleV@Gu@physx@@@23@@Gu@physx@@YA?AW4GjkStatus@01@ABU?$RelativeConvex@VTriangleV@Gu@physx@@@01@ABU?$LocalConvex@VCapsuleV@Gu@physx@@@01@ABT__m128@@2_NPIAE4AAEAAUGjkOutput@01@@Z 1005e010 f i GuCCDSweepPrimitives.obj
 0001:0005e9c0       ??$gjkPenetration@U?$RelativeConvex@VTriangleV@Gu@physx@@@Gu@physx@@U?$LocalConvex@VConvexHullV@Gu@physx@@@23@@Gu@physx@@YA?AW4GjkStatus@01@ABU?$RelativeConvex@VTriangleV@Gu@physx@@@01@ABU?$LocalConvex@VConvexHullV@Gu@physx@@@01@ABT__m128@@2_NPIAE4AAEAAUGjkOutput@01@@Z 1005f9c0 f i GuCCDSweepPrimitives.obj
 0001:00060410       ??$gjkRaycast@U?$RelativeConvex@VCapsuleV@Gu@physx@@@Gu@physx@@U?$LocalConvex@VBoxV@Gu@physx@@@23@@Gu@physx@@YA_NABU?$RelativeConvex@VCapsuleV@Gu@physx@@@01@ABU?$LocalConvex@VBoxV@Gu@physx@@@01@ABT__m128@@222AAT4@33M@Z 10061410 f i GuCCDSweepPrimitives.obj
 0001:00061220       ??$gjkRaycast@U?$RelativeConvex@VCapsuleV@Gu@physx@@@Gu@physx@@U?$LocalConvex@VCapsuleV@Gu@physx@@@23@@Gu@physx@@YA_NABU?$RelativeConvex@VCapsuleV@Gu@physx@@@01@ABU?$LocalConvex@VCapsuleV@Gu@physx@@@01@ABT__m128@@222AAT4@33M@Z 10062220 f i GuCCDSweepPrimitives.obj
 0001:000620a0       ??$gjkRaycast@U?$RelativeConvex@VCapsuleV@Gu@physx@@@Gu@physx@@U?$LocalConvex@VConvexHullV@Gu@physx@@@23@@Gu@physx@@YA_NABU?$RelativeConvex@VCapsuleV@Gu@physx@@@01@ABU?$LocalConvex@VConvexHullV@Gu@physx@@@01@ABT__m128@@222AAT4@33M@Z 100630a0 f i GuCCDSweepPrimitives.obj
 0001:00063010       ??$gjkRaycast@U?$RelativeConvex@VTriangleV@Gu@physx@@@Gu@physx@@U?$LocalConvex@VBoxV@Gu@physx@@@23@@Gu@physx@@YA_NABU?$RelativeConvex@VTriangleV@Gu@physx@@@01@ABU?$LocalConvex@VBoxV@Gu@physx@@@01@ABT__m128@@222AAT4@33M@Z 10064010 f i GuCCDSweepPrimitives.obj
 0001:00063ec0       ??$gjkRaycast@U?$RelativeConvex@VTriangleV@Gu@physx@@@Gu@physx@@U?$LocalConvex@VCapsuleV@Gu@physx@@@23@@Gu@physx@@YA_NABU?$RelativeConvex@VTriangleV@Gu@physx@@@01@ABU?$LocalConvex@VCapsuleV@Gu@physx@@@01@ABT__m128@@222AAT4@33M@Z 10064ec0 f i GuCCDSweepPrimitives.obj
 0001:00064e00       ??$gjkRaycast@U?$RelativeConvex@VTriangleV@Gu@physx@@@Gu@physx@@U?$LocalConvex@VConvexHullV@Gu@physx@@@23@@Gu@physx@@YA_NABU?$RelativeConvex@VTriangleV@Gu@physx@@@01@ABU?$LocalConvex@VConvexHullV@Gu@physx@@@01@ABT__m128@@222AAT4@33M@Z 10065e00 f i GuCCDSweepPrimitives.obj
 0001:00065e10       ??$gjkRaycastPenetration@U?$RelativeConvex@VCapsuleV@Gu@physx@@@Gu@physx@@U?$LocalConvex@VBoxV@Gu@physx@@@23@@Gu@physx@@YA_NABU?$RelativeConvex@VCapsuleV@Gu@physx@@@01@ABU?$LocalConvex@VBoxV@Gu@physx@@@01@ABT__m128@@222AAT4@33M_N@Z 10066e10 f i GuCCDSweepPrimitives.obj
 0001:00066070       ??$gjkRaycastPenetration@U?$RelativeConvex@VCapsuleV@Gu@physx@@@Gu@physx@@U?$LocalConvex@VCapsuleV@Gu@physx@@@23@@Gu@physx@@YA_NABU?$RelativeConvex@VCapsuleV@Gu@physx@@@01@ABU?$LocalConvex@VCapsuleV@Gu@physx@@@01@ABT__m128@@222AAT4@33M_N@Z 10067070 f i GuCCDSweepPrimitives.obj
 0001:000662d0       ??$gjkRaycastPenetration@U?$RelativeConvex@VCapsuleV@Gu@physx@@@Gu@physx@@U?$LocalConvex@VConvexHullV@Gu@physx@@@23@@Gu@physx@@YA_NABU?$RelativeConvex@VCapsuleV@Gu@physx@@@01@ABU?$LocalConvex@VConvexHullV@Gu@physx@@@01@ABT__m128@@222AAT4@33M_N@Z 100672d0 f i GuCCDSweepPrimitives.obj
 0001:00066530       ??$gjkRaycastPenetration@U?$RelativeConvex@VTriangleV@Gu@physx@@@Gu@physx@@U?$LocalConvex@VBoxV@Gu@physx@@@23@@Gu@physx@@YA_NABU?$RelativeConvex@VTriangleV@Gu@physx@@@01@ABU?$LocalConvex@VBoxV@Gu@physx@@@01@ABT__m128@@222AAT4@33M_N@Z 10067530 f i GuCCDSweepPrimitives.obj
 0001:00066790       ??$gjkRaycastPenetration@U?$RelativeConvex@VTriangleV@Gu@physx@@@Gu@physx@@U?$LocalConvex@VCapsuleV@Gu@physx@@@23@@Gu@physx@@YA_NABU?$RelativeConvex@VTriangleV@Gu@physx@@@01@ABU?$LocalConvex@VCapsuleV@Gu@physx@@@01@ABT__m128@@222AAT4@33M_N@Z 10067790 f i GuCCDSweepPrimitives.obj
 0001:000669f0       ??$gjkRaycastPenetration@U?$RelativeConvex@VTriangleV@Gu@physx@@@Gu@physx@@U?$LocalConvex@VConvexHullV@Gu@physx@@@23@@Gu@physx@@YA_NABU?$RelativeConvex@VTriangleV@Gu@physx@@@01@ABU?$LocalConvex@VConvexHullV@Gu@physx@@@01@ABT__m128@@222AAT4@33M_N@Z 100679f0 f i GuCCDSweepPrimitives.obj
 0001:00066c50       ?SweepShapeShape@Gu@physx@@YAMABUCCDShape@12@0ABVPxTransform@2@111MAAVPxVec3@2@2MAAIM@Z 10067c50 f   GuCCDSweepPrimitives.obj
 0001:00066cc0       ?SweepShapeTriangle@Gu@physx@@YAMABVGeometryUnion@12@0ABVPxTransform@2@111MAAVPxVec3@2@2ABVFastVertex2ShapeScaling@Cm@2@AAVTriangleV@12@M@Z 10067cc0 f   GuCCDSweepPrimitives.obj
 0001:00066d20       ?barycentricCoordinates@Gu@physx@@YAXABT__m128@@000AAT3@1@Z 10067d20 f   GuBarycentricCoordinates.obj
 0001:00066e50       ?barycentricCoordinates@Gu@physx@@YAXABT__m128@@00AAT3@@Z 10067e50 f   GuBarycentricCoordinates.obj
 0001:00066ed0       ?addAxis@SeparatingAxes@Gu@physx@@QAE_NABVPxVec3@3@@Z 10067ed0 f   GuSeparatingAxes.obj
 0001:00066f60       ?contactBoxBox@Gu@physx@@YA_NABVGeometryUnion@12@0ABVPxTransform@2@1ABUNarrowPhaseParams@12@AAUCache@12@AAVContactBuffer@12@PAVRenderOutput@Cm@2@@Z 10067f60 f   GuContactBoxBox.obj
 0001:0006b420       ?contactCapsuleBox@Gu@physx@@YA_NABVGeometryUnion@12@0ABVPxTransform@2@1ABUNarrowPhaseParams@12@AAUCache@12@AAVContactBuffer@12@PAVRenderOutput@Cm@2@@Z 1006c420 f   GuContactCapsuleBox.obj
 0001:0006b9f0       ?contactCapsuleCapsule@Gu@physx@@YA_NABVGeometryUnion@12@0ABVPxTransform@2@1ABUNarrowPhaseParams@12@AAUCache@12@AAVContactBuffer@12@PAVRenderOutput@Cm@2@@Z 1006c9f0 f   GuContactCapsuleCapsule.obj
 0001:0006e5b0       ?contactCapsuleConvex@Gu@physx@@YA_NABVGeometryUnion@12@0ABVPxTransform@2@1ABUNarrowPhaseParams@12@AAUCache@12@AAVContactBuffer@12@PAVRenderOutput@Cm@2@@Z 1006f5b0 f   GuContactCapsuleConvex.obj
 0001:00070a80       ?contactCapsuleHeightfield@Gu@physx@@YA_NABVGeometryUnion@12@0ABVPxTransform@2@1ABUNarrowPhaseParams@12@AAUCache@12@AAVContactBuffer@12@PAVRenderOutput@Cm@2@@Z 10071a80 f   GuContactCapsuleMesh.obj
 0001:00071270       ?contactCapsuleMesh@Gu@physx@@YA_NABVGeometryUnion@12@0ABVPxTransform@2@1ABUNarrowPhaseParams@12@AAUCache@12@AAVContactBuffer@12@PAVRenderOutput@Cm@2@@Z 10072270 f   GuContactCapsuleMesh.obj
 0001:000722e0       ?transformFast@PxBounds3@physx@@SA?AV12@ABVPxTransform@2@ABV12@@Z 100732e0 f i GuContactCapsuleMesh.obj
 0001:00072640       ?transformQueryBounds@FastVertex2ShapeScaling@Cm@physx@@QBEXAAVPxVec3@3@0AAVPxMat33@3@@Z 10073640 f i GuContactCapsuleMesh.obj
 0001:00076580       ?contactBoxConvex@Gu@physx@@YA_NABVGeometryUnion@12@0ABVPxTransform@2@1ABUNarrowPhaseParams@12@AAUCache@12@AAVContactBuffer@12@PAVRenderOutput@Cm@2@@Z 10077580 f   GuContactConvexConvex.obj
 0001:000766b0       ?contactConvexConvex@Gu@physx@@YA_NABVGeometryUnion@12@0ABVPxTransform@2@1ABUNarrowPhaseParams@12@AAUCache@12@AAVContactBuffer@12@PAVRenderOutput@Cm@2@@Z 100776b0 f   GuContactConvexConvex.obj
 0001:00077020       ??_EConvexMeshContactGenerationCallback@@UAEPAXI@Z 10078020 f i GuContactConvexMesh.obj
 0001:00077020       ??_GConvexMeshContactGenerationCallback@@UAEPAXI@Z 10078020 f i GuContactConvexMesh.obj
 0001:00077080       ?addData@?$CacheMap@UCachedEdge@Gu@physx@@$0IA@@Gu@physx@@QAE_NABUCachedEdge@23@@Z 10078080 f i GuContactConvexMesh.obj
 0001:00077150       ?addData@?$CacheMap@UCachedVertex@Gu@physx@@$0IA@@Gu@physx@@QAE_NABUCachedVertex@23@@Z 10078150 f i GuContactConvexMesh.obj
 0001:000771e0       ?allocate@?$Array@IV?$InlineAllocator@$0BBAA@V?$ReflectionAllocator@I@shdfnd@physx@@@shdfnd@physx@@@shdfnd@physx@@IAEPAII@Z 100781e0 f i GuContactConvexMesh.obj
 0001:000775b0       ?contactBoxHeightfield@Gu@physx@@YA_NABVGeometryUnion@12@0ABVPxTransform@2@1ABUNarrowPhaseParams@12@AAUCache@12@AAVContactBuffer@12@PAVRenderOutput@Cm@2@@Z 100785b0 f   GuContactConvexMesh.obj
 0001:000776a0       ?contactBoxMesh@Gu@physx@@YA_NABVGeometryUnion@12@0ABVPxTransform@2@1ABUNarrowPhaseParams@12@AAUCache@12@AAVContactBuffer@12@PAVRenderOutput@Cm@2@@Z 100786a0 f   GuContactConvexMesh.obj
 0001:00077810       ?contactConvexHeightfield@Gu@physx@@YA_NABVGeometryUnion@12@0ABVPxTransform@2@1ABUNarrowPhaseParams@12@AAUCache@12@AAVContactBuffer@12@PAVRenderOutput@Cm@2@@Z 10078810 f   GuContactConvexMesh.obj
 0001:000778f0       ?contactConvexMesh@Gu@physx@@YA_NABVGeometryUnion@12@0ABVPxTransform@2@1ABUNarrowPhaseParams@12@AAUCache@12@AAVContactBuffer@12@PAVRenderOutput@Cm@2@@Z 100788f0 f   GuContactConvexMesh.obj
 0001:00078ce0       ?contains@?$CacheMap@UCachedEdge@Gu@physx@@$0IA@@Gu@physx@@QBE_NABUCachedEdge@23@@Z 10079ce0 f i GuContactConvexMesh.obj
 0001:0007b0f0       ?processHit@ConvexMeshContactGenerationCallback@@UAE_NABUPxRaycastHit@physx@@ABVPxVec3@3@11AAMPBI@Z 1007c0f0 f i GuContactConvexMesh.obj
 0001:0007b810       ?recreate@?$Array@IV?$InlineAllocator@$0BBAA@V?$ReflectionAllocator@I@shdfnd@physx@@@shdfnd@physx@@@shdfnd@physx@@IAEXI@Z 1007c810 f i GuContactConvexMesh.obj
 0001:0007c6d0       ?contactPlaneBox@Gu@physx@@YA_NABVGeometryUnion@12@0ABVPxTransform@2@1ABUNarrowPhaseParams@12@AAUCache@12@AAVContactBuffer@12@PAVRenderOutput@Cm@2@@Z 1007d6d0 f   GuContactPlaneBox.obj
 0001:0007d500       ?contactPlaneCapsule@Gu@physx@@YA_NABVGeometryUnion@12@0ABVPxTransform@2@1ABUNarrowPhaseParams@12@AAUCache@12@AAVContactBuffer@12@PAVRenderOutput@Cm@2@@Z 1007e500 f   GuContactPlaneCapsule.obj
 0001:0007dbe0       ?contactPlaneConvex@Gu@physx@@YA_NABVGeometryUnion@12@0ABVPxTransform@2@1ABUNarrowPhaseParams@12@AAUCache@12@AAVContactBuffer@12@PAVRenderOutput@Cm@2@@Z 1007ebe0 f   GuContactPlaneConvex.obj
 0001:0007e6f0       ??4ContactPoint@Gu@physx@@QAEAAU012@ABU012@@Z 1007f6f0 f i GuContactPolygonPolygon.obj
 0001:0007f2f0       ?contactPolygonPolygonExt@Gu@physx@@YA_NIPBVPxVec3@2@PBEABVMatrix34@Cm@2@ABVPxPlane@2@ABVPxMat33@2@I01234ABV32@22IIAAVContactBuffer@12@_N5M@Z 100802f0 f   GuContactPolygonPolygon.obj
 0001:000803c0       ?findRotationMatrixFromZ@Gu@physx@@YA?AVPxMat33@2@ABVPxVec3@2@@Z 100813c0 f   GuContactPolygonPolygon.obj
 0001:000807e0       ?contactSphereBox@Gu@physx@@YA_NABVGeometryUnion@12@0ABVPxTransform@2@1ABUNarrowPhaseParams@12@AAUCache@12@AAVContactBuffer@12@PAVRenderOutput@Cm@2@@Z 100817e0 f   GuContactSphereBox.obj
 0001:00080de0       ?contactSphereCapsule@Gu@physx@@YA_NABVGeometryUnion@12@0ABVPxTransform@2@1ABUNarrowPhaseParams@12@AAUCache@12@AAVContactBuffer@12@PAVRenderOutput@Cm@2@@Z 10081de0 f   GuContactSphereCapsule.obj
 0001:00081520       ??0PxMat44@physx@@QAE@W4PxIDENTITY@1@@Z 10082520 f i GuContactSphereMesh.obj
 0001:00081b60       ?contactSphereHeightfield@Gu@physx@@YA_NABVGeometryUnion@12@0ABVPxTransform@2@1ABUNarrowPhaseParams@12@AAUCache@12@AAVContactBuffer@12@PAVRenderOutput@Cm@2@@Z 10082b60 f   GuContactSphereMesh.obj
 0001:000826e0       ?contactSphereMesh@Gu@physx@@YA_NABVGeometryUnion@12@0ABVPxTransform@2@1ABUNarrowPhaseParams@12@AAUCache@12@AAVContactBuffer@12@PAVRenderOutput@Cm@2@@Z 100836e0 f   GuContactSphereMesh.obj
 0001:00085290       ?contactSpherePlane@Gu@physx@@YA_NABVGeometryUnion@12@0ABVPxTransform@2@1ABUNarrowPhaseParams@12@AAUCache@12@AAVContactBuffer@12@PAVRenderOutput@Cm@2@@Z 10086290 f   GuContactSpherePlane.obj
 0001:00085430       ?contactSphereSphere@Gu@physx@@YA_NABVGeometryUnion@12@0ABVPxTransform@2@1ABUNarrowPhaseParams@12@AAUCache@12@AAVContactBuffer@12@PAVRenderOutput@Cm@2@@Z 10086430 f   GuContactSphereSphere.obj
 0001:00085570       ?selectNormal@Gu@physx@@YA_NEMM@Z 10086570 f   GuFeatureCode.obj
 0001:00085620       ??0BigConvexData@physx@@QAE@XZ 10086620 f   GuBigConvexData.obj
 0001:00085640       ??1BigConvexData@physx@@QAE@XZ 10086640 f   GuBigConvexData.obj
 0001:000856a0       ?ComputeNearestOffset@BigConvexData@physx@@QBEIABVPxVec3@2@@Z 100866a0 f   GuBigConvexData.obj
 0001:00085740       ?ComputeOffset@BigConvexData@physx@@QBEIABVPxVec3@2@@Z 10086740 f   GuBigConvexData.obj
 0001:000857d0       ?CreateOffsets@BigConvexData@physx@@IAEXXZ 100867d0 f   GuBigConvexData.obj
 0001:00085800       ?CubemapLookup@physx@@YA?AW4CubeIndex@1@ABVPxVec3@1@AAM1@Z 10086800 f i GuBigConvexData.obj
 0001:000858b0       ?Load@BigConvexData@physx@@QAE_NAAVPxInputStream@2@@Z 100868b0 f   GuBigConvexData.obj
 0001:00085980       ?VLoad@BigConvexData@physx@@IAE_NAAVPxInputStream@2@@Z 10086980 f   GuBigConvexData.obj
 0001:00085ac0       ?exportExtraData@BigConvexData@physx@@QAEXAAVPxSerializationContext@2@@Z 10086ac0 f   GuBigConvexData.obj
 0001:00085b20       ?importExtraData@BigConvexData@physx@@QAEXAAVPxDeserializationContext@2@@Z 10086b20 f   GuBigConvexData.obj
 0001:00085b80       ?findUniqueConvexEdges@Gu@physx@@YAIIPIAUConvexEdge@12@IPIBUHullPolygonData@12@PIBE@Z 10086b80 f   GuConvexHelper.obj
 0001:00085cb0       ?getConvexData@Gu@physx@@YA_NABVGeometryUnion@12@AAVFastVertex2ShapeScaling@Cm@2@AAVPxBounds3@2@AAUPolygonalData@12@@Z 10086cb0 f   GuConvexHelper.obj
 0001:00085f10       ?getScaledConvex@Gu@physx@@YAXAAPAVPxVec3@2@AAPAEPAV32@PAE_NPBV32@PBEIABVFastVertex2ShapeScaling@Cm@2@@Z 10086f10 f   GuConvexHelper.obj
 0001:00086000       ??0ConvexMesh@Gu@physx@@QAE@AAVGuMeshFactory@2@AAUConvexHullInitData@12@@Z 10087000 f   GuConvexMesh.obj
 0001:000860f0       ??0ConvexMesh@Gu@physx@@QAE@XZ 100870f0 f   GuConvexMesh.obj
 0001:000861b0       ??1ConvexMesh@Gu@physx@@UAE@XZ 100871b0 f   GuConvexMesh.obj
 0001:00086220       ??_EConvexMesh@Gu@physx@@UAEPAXI@Z 10087220 f i GuConvexMesh.obj
 0001:00086339       ??_EConvexMesh@Gu@physx@@W7AEPAXI@Z 10087339 f i GuConvexMesh.obj
 0001:00086350       ??_EPxHeightField@physx@@MAEPAXI@Z 10087350 f i GuHeightField.obj
 0001:00086350       ??_EPxConvexMesh@physx@@MAEPAXI@Z 10087350 f i GuConvexMesh.obj
 0001:000863c0       ?acquireReference@TriangleMesh@Gu@physx@@UAEXXZ 100873c0 f   GuTriangleMesh.obj
 0001:000863c0       ?acquireReference@ConvexMesh@Gu@physx@@UAEXXZ 100873c0 f   GuConvexMesh.obj
 0001:000863c0       ?acquireReference@HeightField@Gu@physx@@UAEXXZ 100873c0 f   GuHeightField.obj
 0001:000863d0       ?computeBufferSize@Gu@physx@@YAIABUConvexHullData@12@I@Z 100873d0 f i GuConvexMesh.obj
 0001:000867c0       ?createObject@ConvexMesh@Gu@physx@@SAPAV123@AAPAEAAVPxDeserializationContext@3@@Z 100877c0 f   GuConvexMesh.obj
 0001:00086810       ?exportExtraData@ConvexMesh@Gu@physx@@UAEXAAVPxSerializationContext@3@@Z 10087810 f   GuConvexMesh.obj
 0001:000868b0       ?getLocalBounds@ConvexMesh@Gu@physx@@UBE?AVPxBounds3@3@XZ 100878b0 f   GuConvexMesh.obj
 0001:00086910       ?getMassInformation@ConvexMesh@Gu@physx@@UBEXAAMAAVPxMat33@3@AAVPxVec3@3@@Z 10087910 f   GuConvexMesh.obj
 0001:00086970       ?getPolygonData@ConvexMesh@Gu@physx@@UBE_NIAAUPxHullPolygon@3@@Z 10087970 f   GuConvexMesh.obj
 0001:000869c0       ?importExtraData@ConvexMesh@Gu@physx@@QAEXAAVPxDeserializationContext@3@@Z 100879c0 f   GuConvexMesh.obj
 0001:00086a60       ?isGpuCompatible@ConvexMesh@Gu@physx@@UBE_NXZ 10087a60 f   GuConvexMesh.obj
 0001:00086a80       ?load@ConvexMesh@Gu@physx@@QAE_NAAVPxInputStream@3@@Z 10087a80 f   GuConvexMesh.obj
 0001:00086cb0       ?onRefCountZero@ConvexMesh@Gu@physx@@UAEXXZ 10087cb0 f   GuConvexMesh.obj
 0001:00086d80       ?requiresObjects@HeightField@Gu@physx@@UAEXAAVPxProcessPxBaseCallback@3@@Z 10087d80 f i GuHeightField.obj
 0001:00086d80       ?requiresObjects@TriangleMesh@Gu@physx@@UAEXAAVPxProcessPxBaseCallback@3@@Z 10087d80 f i GuTriangleMesh.obj
 0001:00086d80       ?requiresObjects@ConvexMesh@Gu@physx@@UAEXAAVPxProcessPxBaseCallback@3@@Z 10087d80 f i GuConvexMesh.obj
 0001:00086d90       ??Dphysx@@YA?AVMatrix34@Cm@0@ABVPxMeshScale@0@ABV120@@Z 10087d90 f i GuConvexUtilsInternal.obj
 0001:00087330       ?computeHullOBB@Gu@physx@@YAXAAVBox@12@ABVPxBounds3@2@MABVMatrix34@Cm@2@2ABVFastVertex2ShapeScaling@62@_N@Z 10088330 f   GuConvexUtilsInternal.obj
 0001:00087770       ?computeOBBAroundConvex@Gu@physx@@YAXAAVBox@12@ABVPxConvexMeshGeometry@2@PBVPxConvexMesh@2@ABVPxTransform@2@@Z 10088770 f   GuConvexUtilsInternal.obj
 0001:00088160       ?computeVertexSpaceOBB@Gu@physx@@YAXAAVBox@12@ABV312@ABVPxTransform@2@ABVPxMeshScale@2@@Z 10089160 f   GuConvexUtilsInternal.obj
 0001:00088510       ?transform@physx@@YA?AVBox@Gu@1@ABVMatrix34@Cm@1@ABV231@@Z 10089510 f i GuConvexUtilsInternal.obj
 0001:00088750       ?localSearch@physx@@YAXAAIABVPxVec3@1@PBV21@PBUBigConvexRawData@Gu@1@@Z 10089750 f   GuHillClimbing.obj
 0001:000888b0       ??0PCMPolygonalBox@Gu@physx@@QAE@ABVPxVec3@2@@Z 100898b0 f   GuPCMShapeConvex.obj
 0001:000888b0       ??0PolygonalBox@Gu@physx@@QAE@ABVPxVec3@2@@Z 100898b0 f   GuShapeConvex.obj
 0001:000894d0       ?getPolygonalData@PolygonalBox@Gu@physx@@QBEXPIAUPolygonalData@23@@Z 1008a4d0 f   GuShapeConvex.obj
 0001:00089550       ?getPolygonalData_Convex@Gu@physx@@YAXPIAUPolygonalData@12@PIBUConvexHullData@12@ABVFastVertex2ShapeScaling@Cm@2@@Z 1008a550 f   GuShapeConvex.obj
 0001:00089670       ?distancePointBoxSquared@Gu@physx@@YAMABVPxVec3@2@00ABVPxMat33@2@PAV32@@Z 1008a670 f   GuDistancePointBox.obj
 0001:000897d0       ?closestPtPointTriangle@Gu@physx@@YA?AVPxVec3@2@ABV32@000AAM1@Z 1008a7d0 f   GuDistancePointTriangle.obj
 0001:00089c90       ?distancePointTriangleSquared@Gu@physx@@YA?AT__m128@@ABT3@000AAT3@11@Z 1008ac90 f   GuDistancePointTriangle.obj
 0001:0008ad10       ?distanceSegmentBoxSquared@Gu@physx@@YAMABVPxVec3@2@000ABVPxMat33@2@PAMPAV32@@Z 1008bd10 f   GuDistanceSegmentBox.obj
 0001:0008b3e0       ?distanceSegmentSegmentSquared4@Gu@physx@@YA?AT__m128@@ABT3@000000000AAT3@1@Z 1008c3e0 f   GuDistanceSegmentSegment.obj
 0001:0008b710       ?distanceSegmentSegmentSquared@Gu@physx@@YA?AT__m128@@ABT3@000AAT3@1@Z 1008c710 f   GuDistanceSegmentSegment.obj
 0001:0008b8b0       ?distanceSegmentSegmentSquared@Gu@physx@@YAMABVPxVec3@2@000PAM1@Z 1008c8b0 f   GuDistanceSegmentSegment.obj
 0001:0008bb10       ?distanceSegmentSegmentSquared@Gu@physx@@YAMABVPxVec3@2@0M00MPAM1@Z 1008cb10 f   GuDistanceSegmentSegment.obj
 0001:0008c210       ?distanceSegmentTriangleSquared@Gu@physx@@YA?AT__m128@@ABT3@0000AAT3@1@Z 1008d210 f   GuDistanceSegmentTriangle.obj
 0001:0008c910       ?distanceSegmentTriangleSquared@Gu@physx@@YAMABVPxVec3@2@0000PAM11@Z 1008d910 f   GuDistanceSegmentTriangle.obj
 0001:0008ea90       ?PenetrationDepth@EPA@Gu@physx@@QAE?AW4GjkStatus@23@ABUGjkConvex@23@0PIBT__m128@@1E_NT6@AAUGjkOutput@23@@Z 1008fa90 f   GuEPA.obj
 0001:0008f300       ?addFacet@EPA@Gu@physx@@QAEPAVFacet@23@IIIABT__m128@@@Z 10090300 f   GuEPA.obj
 0001:0008f720       ?epaPenetration@Gu@physx@@YA?AW4GjkStatus@12@ABUGjkConvex@12@0PIBE1E_NT__m128@@AAUGjkOutput@12@@Z 10090720 f   GuEPA.obj
 0001:0008f820       ?expandSegment@EPA@Gu@physx@@QAE_NABUGjkConvex@23@0AAHABT__m128@@@Z 10090820 f   GuEPA.obj
 0001:0008f950       ?expandTriangle@EPA@Gu@physx@@QAE_NAAHABT__m128@@@Z 10090950 f   GuEPA.obj
 0001:0008f9c0       ?silhouette@Facet@Gu@physx@@QAEXABT__m128@@PIBT4@1AAVEdgeBuffer@23@AAV?$InlineDeferredIDPool@$0EA@@Cm@3@@Z 100909c0 f   GuEPA.obj
 0001:0008fb70       ?closestPtPointTetrahedron@Gu@physx@@YA?AT__m128@@PIAT3@00AAI@Z 10090b70 f   GuGJKSimplex.obj
 0001:000903c0       ?closestPtPointTetrahedron@Gu@physx@@YA?AT__m128@@PIAT3@00PIAH1AAI@Z 100913c0 f   GuGJKSimplex.obj
 0001:00092300       ??$gjk@UGjkConvex@Gu@physx@@U123@@Gu@physx@@YA?AW4GjkStatus@01@ABUGjkConvex@01@0ABT__m128@@1AAT4@222@Z 10093300 f i GuGJKTest.obj
 0001:00093150       ??$gjkPenetration@UGjkConvex@Gu@physx@@U123@@Gu@physx@@YA?AW4GjkStatus@01@ABUGjkConvex@01@0ABT__m128@@1_NPIAE3AAEAAUGjkOutput@01@@Z 10094150 f i GuGJKTest.obj
 0001:000949a0       ?testEpaPenetration@Gu@physx@@YA?AW4GjkStatus@12@AAUGjkConvex@12@0PBE1EAAUGjkOutput@12@@Z 100959a0 f   GuGJKTest.obj
 0001:000949d0       ?testGjk@Gu@physx@@YA?AW4GjkStatus@12@AAUGjkConvex@12@0ABT__m128@@1AAT5@222@Z 100959d0 f   GuGJKTest.obj
 0001:000949e0       ?testGjkPenetration@Gu@physx@@YA?AW4GjkStatus@12@AAUGjkConvex@12@0ABT__m128@@1PAE2AAEAAUGjkOutput@12@@Z 100959e0 f   GuGJKTest.obj
 0001:00094a10       ??0HeightField@Gu@physx@@QAE@AAVGuMeshFactory@2@AAUHeightFieldData@12@@Z 10095a10 f   GuHeightField.obj
 0001:00094a80       ??0HeightField@Gu@physx@@QAE@PAVGuMeshFactory@2@@Z 10095a80 f   GuHeightField.obj
 0001:00094b00       ??1HeightField@Gu@physx@@UAE@XZ 10095b00 f   GuHeightField.obj
 0001:00094b50       ??_EHeightField@Gu@physx@@UAEPAXI@Z 10095b50 f i GuHeightField.obj
 0001:00094c72       ??_EHeightField@Gu@physx@@W7AEPAXI@Z 10095c72 f i GuHeightField.obj
 0001:00094c80       ?computeCellCoordinates@HeightField@Gu@physx@@QBEIMMAAM0@Z 10095c80 f   GuHeightField.obj
 0001:00094da0       ?createObject@HeightField@Gu@physx@@SAPAV123@AAPAEAAVPxDeserializationContext@3@@Z 10095da0 f   GuHeightField.obj
 0001:00094e00       ?exportExtraData@HeightField@Gu@physx@@UAEXAAVPxSerializationContext@3@@Z 10095e00 f   GuHeightField.obj
 0001:00094e30       ?getEdgeTriangleIndices@physx@@YAIABVHeightField@Gu@1@ABUEdgeData@1@PIAI@Z 10095e30 f   GuHeightField.obj
 0001:00094f50       ?getVertexEdgeIndices@physx@@YAIABVHeightField@Gu@1@IIIQAUEdgeData@1@@Z 10095f50 f   GuHeightField.obj
 0001:00095140       ?importExtraData@HeightField@Gu@physx@@QAEXAAVPxDeserializationContext@3@@Z 10096140 f   GuHeightField.obj
 0001:00095170       ?isCollisionVertexPreca@HeightField@Gu@physx@@QBE_NIIIG@Z 10096170 f   GuHeightField.obj
 0001:000951e0       ?isConvexVertex@HeightField@Gu@physx@@QBE_NIII@Z 100961e0 f i GuHeightField.obj
 0001:00095290       ?isSolidVertex@HeightField@Gu@physx@@QBE_NIIIGAA_N@Z 10096290 f   GuHeightField.obj
 0001:000953f0       ?load@HeightField@Gu@physx@@QAE_NAAVPxInputStream@3@@Z 100963f0 f   GuHeightField.obj
 0001:00095670       ?loadFromDesc@HeightField@Gu@physx@@QAE_NABVPxHeightFieldDesc@3@@Z 10096670 f   GuHeightField.obj
 0001:000958d0       ?modifySamples@HeightField@Gu@physx@@UAE_NHHABVPxHeightFieldDesc@3@_N@Z 100968d0 f   GuHeightField.obj
 0001:00095bb0       ?onRefCountZero@HeightField@Gu@physx@@UAEXXZ 10096bb0 f   GuHeightField.obj
 0001:00095c20       ?parseTrianglesForCollisionVertices@HeightField@Gu@physx@@QAEXG@Z 10096c20 f   GuHeightField.obj
 0001:00096080       ?releaseMemory@HeightField@Gu@physx@@QAEXXZ 10097080 f   GuHeightField.obj
 0001:000960b0       ?resizeAndClear@?$BitMapBase@VNonTrackingAllocator@shdfnd@physx@@@Cm@physx@@QAEXI@Z 100970b0 f i GuHeightField.obj
 0001:00096140       ?saveCells@HeightField@Gu@physx@@UBEIPAXI@Z 10097140 f   GuHeightField.obj
 0001:00096170       ?computeLocalBounds@HeightFieldUtil@Gu@physx@@QBEXAAVPxBounds3@3@@Z 10097170 f   GuHeightFieldUtil.obj
 0001:00096240       ?findClosestPointOnEdge@HeightFieldUtil@Gu@physx@@QBEMIIIIABVPxVec3@3@AAV43@@Z 10097240 f   GuHeightFieldUtil.obj
 0001:00096570       ?findClosestPointsOnCell@HeightFieldUtil@Gu@physx@@QBEIIIVPxVec3@3@PIAV43@PIAI_N33@Z 10097570 f   GuHeightFieldUtil.obj
 0001:00096d20       ?findProjectionOnTriangle@HeightFieldUtil@Gu@physx@@QBE_NIIIABVPxVec3@3@AAV43@@Z 10097d20 f   GuHeightFieldUtil.obj
 0001:00097000       ?getEdge@HeightFieldUtil@Gu@physx@@QBEXIIIIAAVPxVec3@3@0@Z 10098000 f   GuHeightFieldUtil.obj
 0001:000972a0       ?getEdgeFaceIndex@HeightFieldUtil@Gu@physx@@QBEII@Z 100982a0 f   GuHeightFieldUtil.obj
 0001:00097430       ?getEdgeFaceIndex@HeightFieldUtil@Gu@physx@@QBEIIIII@Z 10098430 f   GuHeightFieldUtil.obj
 0001:000975b0       ?getEdgeFaceIndex@HeightFieldUtil@Gu@physx@@QBEIIIPIBI@Z 100985b0 f   GuHeightFieldUtil.obj
 0001:00097630       ?getFaceIndexAtShapePoint@HeightFieldUtil@Gu@physx@@QBEIMM@Z 10098630 f   GuHeightFieldUtil.obj
 0001:00097730       ?getTriangle@HeightFieldUtil@Gu@physx@@QBEIABVPxTransform@3@AAVPxTriangle@3@PAI2I_N3@Z 10098730 f   GuHeightFieldUtil.obj
 0001:000982c0       ?getTriangleAdjacencyIndices@HeightField@Gu@physx@@QBEXIIIIAAI00@Z 100992c0 f i GuHeightFieldUtil.obj
 0001:00098450       ?getTriangleVertexIndices@HeightField@Gu@physx@@QBEXIAAI00@Z 10099450 f i GuHeightFieldUtil.obj
 0001:000984e0       ?getVertexFaceIndex@HeightFieldUtil@Gu@physx@@QBEIIII@Z 100994e0 f   GuHeightFieldUtil.obj
 0001:00098720       ?getVertexNormal@HeightFieldUtil@Gu@physx@@QBE?AVPxVec3@3@III@Z 10099720 f   GuHeightFieldUtil.obj
 0001:00098a40       ?overlapAABBTriangles@HeightFieldUtil@Gu@physx@@QBE_NABVPxTransform@3@ABVPxBounds3@3@IPAV?$EntityReport@I@23@@Z 10099a40 f   GuHeightFieldUtil.obj
 0001:00099160       ??$traceSegment@UTriggerTraceSegmentCallback@Gu@physx@@$0A@$0A@@HeightFieldTraceUtil@Gu@physx@@QBEXABVPxVec3@2@0MPAUTriggerTraceSegmentCallback@12@ABVPxBounds3@2@_NPBV32@@Z 1009a160 f i GuOverlapTestsHF.obj
 0001:0009a460       ?GeomOverlapCallback_BoxHeightfield@@YA_NABVPxGeometry@physx@@ABVPxTransform@2@01PAUTriggerCache@Gu@2@@Z 1009b460 f   GuOverlapTestsHF.obj
 0001:0009a7c0       ?GeomOverlapCallback_CapsuleHeightfield@@YA_NABVPxGeometry@physx@@ABVPxTransform@2@01PAUTriggerCache@Gu@2@@Z 1009b7c0 f   GuOverlapTestsHF.obj
 0001:0009aa70       ?GeomOverlapCallback_ConvexHeightfield@@YA_NABVPxGeometry@physx@@ABVPxTransform@2@01PAUTriggerCache@Gu@2@@Z 1009ba70 f   GuOverlapTestsHF.obj
 0001:0009aae0       ?GeomOverlapCallback_SphereHeightfield@@YA_NABVPxGeometry@physx@@ABVPxTransform@2@01PAUTriggerCache@Gu@2@@Z 1009bae0 f   GuOverlapTestsHF.obj
 0001:0009ac80       ?checkOverlapAABB_heightFieldGeom@Gu@physx@@YA_NABVPxGeometry@2@ABVPxTransform@2@ABVPxBounds3@2@@Z 1009bc80 f   GuOverlapTestsHF.obj
 0001:0009e2b0       ??$gjkRaycast@U?$LocalConvex@VTriangleV@Gu@physx@@@Gu@physx@@U?$LocalConvex@VConvexHullV@Gu@physx@@@23@@Gu@physx@@YA_NABU?$LocalConvex@VTriangleV@Gu@physx@@@01@ABU?$LocalConvex@VConvexHullV@Gu@physx@@@01@ABT__m128@@222AAT4@33M@Z 1009f2b0 f i GuSweepsHF.obj
 0001:0009f210       ??$traceSegment@VCapsuleTraceSegmentReport@@$0A@$00@HeightFieldTraceUtil@Gu@physx@@QBEXABVPxVec3@2@0MPAVCapsuleTraceSegmentReport@@ABVPxBounds3@2@_NPBV32@@Z 100a0210 f i GuSweepsHF.obj
 0001:0009f210       ??$traceSegment@VConvexTraceSegmentReport@@$0A@$00@HeightFieldTraceUtil@Gu@physx@@QBEXABVPxVec3@2@0MPAVConvexTraceSegmentReport@@ABVPxBounds3@2@_NPBV32@@Z 100a0210 f i GuSweepsHF.obj
 0001:0009f210       ??$traceSegment@VBoxTraceSegmentReport@@$0A@$00@HeightFieldTraceUtil@Gu@physx@@QBEXABVPxVec3@2@0MPAVBoxTraceSegmentReport@@ABVPxBounds3@2@_NPBV32@@Z 100a0210 f i GuSweepsHF.obj
 0001:0009fbf0       ??0ConvexTraceSegmentReport@@QAE@ABVHeightFieldUtil@Gu@physx@@ABUConvexHullData@23@ABVPxMeshScale@3@ABVPxTransform@3@3ABVPxVec3@3@MV?$PxFlags@W4Enum@PxHitFlag@physx@@G@3@M@Z 100a0bf0 f i GuSweepsHF.obj
 0001:000a05d0       ??_EBoxTraceSegmentReport@@UAEPAXI@Z 100a15d0 f i GuSweepsHF.obj
 0001:000a05d0       ??_GBoxTraceSegmentReport@@UAEPAXI@Z 100a15d0 f i GuSweepsHF.obj
 0001:000a0600       ??_ECapsuleTraceSegmentReport@@UAEPAXI@Z 100a1600 f i GuSweepsHF.obj
 0001:000a0600       ??_GCapsuleTraceSegmentReport@@UAEPAXI@Z 100a1600 f i GuSweepsHF.obj
 0001:000a0630       ??_GConvexTraceSegmentReport@@UAEPAXI@Z 100a1630 f i GuSweepsHF.obj
 0001:000a0630       ??_EConvexTraceSegmentReport@@UAEPAXI@Z 100a1630 f i GuSweepsHF.obj
 0001:000a0660       ??_EHeightFieldTraceSegmentReport@@UAEPAXI@Z 100a1660 f i GuSweepsHF.obj
 0001:000a0660       ??_GHeightFieldTraceSegmentReport@@UAEPAXI@Z 100a1660 f i GuSweepsHF.obj
 0001:000a0690       ?finalizeHit@ConvexTraceSegmentReport@@QAE_NAAUPxSweepHit@physx@@ABVPxHeightFieldGeometry@3@ABVPxTransform@3@ABVPxConvexMeshGeometry@3@2ABVPxVec3@3@M@Z 100a1690 f i GuSweepsHF.obj
 0001:000a0890       ?onEvent@BoxTraceSegmentReport@@UAE_NIPAI@Z 100a1890 f i GuSweepsHF.obj
 0001:000a0d10       ?onEvent@CapsuleTraceSegmentReport@@UAE_NIPAI@Z 100a1d10 f i GuSweepsHF.obj
 0001:000a0e90       ?onEvent@ConvexTraceSegmentReport@@UAE_NIPAI@Z 100a1e90 f i GuSweepsHF.obj
 0001:000a1450       ?prepare@?$OverlapTraceSegment@VConvexTraceSegmentReport@@@HeightFieldTraceUtil@Gu@physx@@QAEXABVPxVec3@4@00AAM1@Z 100a2450 f i GuSweepsHF.obj
 0001:000a1450       ?prepare@?$OverlapTraceSegment@VCapsuleTraceSegmentReport@@@HeightFieldTraceUtil@Gu@physx@@QAEXABVPxVec3@4@00AAM1@Z 100a2450 f i GuSweepsHF.obj
 0001:000a1450       ?prepare@?$OverlapTraceSegment@VBoxTraceSegmentReport@@@HeightFieldTraceUtil@Gu@physx@@QAEXABVPxVec3@4@00AAM1@Z 100a2450 f i GuSweepsHF.obj
 0001:000a1720       ?sweepBox_HeightFieldGeom@@YA_NABVPxGeometry@physx@@ABVPxTransform@2@ABVPxBoxGeometry@2@1ABVBox@Gu@2@ABVPxVec3@2@MAAUPxSweepHit@2@V?$PxFlags@W4Enum@PxHitFlag@physx@@G@2@M@Z 100a2720 f   GuSweepsHF.obj
 0001:000a2660       ?sweepCapsule_HeightFieldGeom@@YA_NABVPxGeometry@physx@@ABVPxTransform@2@ABVPxCapsuleGeometry@2@1ABVCapsule@Gu@2@ABVPxVec3@2@MAAUPxSweepHit@2@V?$PxFlags@W4Enum@PxHitFlag@physx@@G@2@M@Z 100a3660 f   GuSweepsHF.obj
 0001:000a3040       ?sweepConvex_HeightFieldGeom@@YA_NABVPxGeometry@physx@@ABVPxTransform@2@ABVPxConvexMeshGeometry@2@1ABVPxVec3@2@MAAUPxSweepHit@2@V?$PxFlags@W4Enum@PxHitFlag@physx@@G@2@M@Z 100a4040 f   GuSweepsHF.obj
 0001:000a3b20       ?testVertexIndex@?$OverlapTraceSegment@VConvexTraceSegmentReport@@@HeightFieldTraceUtil@Gu@physx@@QAE_NI@Z 100a4b20 f i GuSweepsHF.obj
 0001:000a3b20       ?testVertexIndex@?$OverlapTraceSegment@VCapsuleTraceSegmentReport@@@HeightFieldTraceUtil@Gu@physx@@QAE_NI@Z 100a4b20 f i GuSweepsHF.obj
 0001:000a3b20       ?testVertexIndex@?$OverlapTraceSegment@VBoxTraceSegmentReport@@@HeightFieldTraceUtil@Gu@physx@@QAE_NI@Z 100a4b20 f i GuSweepsHF.obj
 0001:000a3c40       ?visitCells@?$OverlapTraceSegment@VBoxTraceSegmentReport@@@HeightFieldTraceUtil@Gu@physx@@QAE_NABUOverlapRectangle@1234@@Z 100a4c40 f i GuSweepsHF.obj
 0001:000a3c40       ?visitCells@?$OverlapTraceSegment@VConvexTraceSegmentReport@@@HeightFieldTraceUtil@Gu@physx@@QAE_NABUOverlapRectangle@1234@@Z 100a4c40 f i GuSweepsHF.obj
 0001:000a3c40       ?visitCells@?$OverlapTraceSegment@VCapsuleTraceSegmentReport@@@HeightFieldTraceUtil@Gu@physx@@QAE_NABUOverlapRectangle@1234@@Z 100a4c40 f i GuSweepsHF.obj
 0001:000a3e00       ?intersectOBBOBB@Gu@physx@@YA_NABVPxVec3@2@0ABVPxMat33@2@001_N@Z 100a4e00 f   GuIntersectionBoxBox.obj
 0001:000a4740       ?intersectCapsuleTriangle@Gu@physx@@YA_NABVPxVec3@2@000ABVCapsule@12@ABUCapsuleTriangleOverlapData@12@@Z 100a5740 f   GuIntersectionCapsuleTriangle.obj
 0001:000a5310       ?intersectEdgeEdge@Gu@physx@@YA_NABVPxVec3@2@0000AAMAAV32@@Z 100a6310 f   GuIntersectionEdgeEdge.obj
 0001:000a5620       ?intersectRayAABB2@Gu@physx@@YA_NABT__m128@@0000AAT3@1@Z 100a6620 f   GuIntersectionRayBox.obj
 0001:000a56f0       ?intersectRayAABB2@Gu@physx@@YA_NABVPxVec3@2@000MAAM1@Z 100a66f0 f   GuIntersectionRayBox.obj
 0001:000a5880       ?intersectRayAABB@Gu@physx@@YAHABVPxVec3@2@000AAM1@Z 100a6880 f   GuIntersectionRayBox.obj
 0001:000a5990       ?rayAABBIntersect2@Gu@physx@@YAIABVPxVec3@2@000AAV32@AAM@Z 100a6990 f   GuIntersectionRayBox.obj
 0001:000a5b30       ?intersectRayCapsuleInternal@Gu@physx@@YAIABVPxVec3@2@000MQAM@Z 100a6b30 f   GuIntersectionRayCapsule.obj
 0001:000a63b0       ?intersectRaySphere@Gu@physx@@YA_NABVPxVec3@2@0M0MAAMPAV32@@Z 100a73b0 f   GuIntersectionRaySphere.obj
 0001:000a65b0       ?intersectRaySphereBasic@Gu@physx@@YA_NABVPxVec3@2@0M0MAAMPAV32@@Z 100a75b0 f   GuIntersectionRaySphere.obj
 0001:000a66d0       ?intersectSphereBox@Gu@physx@@YA_NABVSphere@12@ABVBox@12@@Z 100a76d0 f   GuIntersectionSphereBox.obj
 0001:000a6880       ?intersectTriangleBox@Gu@physx@@YAHABVBoxPadded@12@ABVPxVec3@2@11@Z 100a7880 f   GuIntersectionTriangleBox.obj
 0001:000a6dc0       ?intersectTriangleBoxBV4@@YAHABVPxVec3@physx@@00ABVPxMat33@2@00@Z 100a7dc0 f   GuIntersectionTriangleBox.obj
 0001:000a71f0       ?intersectTriangleBox_ReferenceCode@Gu@physx@@YAHABVPxVec3@2@0000@Z 100a81f0 f   GuIntersectionTriangleBox.obj
 0001:000a7af0       ?intersectTriangleBox_Unsafe@Gu@physx@@YAHABVPxVec3@2@0000@Z 100a8af0 f   GuIntersectionTriangleBox.obj
 0001:000a7ed0       ??0BV4Tree@Gu@physx@@QAE@PAVSourceMesh@12@ABVPxBounds3@2@@Z 100a8ed0 f   GuBV4.obj
 0001:000a7fd0       ??0BV4Tree@Gu@physx@@QAE@W4PxEMPTY@2@@Z 100a8fd0 f   GuBV4.obj
 0001:000a7fe0       ??0BV4Tree@Gu@physx@@QAE@XZ 100a8fe0 f   GuBV4.obj
 0001:000a8050       ??0SourceMesh@Gu@physx@@QAE@XZ 100a9050 f   GuBV4.obj
 0001:000a8080       ??0SourceMeshBase@Gu@physx@@QAE@XZ 100a9080 f   GuBV4.obj
 0001:000a8080       ??0AABBTree@Gu@physx@@QAE@XZ 100a9080 f   GuBV4Build.obj
 0001:000a80a0       ??1BV4Tree@Gu@physx@@QAE@XZ 100a90a0 f   GuBV4.obj
 0001:000a80b0       ??1SourceMeshBase@Gu@physx@@QAE@XZ 100a90b0 f   GuBV4.obj
 0001:000a80b0       ??1SourceMesh@Gu@physx@@QAE@XZ 100a90b0 f   GuBV4.obj
 0001:000a80e0       ??4BV4Tree@Gu@physx@@QAEXAAV012@@Z 100a90e0 f   GuBV4.obj
 0001:000a81a0       ??4SourceMesh@Gu@physx@@QAEXAAV012@@Z 100a91a0 f   GuBV4.obj
 0001:000a8200       ?exportExtraData@BV4Tree@Gu@physx@@QAEXAAVPxSerializationContext@3@@Z 100a9200 f   GuBV4.obj
 0001:000a8230       ?importExtraData@BV4Tree@Gu@physx@@QAEXAAVPxDeserializationContext@3@@Z 100a9230 f   GuBV4.obj
 0001:000a8260       ?init@BV32Tree@Gu@physx@@QAE_NPAVSourceMesh@23@ABVPxBounds3@3@@Z 100a9260 f   GuBV32.obj
 0001:000a8260       ?init@BV4Tree@Gu@physx@@QAE_NPAVSourceMesh@23@ABVPxBounds3@3@@Z 100a9260 f   GuBV4.obj
 0001:000a8300       ?load@BV4Tree@Gu@physx@@QAE_NAAVPxInputStream@3@_N@Z 100a9300 f   GuBV4.obj
 0001:000a84a0       ?release@BV4Tree@Gu@physx@@QAEXXZ 100a94a0 f   GuBV4.obj
 0001:000a8510       ?remapTopology@SourceMesh@Gu@physx@@QAEXPBI@Z 100a9510 f   GuBV4.obj
 0001:000a8730       ??0BVData@@QAE@XZ          100a9730 f   GuBV4Build.obj
 0001:000a8770       ??1AABBTree@Gu@physx@@QAE@XZ 100a9770 f   GuBV4Build.obj
 0001:000a8780       ?BuildBV4Ex@Gu@physx@@YA_NAAVBV4Tree@12@AAVSourceMesh@12@MI@Z 100a9780 f   GuBV4Build.obj
 0001:000a9860       ?allocateNode@BV4BuildParams@@QAEPAUBV4Node@@XZ 100aa860 f   GuBV4Build.obj
 0001:000a9930       ?buildFromMesh@AABBTree@Gu@physx@@QAE_NAAVSourceMesh@23@I@Z 100aa930 f   GuBV4Build.obj
 0001:000aa3b0       ?release@AABBTree@Gu@physx@@QAEXXZ 100ab3b0 f   GuBV4Build.obj
 0001:000aa640       ?walk@AABBTree@Gu@physx@@QBEIP6A_NPBVAABBTreeNode@23@IPAX@Z1@Z 100ab640 f   GuBV4Build.obj
 0001:000ac940       ?GenericSweep_AABB_CB@@YAXABVBox@Gu@physx@@ABVPxVec3@3@MABVBV4Tree@23@P6A_NPAX111IAAM@Z3I@Z 100ad940 f   GuBV4_AABBSweep.obj
 0001:000aca50       ?Sweep_AABB_BV4@@YAHABVBox@Gu@physx@@ABVPxVec3@3@MABVBV4Tree@23@PIAVSweepHit@23@I@Z 100ada50 f   GuBV4_AABBSweep.obj
 0001:000b11f0       ?BV4_OverlapBoxAll@@YAIABVBox@Gu@physx@@ABVBV4Tree@23@PIBVPxMat44@3@PAIIAA_N@Z 100b21f0 f   GuBV4_BoxOverlap.obj
 0001:000b1a40       ?BV4_OverlapBoxAny@@YAHABVBox@Gu@physx@@ABVBV4Tree@23@PIBVPxMat44@3@@Z 100b2a40 f   GuBV4_BoxOverlap.obj
 0001:000b2260       ?BV4_OverlapBoxCB@@YAXABVBox@Gu@physx@@ABVBV4Tree@23@P6A_NPAXABVPxVec3@3@33IPBI@Z2@Z 100b3260 f   GuBV4_BoxOverlap.obj
 0001:000b2730       ?BV4_OverlapCapsuleAll@@YAIABVCapsule@Gu@physx@@ABVBV4Tree@23@PIBVPxMat44@3@PAIIAA_N@Z 100b3730 f   GuBV4_BoxOverlap.obj
 0001:000b2f20       ?BV4_OverlapCapsuleAny@@YAHABVCapsule@Gu@physx@@ABVBV4Tree@23@PIBVPxMat44@3@@Z 100b3f20 f   GuBV4_BoxOverlap.obj
 0001:000b5320       ?BV4_CapsuleSweepSingle@@YAHABVCapsule@Gu@physx@@ABVPxVec3@3@MABVBV4Tree@23@PIAVSweepHit@23@I@Z 100b6320 f   GuBV4_CapsuleSweep.obj
 0001:000b87d0       ?BV4_CapsuleSweepSingleAA@@YAHABVCapsule@Gu@physx@@ABVPxVec3@3@MABVBV4Tree@23@PIAVSweepHit@23@I@Z 100b97d0 f   GuBV4_CapsuleSweepAA.obj
 0001:000bd570       ?BV4_BoxSweepSingle@@YAHABVBox@Gu@physx@@ABVPxVec3@3@MABVBV4Tree@23@PIBVPxMat44@3@PIAVSweepHit@23@I@Z 100be570 f   GuBV4_OBBSweep.obj
 0001:000bdbf0       ?BV4_GenericSweepCB@@YAXABVBox@Gu@physx@@ABVPxVec3@3@MABVBV4Tree@23@P6A_NPAX111IAAM@Z3_N@Z 100bebf0 f   GuBV4_OBBSweep.obj
 0001:000bddd0       ?Sweep_OBB_BV4@@YAHABVBox@Gu@physx@@ABVPxVec3@3@MABVBV4Tree@23@PIAVSweepHit@23@I@Z 100bedd0 f   GuBV4_OBBSweep.obj
 0001:000bfd90       ?BV4_RaycastCB@@YAXABVPxVec3@physx@@0ABVBV4Tree@Gu@2@PIBVPxMat44@2@MMIP6A?AW4HitCode@42@PAX000IMMM@Z3@Z 100c0d90 f   GuBV4_Raycast.obj
 0001:000c00e0       ?BV4_RaycastSingle@@YAHABVPxVec3@physx@@0ABVBV4Tree@Gu@2@PIBVPxMat44@2@PIAUPxRaycastHit@2@MMIV?$PxFlags@W4Enum@PxHitFlag@physx@@G@2@@Z 100c10e0 f   GuBV4_Raycast.obj
 0001:000c1e50       ?BV4_OverlapSphereAll@@YAIABVSphere@Gu@physx@@ABVBV4Tree@23@PIBVPxMat44@3@PAIIAA_N@Z 100c2e50 f   GuBV4_SphereOverlap.obj
 0001:000c20c0       ?BV4_OverlapSphereAny@@YAHABVSphere@Gu@physx@@ABVBV4Tree@23@PIBVPxMat44@3@@Z 100c30c0 f   GuBV4_SphereOverlap.obj
 0001:000c3eb0       ?BV4_GenericSweepCB_Old@@YAXABVPxVec3@physx@@00MABVBV4Tree@Gu@2@PIBVPxMat44@2@P6A_NPAX000IAAM@Z3@Z 100c4eb0 f   GuBV4_SphereSweep.obj
 0001:000c4220       ?BV4_SphereSweepSingle@@YAHABVSphere@Gu@physx@@ABVPxVec3@3@MABVBV4Tree@23@PIBVPxMat44@3@PIAVSweepHit@23@I@Z 100c5220 f   GuBV4_SphereSweep.obj
 0001:000c5360       ?computeSweepData@physx@@YAMABVPxTriangleMeshGeometry@1@AAVPxVec3@1@11M@Z 100c6360 f i GuMidphaseBV4.obj
 0001:000c6700       ?intersectBoxVsMesh_BV4@Gu@physx@@YA_NABVBox@12@ABVTriangleMesh@12@ABVPxTransform@2@ABVPxMeshScale@2@PAULimitedResults@12@@Z 100c7700 f   GuMidphaseBV4.obj
 0001:000c72d0       ?intersectCapsuleVsMesh_BV4@Gu@physx@@YA_NABVCapsule@12@ABVTriangleMesh@12@ABVPxTransform@2@ABVPxMeshScale@2@PAULimitedResults@12@@Z 100c82d0 f   GuMidphaseBV4.obj
 0001:000c7b70       ?intersectOBB_BV4@Gu@physx@@YAXPBVTriangleMesh@12@ABVBox@12@AAU?$MeshHitCallback@UPxRaycastHit@physx@@@12@_N3@Z 100c8b70 f   GuMidphaseBV4.obj
 0001:000c7b90       ?intersectSphereVsMesh_BV4@Gu@physx@@YA_NABVSphere@12@ABVTriangleMesh@12@ABVPxTransform@2@ABVPxMeshScale@2@PAULimitedResults@12@@Z 100c8b90 f   GuMidphaseBV4.obj
 0001:000c8330       ?raycast_triangleMesh_BV4@Gu@physx@@YAIPBVTriangleMesh@12@ABVPxTriangleMeshGeometry@2@ABVPxTransform@2@ABVPxVec3@2@3MV?$PxFlags@W4Enum@PxHitFlag@physx@@G@2@IPIAUPxRaycastHit@2@@Z 100c9330 f   GuMidphaseBV4.obj
 0001:000c9110       ?sweepBox_MeshGeom_BV4@Gu@physx@@YA_NPBVTriangleMesh@12@ABVPxTriangleMeshGeometry@2@ABVPxTransform@2@ABVBox@12@ABVPxVec3@2@MAAUPxSweepHit@2@V?$PxFlags@W4Enum@PxHitFlag@physx@@G@2@M@Z 100ca110 f   GuMidphaseBV4.obj
 0001:000cab50       ?sweepCapsule_MeshGeom_BV4@Gu@physx@@YA_NPBVTriangleMesh@12@ABVPxTriangleMeshGeometry@2@ABVPxTransform@2@ABVCapsule@12@ABVPxVec3@2@MAAUPxSweepHit@2@V?$PxFlags@W4Enum@PxHitFlag@physx@@G@2@M@Z 100cbb50 f   GuMidphaseBV4.obj
 0001:000cb740       ?sweepConvex_MeshGeom_BV4@Gu@physx@@YAXPBVTriangleMesh@12@ABVBox@12@ABVPxVec3@2@MAAUSweepConvexMeshHitCallback@12@_N@Z 100cc740 f   GuMidphaseBV4.obj
 0001:000cb780       ?transform@PxMeshScale@physx@@QBE?AVPxVec3@2@ABV32@@Z 100cc780 f i GuMidphaseBV4.obj
 0001:000cb970       ?findOverlapHeightField@PxMeshQuery@physx@@SAIABVPxGeometry@2@ABVPxTransform@2@ABVPxHeightFieldGeometry@2@1PAIIIAA_N@Z 100cc970 f   GuMeshQuery.obj
 0001:000cc030       ?findOverlapTriangleMesh@PxMeshQuery@physx@@SAIABVPxGeometry@2@ABVPxTransform@2@ABVPxTriangleMeshGeometry@2@1PAIIIAA_N@Z 100cd030 f   GuMeshQuery.obj
 0001:000cc310       ?getTriangle@PxMeshQuery@physx@@SAXABVPxHeightFieldGeometry@2@ABVPxTransform@2@IAAVPxTriangle@2@PAI3@Z 100cd310 f   GuMeshQuery.obj
 0001:000cc380       ?getTriangle@PxMeshQuery@physx@@SAXABVPxTriangleMeshGeometry@2@ABVPxTransform@2@IAAVPxTriangle@2@PAI3@Z 100cd380 f   GuMeshQuery.obj
 0001:000cc7e0       ?sweep@PxMeshQuery@physx@@SA_NABVPxVec3@2@MABVPxGeometry@2@ABVPxTransform@2@IPBVPxTriangle@2@AAUPxSweepHit@2@V?$PxFlags@W4Enum@PxHitFlag@physx@@G@2@PBIM_N@Z 100cd7e0 f   GuMeshQuery.obj
 0001:000cc950       ??$collide@$00$00@MeshRayCollider@@SAXABVPxVec3@physx@@0M_NPBVRTreeTriangleMesh@Gu@2@AAU?$MeshHitCallback@UPxRaycastHit@physx@@@42@PBV12@@Z 100cd950 f i GuMidphaseRTree.obj
 0001:000ccc00       ??$collide@$00$0A@@MeshRayCollider@@SAXABVPxVec3@physx@@0M_NPBVRTreeTriangleMesh@Gu@2@AAU?$MeshHitCallback@UPxRaycastHit@physx@@@42@PBV12@@Z 100cdc00 f i GuMidphaseRTree.obj
 0001:000ccd60       ??$collide@$0A@$00@MeshRayCollider@@SAXABVPxVec3@physx@@0M_NPBVRTreeTriangleMesh@Gu@2@AAU?$MeshHitCallback@UPxRaycastHit@physx@@@42@PBV12@@Z 100cdd60 f i GuMidphaseRTree.obj
 0001:000cf410       ??0?$RayRTreeCallback@$00$0A@@@QAE@MAAU?$MeshHitCallback@UPxRaycastHit@physx@@@Gu@physx@@HPBXPBVPxVec3@3@ABV43@3M_N2@Z 100d0410 f i GuMidphaseRTree.obj
 0001:000cf530       ??0?$RayRTreeCallback@$0A@$0A@@@QAE@MAAU?$MeshHitCallback@UPxRaycastHit@physx@@@Gu@physx@@HPBXPBVPxVec3@3@ABV43@3M_N2@Z 100d0530 f i GuMidphaseRTree.obj
 0001:000cf640       ??1?$RayRTreeCallback@$00$0A@@@UAE@XZ 100d0640 f i GuMidphaseRTree.obj
 0001:000cf640       ??1?$RayRTreeCallback@$0A@$0A@@@UAE@XZ 100d0640 f i GuMidphaseRTree.obj
 0001:000cf6a0       ??4PxRaycastHit@physx@@QAEAAU01@ABU01@@Z 100d06a0 f i GuMidphaseRTree.obj
 0001:000cf707       ??_E?$RayRTreeCallback@$00$00@@W3AEPAXI@Z 100d0707 f i GuMidphaseRTree.obj
 0001:000cf70f       ??_E?$RayRTreeCallback@$0A@$0A@@@W3AEPAXI@Z 100d070f f i GuMidphaseRTree.obj
 0001:000cf70f       ??_E?$RayRTreeCallback@$00$0A@@@W3AEPAXI@Z 100d070f f i GuMidphaseRTree.obj
 0001:000cf717       ??_E?$RayRTreeCallback@$0A@$00@@W3AEPAXI@Z 100d0717 f i GuMidphaseRTree.obj
 0001:000cf7b0       ??_E?$RayRTreeCallback@$00$00@@UAEPAXI@Z 100d07b0 f i GuMidphaseRTree.obj
 0001:000cf7b0       ??_G?$RayRTreeCallback@$00$00@@UAEPAXI@Z 100d07b0 f i GuMidphaseRTree.obj
 0001:000cf820       ??_E?$RayRTreeCallback@$0A@$0A@@@UAEPAXI@Z 100d0820 f i GuMidphaseRTree.obj
 0001:000cf820       ??_E?$RayRTreeCallback@$00$0A@@@UAEPAXI@Z 100d0820 f i GuMidphaseRTree.obj
 0001:000cf820       ??_G?$RayRTreeCallback@$00$0A@@@UAEPAXI@Z 100d0820 f i GuMidphaseRTree.obj
 0001:000cf820       ??_G?$RayRTreeCallback@$0A@$0A@@@UAEPAXI@Z 100d0820 f i GuMidphaseRTree.obj
 0001:000cf890       ??_G?$RayRTreeCallback@$0A@$00@@UAEPAXI@Z 100d0890 f i GuMidphaseRTree.obj
 0001:000cf890       ??_E?$RayRTreeCallback@$0A@$00@@UAEPAXI@Z 100d0890 f i GuMidphaseRTree.obj
 0001:000cf900       ??_GCallback@RTree@Gu@physx@@UAEPAXI@Z 100d0900 f i GuMidphaseRTree.obj
 0001:000cf900       ??_ECallback@RTree@Gu@physx@@UAEPAXI@Z 100d0900 f i GuMidphaseRTree.obj
 0001:000cf930       ??_GCallbackRefit@RTree@Gu@physx@@UAEPAXI@Z 100d0930 f i GuTriangleMeshRTree.obj
 0001:000cf930       ??_ECallbackRaycast@RTree@Gu@physx@@UAEPAXI@Z 100d0930 f i GuMidphaseRTree.obj
 0001:000cf930       ??_ECallbackRefit@RTree@Gu@physx@@UAEPAXI@Z 100d0930 f i GuTriangleMeshRTree.obj
 0001:000cf930       ??_GCallbackRaycast@RTree@Gu@physx@@UAEPAXI@Z 100d0930 f i GuMidphaseRTree.obj
 0001:000cf960       ?collideOBB@MeshRayCollider@@SAXABVBox@Gu@physx@@_NPBVRTreeTriangleMesh@34@AAU?$MeshHitCallback@UPxRaycastHit@physx@@@34@1@Z 100d0960 f   GuMidphaseRTree.obj
 0001:000cfd70       ?intersectBoxVsMesh_RTREE@Gu@physx@@YA_NABVBox@12@ABVTriangleMesh@12@ABVPxTransform@2@ABVPxMeshScale@2@PAULimitedResults@12@@Z 100d0d70 f   GuMidphaseRTree.obj
 0001:000cfdf0       ?intersectCapsuleVsMesh_RTREE@Gu@physx@@YA_NABVCapsule@12@ABVTriangleMesh@12@ABVPxTransform@2@ABVPxMeshScale@2@PAULimitedResults@12@@Z 100d0df0 f   GuMidphaseRTree.obj
 0001:000cfe70       ?intersectOBB_RTREE@Gu@physx@@YAXPBVTriangleMesh@12@ABVBox@12@AAU?$MeshHitCallback@UPxRaycastHit@physx@@@12@_N3@Z 100d0e70 f   GuMidphaseRTree.obj
 0001:000cfe90       ?intersectSphereVsMesh_RTREE@Gu@physx@@YA_NABVSphere@12@ABVTriangleMesh@12@ABVPxTransform@2@ABVPxMeshScale@2@PAULimitedResults@12@@Z 100d0e90 f   GuMidphaseRTree.obj
 0001:000d0b00       ?processHit@RayMeshColliderCallback@@UAE_NABUPxRaycastHit@physx@@ABVPxVec3@3@11AAMPBI@Z 100d1b00 f i GuMidphaseRTree.obj
 0001:000d11f0       ?processResults@?$RayRTreeCallback@$00$00@@UAE_NIPAI@Z 100d21f0 f i GuMidphaseRTree.obj
 0001:000d15d0       ?processResults@?$RayRTreeCallback@$00$00@@UAE_NIPAIAAM@Z 100d25d0 f i GuMidphaseRTree.obj
 0001:000d19a0       ?processResults@?$RayRTreeCallback@$0A@$0A@@@UAE_NIPAI@Z 100d29a0 f i GuMidphaseRTree.obj
 0001:000d19a0       ?processResults@?$RayRTreeCallback@$00$0A@@@UAE_NIPAI@Z 100d29a0 f i GuMidphaseRTree.obj
 0001:000d1cd0       ?processResults@?$RayRTreeCallback@$0A@$0A@@@UAE_NIPAIAAM@Z 100d2cd0 f i GuMidphaseRTree.obj
 0001:000d1cd0       ?processResults@?$RayRTreeCallback@$00$0A@@@UAE_NIPAIAAM@Z 100d2cd0 f i GuMidphaseRTree.obj
 0001:000d1fe0       ?processResults@?$RayRTreeCallback@$0A@$00@@UAE_NIPAI@Z 100d2fe0 f i GuMidphaseRTree.obj
 0001:000d2710       ?processResults@?$RayRTreeCallback@$0A@$00@@UAE_NIPAIAAM@Z 100d3710 f i GuMidphaseRTree.obj
 0001:000d2e20       ?raycast_triangleMesh_RTREE@Gu@physx@@YAIPBVTriangleMesh@12@ABVPxTriangleMeshGeometry@2@ABVPxTransform@2@ABVPxVec3@2@3MV?$PxFlags@W4Enum@PxHitFlag@physx@@G@2@IPIAUPxRaycastHit@2@@Z 100d3e20 f   GuMidphaseRTree.obj
 0001:000d3680       ?sweepBox_MeshGeom_RTREE@Gu@physx@@YA_NPBVTriangleMesh@12@ABVPxTriangleMeshGeometry@2@ABVPxTransform@2@ABVBox@12@ABVPxVec3@2@MAAUPxSweepHit@2@V?$PxFlags@W4Enum@PxHitFlag@physx@@G@2@M@Z 100d4680 f   GuMidphaseRTree.obj
 0001:000d4e60       ?sweepCapsule_MeshGeom_RTREE@Gu@physx@@YA_NPBVTriangleMesh@12@ABVPxTriangleMeshGeometry@2@ABVPxTransform@2@ABVCapsule@12@ABVPxVec3@2@MAAUPxSweepHit@2@V?$PxFlags@W4Enum@PxHitFlag@physx@@G@2@M@Z 100d5e60 f   GuMidphaseRTree.obj
 0001:000d5780       ?sweepConvex_MeshGeom_RTREE@Gu@physx@@YAXPBVTriangleMesh@12@ABVBox@12@ABVPxVec3@2@MAAUSweepConvexMeshHitCallback@12@_N@Z 100d6780 f   GuMidphaseRTree.obj
 0001:000d57e0       ??$gjk@U?$RelativeConvex@VTriangleV@Gu@physx@@@Gu@physx@@U?$LocalConvex@VConvexHullV@Gu@physx@@@23@@Gu@physx@@YA?AW4GjkStatus@01@ABU?$RelativeConvex@VTriangleV@Gu@physx@@@01@ABU?$LocalConvex@VConvexHullV@Gu@physx@@@01@ABT__m128@@2AAT5@333@Z 100d67e0 f i GuOverlapTestsMesh.obj
 0001:000d68c0       ??0ConvexVsMeshOverlapCallback@@QAE@ABVConvexMesh@Gu@physx@@ABVPxMeshScale@3@ABVFastVertex2ShapeScaling@Cm@3@ABVPxTransform@3@3_NABVBox@23@@Z 100d78c0 f i GuOverlapTestsMesh.obj
 0001:000d7200       ??_EConvexVsMeshOverlapCallback@@UAEPAXI@Z 100d8200 f i GuOverlapTestsMesh.obj
 0001:000d7200       ??_GConvexVsMeshOverlapCallback@@UAEPAXI@Z 100d8200 f i GuOverlapTestsMesh.obj
 0001:000d7230       ?GeomOverlapCallback_BoxMesh@@YA_NABVPxGeometry@physx@@ABVPxTransform@2@01PAUTriggerCache@Gu@2@@Z 100d8230 f   GuOverlapTestsMesh.obj
 0001:000d7330       ?GeomOverlapCallback_CapsuleMesh@@YA_NABVPxGeometry@physx@@ABVPxTransform@2@01PAUTriggerCache@Gu@2@@Z 100d8330 f   GuOverlapTestsMesh.obj
 0001:000d7430       ?GeomOverlapCallback_ConvexMesh@@YA_NABVPxGeometry@physx@@ABVPxTransform@2@01PAUTriggerCache@Gu@2@@Z 100d8430 f   GuOverlapTestsMesh.obj
 0001:000d7a40       ?GeomOverlapCallback_SphereMesh@@YA_NABVPxGeometry@physx@@ABVPxTransform@2@01PAUTriggerCache@Gu@2@@Z 100d8a40 f   GuOverlapTestsMesh.obj
 0001:000d7aa0       ?checkOverlapAABB_triangleGeom@Gu@physx@@YA_NABVPxGeometry@2@ABVPxTransform@2@ABVPxBounds3@2@@Z 100d8aa0 f   GuOverlapTestsMesh.obj
 0001:000d7b70       ?processHit@ConvexVsMeshOverlapCallback@@UAE_NABUPxRaycastHit@physx@@ABVPxVec3@3@11AAMPBI@Z 100d8b70 f i GuOverlapTestsMesh.obj
 0001:000d7f30       ??0RTree@Gu@physx@@QAE@W4PxEMPTY@2@@Z 100d8f30 f   GuRTree.obj
 0001:000d7f40       ?exportExtraData@RTree@Gu@physx@@QAEXAAVPxSerializationContext@3@@Z 100d8f40 f   GuRTree.obj
 0001:000d7f70       ?importExtraData@RTree@Gu@physx@@QAEXAAVPxDeserializationContext@3@@Z 100d8f70 f   GuRTree.obj
 0001:000d7fa0       ?load@RTree@Gu@physx@@QAE_NAAVPxInputStream@3@I_N@Z 100d8fa0 f   GuRTree.obj
 0001:000d81f0       ?refitAllStaticTree@RTree@Gu@physx@@QAEXAAUCallbackRefit@123@PAVPxBounds3@3@@Z 100d91f0 f   GuRTree.obj
 0001:000d84c0       ?validate@RTree@Gu@physx@@QAEXPAUCallbackRefit@123@@Z 100d94c0 f   GuRTree.obj
 0001:000d85c0       ?validateRecursive@RTree@Gu@physx@@IAEXIURTreeNodeQ@23@PAURTreePage@23@PAUCallbackRefit@123@@Z 100d95c0 f   GuRTree.obj
 0001:000d86d0       ??$traverseRay@$00@RTree@Gu@physx@@QBEXABVPxVec3@2@0IPAIPAUCallbackRaycast@012@PBV32@M@Z 100d96d0 f i GuRTreeQueries.obj
 0001:000d89f0       ??$traverseRay@$0A@@RTree@Gu@physx@@QBEXABVPxVec3@2@0IPAIPAUCallbackRaycast@012@PBV32@M@Z 100d99f0 f i GuRTreeQueries.obj
 0001:000d8ca0       ?traverseAABB@RTree@Gu@physx@@QBEXABVPxVec3@3@0IPAIPAUCallback@123@@Z 100d9ca0 f   GuRTreeQueries.obj
 0001:000d8e50       ?traverseOBB@RTree@Gu@physx@@QBEXABVBox@23@IPAIPAUCallback@123@@Z 100d9e50 f   GuRTreeQueries.obj
 0001:000d97f0       ??0SweepBoxMeshHitCallback@Gu@physx@@QAE@W4Enum@CallbackMode@12@ABVMatrix34Padded@12@M_NABVBox@12@ABVPxVec3@2@44ABV?$PxFlags@W4Enum@PxHitFlag@physx@@G@2@M2M@Z 100da7f0 f   GuSweepsMesh.obj
 0001:000d9900       ??0SweepCapsuleMeshHitCallback@Gu@physx@@QAE@AAUPxSweepHit@2@ABVMatrix34@Cm@2@M_NABVCapsule@12@ABVPxVec3@2@ABV?$PxFlags@W4Enum@PxHitFlag@physx@@G@2@2M@Z 100da900 f   GuSweepsMesh.obj
 0001:000d99d0       ??0SweepConvexMeshHitCallback@Gu@physx@@QAE@ABUConvexHullData@12@ABVPxMeshScale@2@ABVFastVertex2ShapeScaling@Cm@2@ABVPxTransform@2@3ABVPxVec3@2@MV?$PxFlags@W4Enum@PxHitFlag@physx@@G@2@_NM6M@Z 100da9d0 f   GuSweepsMesh.obj
 0001:000da3b0       ??_ESweepBoxMeshHitCallback@Gu@physx@@UAEPAXI@Z 100db3b0 f i GuSweepsMesh.obj
 0001:000da3b0       ??_GSweepBoxMeshHitCallback@Gu@physx@@UAEPAXI@Z 100db3b0 f i GuSweepsMesh.obj
 0001:000da3e0       ??_ESweepCapsuleMeshHitCallback@Gu@physx@@UAEPAXI@Z 100db3e0 f i GuSweepsMesh.obj
 0001:000da3e0       ??_GSweepCapsuleMeshHitCallback@Gu@physx@@UAEPAXI@Z 100db3e0 f i GuSweepsMesh.obj
 0001:000da410       ??_ESweepConvexMeshHitCallback@Gu@physx@@UAEPAXI@Z 100db410 f i GuSweepsMesh.obj
 0001:000da410       ??_GSweepConvexMeshHitCallback@Gu@physx@@UAEPAXI@Z 100db410 f i GuSweepsMesh.obj
 0001:000da440       ??_GSweepShapeMeshHitCallback@Gu@physx@@UAEPAXI@Z 100db440 f i GuSweepsMesh.obj
 0001:000da440       ??_ESweepShapeMeshHitCallback@Gu@physx@@UAEPAXI@Z 100db440 f i GuSweepsMesh.obj
 0001:000da470       ?finalizeHit@SweepBoxMeshHitCallback@Gu@physx@@QBE_NAAUPxSweepHit@3@ABVPxTriangleMeshGeometry@3@ABVPxTransform@3@2ABVPxVec3@3@_N4@Z 100db470 f   GuSweepsMesh.obj
 0001:000daac0       ?finalizeHit@SweepCapsuleMeshHitCallback@Gu@physx@@QBE_NAAUPxSweepHit@3@ABVCapsule@23@ABVPxTriangleMeshGeometry@3@ABVPxTransform@3@_N@Z 100dbac0 f   GuSweepsMesh.obj
 0001:000dac60       ?finalizeHit@SweepConvexMeshHitCallback@Gu@physx@@QAE_NAAUPxSweepHit@3@ABVPxTriangleMeshGeometry@3@ABVPxTransform@3@ABVPxConvexMeshGeometry@3@2ABVPxVec3@3@M_N555@Z 100dbc60 f   GuSweepsMesh.obj
 0001:000db0a0       ?processHit@SweepBoxMeshHitCallback@Gu@physx@@UAE_NABUPxRaycastHit@3@ABVPxVec3@3@11AAMPBI@Z 100dc0a0 f   GuSweepsMesh.obj
 0001:000db870       ?processHit@SweepCapsuleMeshHitCallback@Gu@physx@@UAE_NABUPxRaycastHit@3@ABVPxVec3@3@11AAMPBI@Z 100dc870 f   GuSweepsMesh.obj
 0001:000dbcd0       ?processHit@SweepConvexMeshHitCallback@Gu@physx@@UAE_NABUPxRaycastHit@3@ABVPxVec3@3@11AAMPBI@Z 100dccd0 f   GuSweepsMesh.obj
 0001:000dc440       ?sweepBox_MeshGeom@@YA_NABVPxGeometry@physx@@ABVPxTransform@2@ABVPxBoxGeometry@2@1ABVBox@Gu@2@ABVPxVec3@2@MAAUPxSweepHit@2@V?$PxFlags@W4Enum@PxHitFlag@physx@@G@2@M@Z 100dd440 f   GuSweepsMesh.obj
 0001:000dc4a0       ?sweepCapsule_MeshGeom@@YA_NABVPxGeometry@physx@@ABVPxTransform@2@ABVPxCapsuleGeometry@2@1ABVCapsule@Gu@2@ABVPxVec3@2@MAAUPxSweepHit@2@V?$PxFlags@W4Enum@PxHitFlag@physx@@G@2@M@Z 100dd4a0 f   GuSweepsMesh.obj
 0001:000dc500       ?sweepConvex_MeshGeom@@YA_NABVPxGeometry@physx@@ABVPxTransform@2@ABVPxConvexMeshGeometry@2@1ABVPxVec3@2@MAAUPxSweepHit@2@V?$PxFlags@W4Enum@PxHitFlag@physx@@G@2@M@Z 100dd500 f   GuSweepsMesh.obj
 0001:000dd100       ??0TriangleMesh@Gu@physx@@QAE@AAVGuMeshFactory@2@AAVTriangleMeshData@12@@Z 100de100 f   GuTriangleMesh.obj
 0001:000dd260       ??1TriangleMesh@Gu@physx@@UAE@XZ 100de260 f   GuTriangleMesh.obj
 0001:000dd392       ??_ETriangleMesh@Gu@physx@@W7AEPAXI@Z 100de392 f i GuTriangleMesh.obj
 0001:000dd3a0       ??_ETriangleMesh@Gu@physx@@UAEPAXI@Z 100de3a0 f i GuTriangleMesh.obj
 0001:000dd3a0       ??_GTriangleMesh@Gu@physx@@UAEPAXI@Z 100de3a0 f i GuTriangleMesh.obj
 0001:000dd3e0       ?exportExtraData@TriangleMesh@Gu@physx@@UAEXAAVPxSerializationContext@3@@Z 100de3e0 f   GuTriangleMesh.obj
 0001:000dd4d0       ?getLocalBounds@TriangleMesh@Gu@physx@@UBE?AVPxBounds3@3@XZ 100de4d0 f i GuTriangleMesh.obj
 0001:000dd530       ?getTriangleMaterialIndex@TriangleMesh@Gu@physx@@UBEGI@Z 100de530 f i GuTriangleMesh.obj
 0001:000dd550       ?getTriangleMeshFlags@TriangleMesh@Gu@physx@@UBE?AV?$PxFlags@W4Enum@PxTriangleMeshFlag@physx@@E@3@XZ 100de550 f i GuTriangleMesh.obj
 0001:000dd560       ?getVerticesForModification@TriangleMesh@Gu@physx@@UAEPAVPxVec3@3@XZ 100de560 f   GuTriangleMesh.obj
 0001:000dd590       ?importExtraData@TriangleMesh@Gu@physx@@QAEXAAVPxDeserializationContext@3@@Z 100de590 f   GuTriangleMesh.obj
 0001:000dd670       ?isKindOf@PxTriangleMesh@physx@@MBE_NPBD@Z 100de670 f i GuTriangleMesh.obj
 0001:000dd6f0       ?onRefCountZero@TriangleMesh@Gu@physx@@UAEXXZ 100de6f0 f   GuTriangleMesh.obj
 0001:000dd760       ?refitBVH@TriangleMesh@Gu@physx@@UAE?AVPxBounds3@3@XZ 100de760 f   GuTriangleMesh.obj
 0001:000dd7f0       ??0BV4TriangleMesh@Gu@physx@@QAE@AAVGuMeshFactory@2@AAVTriangleMeshData@12@@Z 100de7f0 f   GuTriangleMeshBV4.obj
 0001:000dd847       ??_EBV4TriangleMesh@Gu@physx@@W7AEPAXI@Z 100de847 f i GuTriangleMeshBV4.obj
 0001:000dd850       ??_GBV4TriangleMesh@Gu@physx@@UAEPAXI@Z 100de850 f i GuTriangleMeshBV4.obj
 0001:000dd850       ??_EBV4TriangleMesh@Gu@physx@@UAEPAXI@Z 100de850 f i GuTriangleMeshBV4.obj
 0001:000dd8b0       ?createObject@BV4TriangleMesh@Gu@physx@@SAPAVTriangleMesh@23@AAPAEAAVPxDeserializationContext@3@@Z 100de8b0 f   GuTriangleMeshBV4.obj
 0001:000dd950       ?exportExtraData@BV4TriangleMesh@Gu@physx@@UAEXAAVPxSerializationContext@3@@Z 100de950 f   GuTriangleMeshBV4.obj
 0001:000dd970       ?getConcreteTypeName@BV4TriangleMesh@Gu@physx@@UBEPBDXZ 100de970 f i GuTriangleMeshBV4.obj
 0001:000dd980       ?getMidphaseID@BV4TriangleMesh@Gu@physx@@UBE?AW4Enum@PxMeshMidPhase@3@XZ 100de980 f i GuTriangleMeshBV4.obj
 0001:000dd990       ??0RTreeTriangleMesh@Gu@physx@@QAE@AAVGuMeshFactory@2@AAVTriangleMeshData@12@@Z 100de990 f   GuTriangleMeshRTree.obj
 0001:000ddae2       ??_ERTreeTriangleMesh@Gu@physx@@W7AEPAXI@Z 100deae2 f i GuTriangleMeshRTree.obj
 0001:000ddaf0       ??_E?$RefitCallback@G@physx@@UAEPAXI@Z 100deaf0 f i GuTriangleMeshRTree.obj
 0001:000ddaf0       ??_G?$RefitCallback@I@physx@@UAEPAXI@Z 100deaf0 f i GuTriangleMeshRTree.obj
 0001:000ddaf0       ??_G?$RefitCallback@G@physx@@UAEPAXI@Z 100deaf0 f i GuTriangleMeshRTree.obj
 0001:000ddaf0       ??_E?$RefitCallback@I@physx@@UAEPAXI@Z 100deaf0 f i GuTriangleMeshRTree.obj
 0001:000ddb20       ??_GRTreeTriangleMesh@Gu@physx@@UAEPAXI@Z 100deb20 f i GuTriangleMeshRTree.obj
 0001:000ddb20       ??_ERTreeTriangleMesh@Gu@physx@@UAEPAXI@Z 100deb20 f i GuTriangleMeshRTree.obj
 0001:000ddba0       ?createObject@RTreeTriangleMesh@Gu@physx@@SAPAVTriangleMesh@23@AAPAEAAVPxDeserializationContext@3@@Z 100deba0 f   GuTriangleMeshRTree.obj
 0001:000ddc00       ?exportExtraData@RTreeTriangleMesh@Gu@physx@@UAEXAAVPxSerializationContext@3@@Z 100dec00 f   GuTriangleMeshRTree.obj
 0001:000ddc20       ?getConcreteTypeName@RTreeTriangleMesh@Gu@physx@@UBEPBDXZ 100dec20 f i GuTriangleMeshRTree.obj
 0001:000ddc30       ?getMidphaseID@RTreeTriangleMesh@Gu@physx@@UBE?AW4Enum@PxMeshMidPhase@3@XZ 100dec30 f i GuTriangleMeshRTree.obj
 0001:000ddc40       ?getVerticesForModification@RTreeTriangleMesh@Gu@physx@@UAEPAVPxVec3@3@XZ 100dec40 f   GuTriangleMeshRTree.obj
 0001:000ddc50       ?recomputeBounds@?$RefitCallback@G@physx@@UAEXIAAT__m128@@0@Z 100dec50 f i GuTriangleMeshRTree.obj
 0001:000ddd50       ?recomputeBounds@?$RefitCallback@I@physx@@UAEXIAAT__m128@@0@Z 100ded50 f i GuTriangleMeshRTree.obj
 0001:000dde40       ?refitBVH@RTreeTriangleMesh@Gu@physx@@UAE?AVPxBounds3@3@XZ 100dee40 f   GuTriangleMeshRTree.obj
 0001:000ddfd0       ??0BV32Tree@Gu@physx@@QAE@PAVSourceMesh@12@ABVPxBounds3@2@@Z 100defd0 f   GuBV32.obj
 0001:000de0b0       ??0BV32Tree@Gu@physx@@QAE@XZ 100df0b0 f   GuBV32.obj
 0001:000de100       ??1BV32Tree@Gu@physx@@QAE@XZ 100df100 f   GuBV32.obj
 0001:000de160       ?calculateLeafNode@BV32Tree@Gu@physx@@QAEXAAUBV32Data@23@@Z 100df160 f   GuBV32.obj
 0001:000de2f0       ?createSOAformatNode@BV32Tree@Gu@physx@@QAEXAAUBV32DataPacked@23@ABUBV32Data@23@IAAI2@Z 100df2f0 f   GuBV32.obj
 0001:000de4e0       ?load@BV32Tree@Gu@physx@@QAE_NAAVPxInputStream@3@_N@Z 100df4e0 f   GuBV32.obj
 0001:000de6f0       ??0BV32Node@@QAE@XZ        100df6f0 f i GuBV32Build.obj
 0001:000de750       ?BuildBV32Ex@Gu@physx@@YA_NAAVBV32Tree@12@AAVSourceMesh@12@MI@Z 100df750 f   GuBV32Build.obj
 0001:000e2020       ?pcmContactBoxBox@Gu@physx@@YA_NABVGeometryUnion@12@0ABVPxTransform@2@1ABUNarrowPhaseParams@12@AAUCache@12@AAVContactBuffer@12@PAVRenderOutput@Cm@2@@Z 100e3020 f   GuPCMContactBoxBox.obj
 0001:000e2f20       ??$gjkPenetration@U?$RelativeConvex@VBoxV@Gu@physx@@@Gu@physx@@U?$LocalConvex@VConvexHullNoScaleV@Gu@physx@@@23@@Gu@physx@@YA?AW4GjkStatus@01@ABU?$RelativeConvex@VBoxV@Gu@physx@@@01@ABU?$LocalConvex@VConvexHullNoScaleV@Gu@physx@@@01@ABT__m128@@2_NPIAE4AAEAAUGjkOutput@01@@Z 100e3f20 f i GuPCMContactBoxConvex.obj
 0001:000e4d20       ?pcmContactBoxConvex@Gu@physx@@YA_NABVGeometryUnion@12@0ABVPxTransform@2@1ABUNarrowPhaseParams@12@AAUCache@12@AAVContactBuffer@12@PAVRenderOutput@Cm@2@@Z 100e5d20 f   GuPCMContactBoxConvex.obj
 0001:000e5ce0       ?support@?$LocalConvex@VConvexHullNoScaleV@Gu@physx@@@Gu@physx@@UBE?AT__m128@@ABT4@@Z 100e6ce0 f i GuPCMContactBoxConvex.obj
 0001:000e5d10       ?support@?$LocalConvex@VConvexHullNoScaleV@Gu@physx@@@Gu@physx@@UBE?AT__m128@@ABT4@AAH@Z 100e6d10 f i GuPCMContactBoxConvex.obj
 0001:000e5d50       ?supportPoint@?$LocalConvex@VConvexHullNoScaleV@Gu@physx@@@Gu@physx@@UBE?AT__m128@@H@Z 100e6d50 f i GuPCMContactBoxConvex.obj
 0001:000e5f30       ?pcmContactCapsuleBox@Gu@physx@@YA_NABVGeometryUnion@12@0ABVPxTransform@2@1ABUNarrowPhaseParams@12@AAUCache@12@AAVContactBuffer@12@PAVRenderOutput@Cm@2@@Z 100e6f30 f   GuPCMContactCapsuleBox.obj
 0001:000e6c60       ?pcmContactCapsuleCapsule@Gu@physx@@YA_NABVGeometryUnion@12@0ABVPxTransform@2@1ABUNarrowPhaseParams@12@AAUCache@12@AAVContactBuffer@12@PAVRenderOutput@Cm@2@@Z 100e7c60 f   GuPCMContactCapsuleCapsule.obj
 0001:000e7580       ??$gjkPenetration@U?$LocalConvex@VCapsuleV@Gu@physx@@@Gu@physx@@U?$LocalConvex@VConvexHullNoScaleV@Gu@physx@@@23@@Gu@physx@@YA?AW4GjkStatus@01@ABU?$LocalConvex@VCapsuleV@Gu@physx@@@01@ABU?$LocalConvex@VConvexHullNoScaleV@Gu@physx@@@01@ABT__m128@@2_NPIAE4AAEAAUGjkOutput@01@@Z 100e8580 f i GuPCMContactCapsuleConvex.obj
 0001:000e90c0       ?pcmContactCapsuleConvex@Gu@physx@@YA_NABVGeometryUnion@12@0ABVPxTransform@2@1ABUNarrowPhaseParams@12@AAUCache@12@AAVContactBuffer@12@PAVRenderOutput@Cm@2@@Z 100ea0c0 f   GuPCMContactCapsuleConvex.obj
 0001:000ea140       ??0PCMMeshContactGeneration@Gu@physx@@QAE@ABT__m128@@0ABVPsTransformV@aos@shdfnd@2@1AAVMultiplePersistentContactManifold@12@AAVContactBuffer@12@PAV?$InlineArray@I$0EEA@V?$ReflectionAllocator@I@shdfnd@physx@@@62@PAVRenderOutput@Cm@2@@Z 100eb140 f i GuPCMContactCapsuleHeightField.obj
 0001:000ea480       ??_EPCMCapsuleVsHeightfieldContactGenerationCallback@physx@@UAEPAXI@Z 100eb480 f i GuPCMContactCapsuleHeightField.obj
 0001:000ea480       ??_GPCMCapsuleVsHeightfieldContactGenerationCallback@physx@@UAEPAXI@Z 100eb480 f i GuPCMContactCapsuleHeightField.obj
 0001:000ea4b0       ?onEvent@?$PCMHeightfieldContactGenerationCallback@UPCMCapsuleVsHeightfieldContactGenerationCallback@physx@@@Gu@physx@@UAE_NIPAI@Z 100eb4b0 f i GuPCMContactCapsuleHeightField.obj
 0001:000ea940       ?pcmContactCapsuleHeightField@Gu@physx@@YA_NABVGeometryUnion@12@0ABVPxTransform@2@1ABUNarrowPhaseParams@12@AAUCache@12@AAVContactBuffer@12@PAVRenderOutput@Cm@2@@Z 100eb940 f   GuPCMContactCapsuleHeightField.obj
 0001:000eb7b0       ??$processTriangleCache@$0BA@@PCMCapsuleVsMeshContactGenerationCallback@physx@@QAEXAAU?$TriangleCache@$0BA@@Gu@1@@Z 100ec7b0 f i GuPCMContactCapsuleMesh.obj
 0001:000eb820       ??_EPCMCapsuleVsMeshContactGenerationCallback@physx@@UAEPAXI@Z 100ec820 f i GuPCMContactCapsuleMesh.obj
 0001:000eb820       ??_GPCMCapsuleVsMeshContactGenerationCallback@physx@@UAEPAXI@Z 100ec820 f i GuPCMContactCapsuleMesh.obj
 0001:000eb850       ?pcmContactCapsuleMesh@Gu@physx@@YA_NABVGeometryUnion@12@0ABVPxTransform@2@1ABUNarrowPhaseParams@12@AAUCache@12@AAVContactBuffer@12@PAVRenderOutput@Cm@2@@Z 100ec850 f   GuPCMContactCapsuleMesh.obj
 0001:000ec7f0       ?processHit@?$PCMMeshContactGenerationCallback@UPCMCapsuleVsMeshContactGenerationCallback@physx@@@Gu@physx@@UAE_NABUPxRaycastHit@3@ABVPxVec3@3@11AAMPBI@Z 100ed7f0 f i GuPCMContactCapsuleMesh.obj
 0001:000ecb80       ??$sort@USortedTriangle@Gu@physx@@U?$Less@USortedTriangle@Gu@physx@@@shdfnd@3@V?$ReflectionAllocator@USortedTriangle@Gu@physx@@@53@@shdfnd@physx@@YAXPAUSortedTriangle@Gu@1@IABU?$Less@USortedTriangle@Gu@physx@@@01@ABV?$ReflectionAllocator@USortedTriangle@Gu@physx@@@01@I@Z 100edb80 f i GuPCMContactConvexCommon.obj
 0001:000ed030       ?addContactsToPatch@PCMConvexVsMeshContactGeneration@Gu@physx@@QAEXABT__m128@@I@Z 100ee030 f   GuPCMContactConvexCommon.obj
 0001:000ed7e0       ?addToPatch@PCMSphereVsMeshContactGeneration@Gu@physx@@QAEXABT__m128@@0T4@I@Z 100ee7e0 f   GuPCMContactConvexCommon.obj
 0001:000edcc0       ?allocate@?$Array@USortedTriangle@Gu@physx@@V?$InlineAllocator@$0IAA@V?$ReflectionAllocator@USortedTriangle@Gu@physx@@@shdfnd@physx@@@shdfnd@3@@shdfnd@physx@@IAEPAUSortedTriangle@Gu@3@I@Z 100eecc0 f i GuPCMContactConvexCommon.obj
 0001:000edd50       ?doSupport@?$SupportLocalImpl@VTriangleV@Gu@physx@@@Gu@physx@@UBE?AT__m128@@ABT4@@Z 100eed50 f i GuPCMContactConvexCommon.obj
 0001:000eddf0       ?doSupport@?$SupportLocalImpl@VTriangleV@Gu@physx@@@Gu@physx@@UBEXABT__m128@@AAT4@1@Z 100eedf0 f i GuPCMContactConvexCommon.obj
 0001:000ede70       ?generateContacts@PCMCapsuleVsMeshContactGeneration@Gu@physx@@SA_NABT__m128@@0000I000PAVMeshPersistentContact@23@AAI@Z 100eee70 f   GuPCMContactConvexCommon.obj
 0001:000ee2d0       ?generateEE@PCMCapsuleVsMeshContactGeneration@Gu@physx@@QAEXABT__m128@@000I00PAVMeshPersistentContact@23@AAI@Z 100ef2d0 f   GuPCMContactConvexCommon.obj
 0001:000ee500       ?generateEEMTD@PCMCapsuleVsMeshContactGeneration@Gu@physx@@SAXABT__m128@@000I00PAVMeshPersistentContact@23@AAI@Z 100ef500 f   GuPCMContactConvexCommon.obj
 0001:000ee700       ?generateLastContacts@PCMConvexVsMeshContactGeneration@Gu@physx@@QAEXXZ 100ef700 f   GuPCMContactConvexCommon.obj
 0001:000eeb60       ?generateLastContacts@PCMSphereVsMeshContactGeneration@Gu@physx@@QAEXXZ 100efb60 f   GuPCMContactConvexCommon.obj
 0001:000eefc0       ?get@?$CacheMap@UCachedEdge@Gu@physx@@$0IA@@Gu@physx@@QBEPBUCachedEdge@23@ABU423@@Z 100effc0 f i GuPCMContactConvexCommon.obj
 0001:000ef040       ?growAndPushBack@?$Array@USortedTriangle@Gu@physx@@V?$InlineAllocator@$0IAA@V?$ReflectionAllocator@USortedTriangle@Gu@physx@@@shdfnd@physx@@@shdfnd@3@@shdfnd@physx@@IAEAAUSortedTriangle@Gu@3@ABU453@@Z 100f0040 f i GuPCMContactConvexCommon.obj
 0001:000ef650       ?pcmDistanceSegmentTriangleSquared@Gu@physx@@YA?AT__m128@@ABT3@0000AAT3@11@Z 100f0650 f   GuPCMContactConvexCommon.obj
 0001:000f0000       ?populateVerts@?$SupportLocalImpl@VTriangleV@Gu@physx@@@Gu@physx@@UBEXPBEIPBVPxVec3@3@PAT__m128@@@Z 100f1000 f i GuPCMContactConvexCommon.obj
 0001:000f0040       ?processTriangle@PCMCapsuleVsMeshContactGeneration@Gu@physx@@QAE_NPBVPxVec3@3@IEPBI@Z 100f1040 f   GuPCMContactConvexCommon.obj
 0001:000f0a50       ?processTriangle@PCMCapsuleVsMeshContactGeneration@Gu@physx@@SA_NABVTriangleV@23@IABVCapsuleV@23@ABT__m128@@EPAVMeshPersistentContact@23@AAI@Z 100f1a50 f   GuPCMContactConvexCommon.obj
 0001:000f0c90       ?processTriangle@PCMConvexVsMeshContactGeneration@Gu@physx@@QAE_NPBVPxVec3@3@IEPBI@Z 100f1c90 f   GuPCMContactConvexCommon.obj
 0001:000f1080       ?processTriangle@PCMConvexVsMeshContactGeneration@Gu@physx@@SA_NABUPolygonalData@23@PAVSupportLocal@23@PBVPxVec3@3@IEABT__m128@@_NABVPsTransformV@aos@shdfnd@3@ABVPsMatTransformV@9shdfnd@3@PAVMeshPersistentContact@23@AAI@Z 100f2080 f   GuPCMContactConvexCommon.obj
 0001:000f12f0       ?processTriangle@PCMSphereVsMeshContactGeneration@Gu@physx@@QAE_NPBVPxVec3@3@IEPBI@Z 100f22f0 f   GuPCMContactConvexCommon.obj
 0001:000f1760       ??$gjkPenetration@U?$RelativeConvex@VConvexHullNoScaleV@Gu@physx@@@Gu@physx@@U?$LocalConvex@VConvexHullNoScaleV@Gu@physx@@@23@@Gu@physx@@YA?AW4GjkStatus@01@ABU?$RelativeConvex@VConvexHullNoScaleV@Gu@physx@@@01@ABU?$LocalConvex@VConvexHullNoScaleV@Gu@physx@@@01@ABT__m128@@2_NPIAE4AAEAAUGjkOutput@01@@Z 100f2760 f i GuPCMContactConvexConvex.obj
 0001:000f2ff0       ??$gjkPenetration@U?$RelativeConvex@VConvexHullNoScaleV@Gu@physx@@@Gu@physx@@U?$LocalConvex@VConvexHullV@Gu@physx@@@23@@Gu@physx@@YA?AW4GjkStatus@01@ABU?$RelativeConvex@VConvexHullNoScaleV@Gu@physx@@@01@ABU?$LocalConvex@VConvexHullV@Gu@physx@@@01@ABT__m128@@2_NPIAE4AAEAAUGjkOutput@01@@Z 100f3ff0 f i GuPCMContactConvexConvex.obj
 0001:000f4950       ??$gjkPenetration@U?$RelativeConvex@VConvexHullV@Gu@physx@@@Gu@physx@@U?$LocalConvex@VConvexHullNoScaleV@Gu@physx@@@23@@Gu@physx@@YA?AW4GjkStatus@01@ABU?$RelativeConvex@VConvexHullV@Gu@physx@@@01@ABU?$LocalConvex@VConvexHullNoScaleV@Gu@physx@@@01@ABT__m128@@2_NPIAE4AAEAAUGjkOutput@01@@Z 100f5950 f i GuPCMContactConvexConvex.obj
 0001:000f69d0       ?pcmContactConvexConvex@Gu@physx@@YA_NABVGeometryUnion@12@0ABVPxTransform@2@1ABUNarrowPhaseParams@12@AAUCache@12@AAVContactBuffer@12@PAVRenderOutput@Cm@2@@Z 100f79d0 f   GuPCMContactConvexConvex.obj
 0001:000f7cc0       ?support@?$RelativeConvex@VConvexHullNoScaleV@Gu@physx@@@Gu@physx@@UBE?AT__m128@@ABT4@@Z 100f8cc0 f i GuPCMContactConvexConvex.obj
 0001:000f7d60       ?support@?$RelativeConvex@VConvexHullNoScaleV@Gu@physx@@@Gu@physx@@UBE?AT__m128@@ABT4@AAH@Z 100f8d60 f i GuPCMContactConvexConvex.obj
 0001:000f7e00       ?supportPoint@?$RelativeConvex@VConvexHullNoScaleV@Gu@physx@@@Gu@physx@@UBE?AT__m128@@H@Z 100f8e00 f i GuPCMContactConvexConvex.obj
 0001:000f7e60       ??_EPCMConvexVsHeightfieldContactGenerationCallback@physx@@UAEPAXI@Z 100f8e60 f i GuPCMContactConvexHeightField.obj
 0001:000f7e60       ??_GPCMConvexVsHeightfieldContactGenerationCallback@physx@@UAEPAXI@Z 100f8e60 f i GuPCMContactConvexHeightField.obj
 0001:000f7e90       ?PCMContactConvexHeightfield@Gu@physx@@YA_NABUPolygonalData@12@PAVSupportLocal@12@ABT__m128@@ABVPxBounds3@2@ABVPxHeightFieldGeometry@2@ABVPxTransform@2@5MAAVContactBuffer@12@ABVFastVertex2ShapeScaling@Cm@2@_NAAVMultiplePersistentContactManifold@12@PAVRenderOutput@Cm@2@@Z 100f8e90 f   GuPCMContactConvexHeightField.obj
 0001:000f8a10       ?onEvent@?$PCMHeightfieldContactGenerationCallback@UPCMConvexVsHeightfieldContactGenerationCallback@physx@@@Gu@physx@@UAE_NIPAI@Z 100f9a10 f i GuPCMContactConvexHeightField.obj
 0001:000f8ea0       ?pcmContactBoxHeightField@Gu@physx@@YA_NABVGeometryUnion@12@0ABVPxTransform@2@1ABUNarrowPhaseParams@12@AAUCache@12@AAVContactBuffer@12@PAVRenderOutput@Cm@2@@Z 100f9ea0 f   GuPCMContactConvexHeightField.obj
 0001:000f9100       ?pcmContactConvexHeightField@Gu@physx@@YA_NABVGeometryUnion@12@0ABVPxTransform@2@1ABUNarrowPhaseParams@12@AAUCache@12@AAVContactBuffer@12@PAVRenderOutput@Cm@2@@Z 100fa100 f   GuPCMContactConvexHeightField.obj
 0001:000f9740       ??$processTriangleCache@$0BA@@PCMConvexVsMeshContactGenerationCallback@physx@@QAEXAAU?$TriangleCache@$0BA@@Gu@1@@Z 100fa740 f i GuPCMContactConvexMesh.obj
 0001:000f97b0       ??_EPCMConvexVsMeshContactGenerationCallback@physx@@UAEPAXI@Z 100fa7b0 f i GuPCMContactConvexMesh.obj
 0001:000f97b0       ??_GPCMConvexVsMeshContactGenerationCallback@physx@@UAEPAXI@Z 100fa7b0 f i GuPCMContactConvexMesh.obj
 0001:000f97e0       ?PCMContactConvexMesh@Gu@physx@@YA_NABUPolygonalData@12@PAVSupportLocal@12@ABT__m128@@ABVPxBounds3@2@ABUPxTriangleMeshGeometryLL@2@ABVPxTransform@2@5MAAVContactBuffer@12@ABVFastVertex2ShapeScaling@Cm@2@7_N8AAVMultiplePersistentContactManifold@12@PAVRenderOutput@Cm@2@@Z 100fa7e0 f   GuPCMContactConvexMesh.obj
 0001:000fa400       ?pcmContactBoxMesh@Gu@physx@@YA_NABVGeometryUnion@12@0ABVPxTransform@2@1ABUNarrowPhaseParams@12@AAUCache@12@AAVContactBuffer@12@PAVRenderOutput@Cm@2@@Z 100fb400 f   GuPCMContactConvexMesh.obj
 0001:000fa6a0       ?pcmContactConvexMesh@Gu@physx@@YA_NABVGeometryUnion@12@0ABVPxTransform@2@1ABUNarrowPhaseParams@12@AAUCache@12@AAVContactBuffer@12@PAVRenderOutput@Cm@2@@Z 100fb6a0 f   GuPCMContactConvexMesh.obj
 0001:000fad50       ?processHit@?$PCMMeshContactGenerationCallback@UPCMConvexVsMeshContactGenerationCallback@physx@@@Gu@physx@@UAE_NABUPxRaycastHit@3@ABVPxVec3@3@11AAMPBI@Z 100fbd50 f i GuPCMContactConvexMesh.obj
 0001:000fb0f0       ?addGJKEPAContacts@Gu@physx@@YA_NPBUGjkConvex@12@0ABVPsMatTransformV@aos@shdfnd@2@W4GjkStatus@12@PAVPersistentContact@12@T__m128@@4AAUGjkOutput@12@AAVPersistentContactManifold@12@@Z 100fc0f0 f   GuPCMContactGenBoxConvex.obj
 0001:000fb250       ?buildPartialHull@Gu@physx@@YAXABUPolygonalData@12@PAVSupportLocal@12@AAVSeparatingAxes@12@ABT__m128@@3@Z 100fc250 f   GuPCMContactGenBoxConvex.obj
 0001:000fb490       ?computeMTD@Gu@physx@@YA_NAAUPolygonalData@12@0PAVSupportLocal@12@1AAT__m128@@2@Z 100fc490 f   GuPCMContactGenBoxConvex.obj
 0001:000fbab0       ?generateFullContactManifold@Gu@physx@@YA_NAAUPolygonalData@12@0PAVSupportLocal@12@1PAVPersistentContact@12@AAIABT__m128@@444MM_NPAVRenderOutput@Cm@2@M@Z 100fcab0 f   GuPCMContactGenBoxConvex.obj
 0001:000fd270       ?generatedContacts@Gu@physx@@YAXAAUPolygonalData@12@0ABUHullPolygonData@12@1PAVSupportLocal@12@2ABVPsMatTransformV@aos@shdfnd@2@PAVPersistentContact@12@AAIABT__m128@@PAVRenderOutput@Cm@2@@Z 100fe270 f   GuPCMContactGenBoxConvex.obj
 0001:000fe890       ?computeMTD@Gu@physx@@YA_NABVCapsuleV@12@AAUPolygonalData@12@PAVSupportLocal@12@AAT__m128@@3@Z 100ff890 f   GuPCMContactGenSphereCapsule.obj
 0001:000fe970       ?generateCapsuleBoxFullContactManifold@Gu@physx@@YA_NABVCapsuleV@12@AAUPolygonalData@12@PAVSupportLocal@12@ABVPsMatTransformV@aos@shdfnd@2@PAVPersistentContact@12@AAIABT__m128@@AAT__m128@@6M_NMPAVRenderOutput@Cm@2@@Z 100ff970 f   GuPCMContactGenSphereCapsule.obj
 0001:000fef00       ?generateFullContactManifold@Gu@physx@@YA_NABVCapsuleV@12@AAUPolygonalData@12@PAVSupportLocal@12@ABVPsMatTransformV@aos@shdfnd@2@PAVPersistentContact@12@AAIABT__m128@@AAT__m128@@6M_NM@Z 100fff00 f   GuPCMContactGenSphereCapsule.obj
 0001:000ff4e0       ?generateSphereFullContactManifold@Gu@physx@@YA_NABVCapsuleV@12@AAUPolygonalData@12@PAVSupportLocal@12@PAVPersistentContact@12@AAIABT__m128@@AAT7@_N@Z 101004e0 f   GuPCMContactGenSphereCapsule.obj
 0001:000ff8c0       ?generatedCapsuleBoxFaceContacts@Gu@physx@@YAXABVCapsuleV@12@AAUPolygonalData@12@ABUHullPolygonData@12@PAVSupportLocal@12@ABVPsMatTransformV@aos@shdfnd@2@PAVPersistentContact@12@AAIABT__m128@@7@Z 101008c0 f   GuPCMContactGenSphereCapsule.obj
 0001:000fffc0       ?generatedContactsEEContacts@Gu@physx@@YAXABVCapsuleV@12@AAUPolygonalData@12@ABUHullPolygonData@12@PAVSupportLocal@12@ABVPsMatTransformV@aos@shdfnd@2@PAVPersistentContact@12@AAIABT__m128@@7@Z 10100fc0 f   GuPCMContactGenSphereCapsule.obj
 0001:00100b80       ?pcmContactPlaneBox@Gu@physx@@YA_NABVGeometryUnion@12@0ABVPxTransform@2@1ABUNarrowPhaseParams@12@AAUCache@12@AAVContactBuffer@12@PAVRenderOutput@Cm@2@@Z 10101b80 f   GuPCMContactPlaneBox.obj
 0001:00101870       ?pcmContactPlaneCapsule@Gu@physx@@YA_NABVGeometryUnion@12@0ABVPxTransform@2@1ABUNarrowPhaseParams@12@AAUCache@12@AAVContactBuffer@12@PAVRenderOutput@Cm@2@@Z 10102870 f   GuPCMContactPlaneCapsule.obj
 0001:001020a0       ?pcmContactPlaneConvex@Gu@physx@@YA_NABVGeometryUnion@12@0ABVPxTransform@2@1ABUNarrowPhaseParams@12@AAUCache@12@AAVContactBuffer@12@PAVRenderOutput@Cm@2@@Z 101030a0 f   GuPCMContactPlaneConvex.obj
 0001:00102ab0       ?pcmContactSphereBox@Gu@physx@@YA_NABVGeometryUnion@12@0ABVPxTransform@2@1ABUNarrowPhaseParams@12@AAUCache@12@AAVContactBuffer@12@PAVRenderOutput@Cm@2@@Z 10103ab0 f   GuPCMContactSphereBox.obj
 0001:00102f40       ?pcmContactSphereCapsule@Gu@physx@@YA_NABVGeometryUnion@12@0ABVPxTransform@2@1ABUNarrowPhaseParams@12@AAUCache@12@AAVContactBuffer@12@PAVRenderOutput@Cm@2@@Z 10103f40 f   GuPCMContactSphereCapsule.obj
 0001:00103360       ?pcmContactSphereConvex@Gu@physx@@YA_NABVGeometryUnion@12@0ABVPxTransform@2@1ABUNarrowPhaseParams@12@AAUCache@12@AAVContactBuffer@12@PAVRenderOutput@Cm@2@@Z 10104360 f   GuPCMContactSphereConvex.obj
 0001:001040f0       ??1PCMSphereVsHeightfieldContactGenerationCallback@physx@@UAE@XZ 101050f0 f i GuPCMContactSphereHeightField.obj
 0001:00104150       ??_GPCMSphereVsHeightfieldContactGenerationCallback@physx@@UAEPAXI@Z 10105150 f i GuPCMContactSphereHeightField.obj
 0001:00104150       ??_EPCMSphereVsHeightfieldContactGenerationCallback@physx@@UAEPAXI@Z 10105150 f i GuPCMContactSphereHeightField.obj
 0001:001041c0       ?onEvent@?$PCMHeightfieldContactGenerationCallback@UPCMSphereVsHeightfieldContactGenerationCallback@physx@@@Gu@physx@@UAE_NIPAI@Z 101051c0 f i GuPCMContactSphereHeightField.obj
 0001:00104650       ?pcmContactSphereHeightField@Gu@physx@@YA_NABVGeometryUnion@12@0ABVPxTransform@2@1ABUNarrowPhaseParams@12@AAUCache@12@AAVContactBuffer@12@PAVRenderOutput@Cm@2@@Z 10105650 f   GuPCMContactSphereHeightField.obj
 0001:00105120       ??$processTriangleCache@$0BA@@PCMSphereVsMeshContactGenerationCallback@physx@@QAEXAAU?$TriangleCache@$0BA@@Gu@1@@Z 10106120 f i GuPCMContactSphereMesh.obj
 0001:00105190       ??1PCMSphereVsMeshContactGenerationCallback@physx@@UAE@XZ 10106190 f i GuPCMContactSphereMesh.obj
 0001:001051f0       ??_EPCMSphereVsMeshContactGenerationCallback@physx@@UAEPAXI@Z 101061f0 f i GuPCMContactSphereMesh.obj
 0001:001051f0       ??_GPCMSphereVsMeshContactGenerationCallback@physx@@UAEPAXI@Z 101061f0 f i GuPCMContactSphereMesh.obj
 0001:00105260       ?pcmContactSphereMesh@Gu@physx@@YA_NABVGeometryUnion@12@0ABVPxTransform@2@1ABUNarrowPhaseParams@12@AAUCache@12@AAVContactBuffer@12@PAVRenderOutput@Cm@2@@Z 10106260 f   GuPCMContactSphereMesh.obj
 0001:00105f30       ?processHit@?$PCMMeshContactGenerationCallback@UPCMSphereVsMeshContactGenerationCallback@physx@@@Gu@physx@@UAE_NABUPxRaycastHit@3@ABVPxVec3@3@11AAMPBI@Z 10106f30 f i GuPCMContactSphereMesh.obj
 0001:001062c0       ?pcmContactSpherePlane@Gu@physx@@YA_NABVGeometryUnion@12@0ABVPxTransform@2@1ABUNarrowPhaseParams@12@AAUCache@12@AAVContactBuffer@12@PAVRenderOutput@Cm@2@@Z 101072c0 f   GuPCMContactSpherePlane.obj
 0001:00106470       ?pcmContactSphereSphere@Gu@physx@@YA_NABVGeometryUnion@12@0ABVPxTransform@2@1ABUNarrowPhaseParams@12@AAUCache@12@AAVContactBuffer@12@PAVRenderOutput@Cm@2@@Z 10107470 f   GuPCMContactSphereSphere.obj
 0001:00106550       ?getPCMConvexData@Gu@physx@@YAXABVConvexHullV@12@_NAAUPolygonalData@12@@Z 10107550 f   GuPCMShapeConvex.obj
 0001:001065a0       ?getPCMConvexData@Gu@physx@@YA_NABVGeometryUnion@12@AAVFastVertex2ShapeScaling@Cm@2@AAVPxBounds3@2@AAUPolygonalData@12@@Z 101075a0 f   GuPCMShapeConvex.obj
 0001:00106a00       ?getPolygonalData@PCMPolygonalBox@Gu@physx@@QBEXPIAUPolygonalData@23@@Z 10107a00 f   GuPCMShapeConvex.obj
 0001:00106a70       ?generatePolyDataContactManifold@PCMConvexVsMeshContactGeneration@Gu@physx@@QAE_NAAVTriangleV@23@IIEPAVMeshPersistentContact@23@AAIABT__m128@@AAT6@@Z 10107a70 f   GuPCMTriangleContactGen.obj
 0001:00106b40       ?generateTriangleFullContactManifold@PCMConvexVsMeshContactGeneration@Gu@physx@@QAE_NAAVTriangleV@23@IPBIEABUPolygonalData@23@PAV?$SupportLocalImpl@VTriangleV@Gu@physx@@@23@PAVSupportLocal@23@PAVMeshPersistentContact@23@AAIABT__m128@@AAT9@@Z 10107b40 f   GuPCMTriangleContactGen.obj
 0001:001072e0       ?generateTriangleFullContactManifold@PCMConvexVsMeshContactGeneration@Gu@physx@@SA_NAAVTriangleV@23@IEABUPolygonalData@23@PAV?$SupportLocalImpl@VTriangleV@Gu@physx@@@23@PAVSupportLocal@23@PAVMeshPersistentContact@23@AAIABT__m128@@AAT9@PAVRenderOutput@Cm@3@@Z 101082e0 f   GuPCMTriangleContactGen.obj
 0001:00109850       ?addBatchManifoldContacts2@PersistentContactManifold@Gu@physx@@QAEXPBVPersistentContact@23@I@Z 1010a850 f   GuPersistentContactManifold.obj
 0001:001098c0       ?addBatchManifoldContacts@PersistentContactManifold@Gu@physx@@QAEXPBVPersistentContact@23@IM@Z 1010a8c0 f   GuPersistentContactManifold.obj
 0001:00109940       ?addBatchManifoldContactsCluster@PersistentContactManifold@Gu@physx@@QAEXPBVPersistentContact@23@I@Z 1010a940 f   GuPersistentContactManifold.obj
 0001:00109bb0       ?addManifoldContactPoints@MultiplePersistentContactManifold@Gu@physx@@QAEXPAVMeshPersistentContact@23@IPAPAUPCMContactPatch@23@IABT__m128@@2E@Z 1010abb0 f   GuPersistentContactManifold.obj
 0001:00109f30       ?addManifoldContactsToContactBuffer@MultiplePersistentContactManifold@Gu@physx@@QAE_NAAVContactBuffer@23@ABVPsTransformV@aos@shdfnd@3@1ABT__m128@@@Z 1010af30 f   GuPersistentContactManifold.obj
 0001:0010a1b0       ?addManifoldContactsToContactBuffer@MultiplePersistentContactManifold@Gu@physx@@QAE_NAAVContactBuffer@23@ABVPsTransformV@aos@shdfnd@3@@Z 1010b1b0 f   GuPersistentContactManifold.obj
 0001:0010a420       ?addManifoldContactsToContactBuffer@PersistentContactManifold@Gu@physx@@QAEXAAVContactBuffer@23@ABT__m128@@1ABVPsTransformV@aos@shdfnd@3@11@Z 1010b420 f   GuPersistentContactManifold.obj
 0001:0010a5a0       ?addManifoldContactsToContactBuffer@PersistentContactManifold@Gu@physx@@QAEXAAVContactBuffer@23@ABT__m128@@ABVPsMatTransformV@aos@shdfnd@3@@Z 1010b5a0 f   GuPersistentContactManifold.obj
 0001:0010a660       ?addManifoldContactsToContactBuffer@PersistentContactManifold@Gu@physx@@QAEXAAVContactBuffer@23@ABT__m128@@ABVPsTransformV@aos@shdfnd@3@1@Z 1010b660 f   GuPersistentContactManifold.obj
 0001:0010a7c0       ?addManifoldPoint2@PersistentContactManifold@Gu@physx@@QAEIABT__m128@@000@Z 1010b7c0 f   GuPersistentContactManifold.obj
 0001:0010a8e0       ?addManifoldPoint@Gu@physx@@YAXPAVPersistentContact@12@AAVPersistentContactManifold@12@AAUGjkOutput@12@ABVPsMatTransformV@aos@shdfnd@2@T__m128@@@Z 1010b8e0 f   GuPersistentContactManifold.obj
 0001:0010aa10       ?addManifoldPoint@PersistentContactManifold@Gu@physx@@QAEIABT__m128@@000@Z 1010ba10 f   GuPersistentContactManifold.obj
 0001:0010ae30       ?drawLine@MultiplePersistentContactManifold@Gu@physx@@SAXAAVRenderOutput@Cm@3@ABT__m128@@1I@Z 1010be30 f   GuPersistentContactManifold.obj
 0001:0010af10       ?drawLine@MultiplePersistentContactManifold@Gu@physx@@SAXAAVRenderOutput@Cm@3@VPxVec3@3@1I@Z 1010bf10 f   GuPersistentContactManifold.obj
 0001:0010afa0       ?drawManifold@MultiplePersistentContactManifold@Gu@physx@@QAEXAAVRenderOutput@Cm@3@ABVPsTransformV@aos@shdfnd@3@1@Z 1010bfa0 f   GuPersistentContactManifold.obj
 0001:0010b6e0       ?drawPoint@MultiplePersistentContactManifold@Gu@physx@@SAXAAVRenderOutput@Cm@3@ABT__m128@@MI@Z 1010c6e0 f   GuPersistentContactManifold.obj
 0001:0010b870       ?drawPolygon@MultiplePersistentContactManifold@Gu@physx@@SAXAAVRenderOutput@Cm@3@ABVPsTransformV@aos@shdfnd@3@PAT__m128@@II@Z 1010c870 f   GuPersistentContactManifold.obj
 0001:0010ba00       ?findRotationMatrixFromZAxis@Gu@physx@@YA?AUMat33V@aos@shdfnd@2@ABT__m128@@@Z 1010ca00 f   GuPersistentContactManifold.obj
 0001:0010bc60       ?fromBuffer@MultiplePersistentContactManifold@Gu@physx@@QAEXPIAE@Z 1010cc60 f   GuPersistentContactManifold.obj
 0001:0010bda0       ?reduceBatchContacts2@PersistentContactManifold@Gu@physx@@QAEXPBVPersistentContact@23@I@Z 1010cda0 f   GuPersistentContactManifold.obj
 0001:0010bfc0       ?reduceBatchContacts@PersistentContactManifold@Gu@physx@@QAEXPBVPersistentContact@23@IM@Z 1010cfc0 f   GuPersistentContactManifold.obj
 0001:0010c4d0       ?reduceBatchContactsCapsule@SinglePersistentContactManifold@Gu@physx@@QAE?AT__m128@@PBVMeshPersistentContact@23@IAAUPCMContactPatch@23@@Z 1010d4d0 f   GuPersistentContactManifold.obj
 0001:0010c730       ?reduceBatchContactsCluster@PersistentContactManifold@Gu@physx@@QAEXPBVPersistentContact@23@I@Z 1010d730 f   GuPersistentContactManifold.obj
 0001:0010cbe0       ?reduceBatchContactsConvex@SinglePersistentContactManifold@Gu@physx@@QAE?AT__m128@@PBVMeshPersistentContact@23@IAAUPCMContactPatch@23@@Z 1010dbe0 f   GuPersistentContactManifold.obj
 0001:0010d150       ?reduceContacts@SinglePersistentContactManifold@Gu@physx@@SAIPAVMeshPersistentContact@23@I@Z 1010e150 f   GuPersistentContactManifold.obj
 0001:0010d600       ?reduceContactsForPCM@PersistentContactManifold@Gu@physx@@QAEIABT__m128@@00@Z 1010e600 f   GuPersistentContactManifold.obj
 0001:0010da40       ?refreshContactPoints@SinglePersistentContactManifold@Gu@physx@@QAE?AT__m128@@ABVPsMatTransformV@aos@shdfnd@3@ABT4@1@Z 1010ea40 f   GuPersistentContactManifold.obj
 0001:0010db60       ?replaceManifoldPoint@PersistentContactManifold@Gu@physx@@QAE_NABT__m128@@000@Z 1010eb60 f   GuPersistentContactManifold.obj
 0001:0010dc20       ?sweepBoxBox@Gu@physx@@YA_NABVBox@12@0ABVPxVec3@2@MV?$PxFlags@W4Enum@PxHitFlag@physx@@G@2@AAUPxSweepHit@2@@Z 1010ec20 f   GuSweepBoxBox.obj
 0001:0010ef10       ?sweepBoxSphere@Gu@physx@@YA_NABVBox@12@MABVPxVec3@2@1MAAMAAV42@V?$PxFlags@W4Enum@PxHitFlag@physx@@G@2@@Z 1010ff10 f   GuSweepBoxSphere.obj
 0001:0010fa90       ?sweepBoxTriangle@Gu@physx@@YA_NABVPxTriangle@2@ABVPxBounds3@2@ABVPxVec3@2@2AAV52@3AAM_N@Z 10110a90 f   GuSweepBoxTriangle_FeatureBased.obj
 0001:00110d70       ?triBoxSweepTestBoxSpace@Gu@physx@@YAHABVPxTriangle@2@ABVPxVec3@2@11MAAM_N@Z 10111d70 f   GuSweepBoxTriangle_SAT.obj
 0001:001127d0       ?sweepCapsuleBox@Gu@physx@@YA_NABVCapsule@12@ABVPxTransform@2@ABVPxVec3@2@2MAAV52@AAM3V?$PxFlags@W4Enum@PxHitFlag@physx@@G@2@@Z 101137d0 f   GuSweepCapsuleBox.obj
 0001:00113140       ?sweepCapsuleCapsule@Gu@physx@@YA_NABVCapsule@12@0ABVPxVec3@2@MAAMAAV42@3IAAG@Z 10114140 f   GuSweepCapsuleCapsule.obj
 0001:00114250       ?sweepCapsuleTriangles_Precise@Gu@physx@@YA_NIPIBVPxTriangle@2@ABVCapsule@12@ABVPxVec3@2@MPIBIAAUPxSweepHit@2@AAV52@V?$PxFlags@W4Enum@PxHitFlag@physx@@G@2@_NPBVBoxPadded@12@@Z 10115250 f   GuSweepCapsuleTriangle.obj
 0001:001166b0       ?sweepSphereCapsule@Gu@physx@@YA_NABVSphere@12@ABVCapsule@12@ABVPxVec3@2@MAAMAAV52@4V?$PxFlags@W4Enum@PxHitFlag@physx@@G@2@@Z 101176b0 f   GuSweepSphereCapsule.obj
 0001:00116d30       ?sweepSphereSphere@Gu@physx@@YA_NABVPxVec3@2@M0M0AAMAAV32@@Z 10117d30 f   GuSweepSphereSphere.obj
 0001:00116f80       ?sweepSphereTriangles@Gu@physx@@YA_NIPIBVPxTriangle@2@ABVPxVec3@2@M1MPIBIAAUPxSweepHit@2@AAV42@_N555@Z 10117f80 f   GuSweepSphereTriangle.obj
 0001:001177d0       ?sweepSphereVSQuad@Gu@physx@@YA_NPIBVPxVec3@2@ABV32@1M1AAM@Z 101187d0 f   GuSweepSphereTriangle.obj
 0001:00118b90       ?sweepSphereVSTri@Gu@physx@@YA_NPIBVPxVec3@2@ABV32@1M1AAMAA_N_N@Z 10119b90 f   GuSweepSphereTriangle.obj
 0001:00119a10       ??$gjk@U?$LocalConvex@VTriangleV@Gu@physx@@@Gu@physx@@U?$LocalConvex@VBoxV@Gu@physx@@@23@@Gu@physx@@YA?AW4GjkStatus@01@ABU?$LocalConvex@VTriangleV@Gu@physx@@@01@ABU?$LocalConvex@VBoxV@Gu@physx@@@01@ABT__m128@@2AAT5@333@Z 1011aa10 f i GuSweepTriangleUtils.obj
 0001:0011a930       ?computeBoxTriImpactData@Gu@physx@@YAXAAVPxVec3@2@0ABV32@1ABVPxTriangle@2@M@Z 1011b930 f   GuSweepTriangleUtils.obj
 0001:0011abb0       ?computeEdgeEdgeNormal@Gu@physx@@YAXAAVPxVec3@2@ABV32@1111M@Z 1011bbb0 f   GuSweepTriangleUtils.obj
 0001:0011ae50       ?computeSphereTriImpactData@Gu@physx@@YAXAAVPxVec3@2@0ABV32@1MABVPxTriangle@2@@Z 1011be50 f   GuSweepTriangleUtils.obj
 0001:0011b26f       __imp_load__PxGetFoundation 1011c26f f   PhysXFoundation_32:PhysXFoundation_32.dll
 0001:0011b279       __tailMerge_physxfoundation_32_dll 1011c279     PhysXFoundation_32:PhysXFoundation_32.dll
 0001:0011b28a       __imp_load_?getAllocator@shdfnd@physx@@YAAAVPxAllocatorCallback@2@XZ 1011c28a f   PhysXFoundation_32:PhysXFoundation_32.dll
 0001:0011b294       __imp_load_?getInstance@Foundation@shdfnd@physx@@SAAAV123@XZ 1011c294 f   PhysXFoundation_32:PhysXFoundation_32.dll
 0001:0011b29e       __imp_load_?error@Foundation@shdfnd@physx@@QAAXW4Enum@PxErrorCode@3@PBDH1ZZ 1011c29e f   PhysXFoundation_32:PhysXFoundation_32.dll
 0001:0011b2a8       __imp_load_?vsnprintf@shdfnd@physx@@YAHPADIPBD0@Z 1011c2a8 f   PhysXFoundation_32:PhysXFoundation_32.dll
 0001:0011b2b2       __imp_load_??0MutexImpl@shdfnd@physx@@QAE@XZ 1011c2b2 f   PhysXFoundation_32:PhysXFoundation_32.dll
 0001:0011b2bc       __imp_load_??1MutexImpl@shdfnd@physx@@QAE@XZ 1011c2bc f   PhysXFoundation_32:PhysXFoundation_32.dll
 0001:0011b2c6       __imp_load_?lock@MutexImpl@shdfnd@physx@@QAEXXZ 1011c2c6 f   PhysXFoundation_32:PhysXFoundation_32.dll
 0001:0011b2d0       __imp_load_?unlock@MutexImpl@shdfnd@physx@@QAEXXZ 1011c2d0 f   PhysXFoundation_32:PhysXFoundation_32.dll
 0001:0011b2da       __imp_load_?getSize@MutexImpl@shdfnd@physx@@SAIXZ 1011c2da f   PhysXFoundation_32:PhysXFoundation_32.dll
 0001:0011b2e4       __imp_load_?atomicDecrement@shdfnd@physx@@YAHPCH@Z 1011c2e4 f   PhysXFoundation_32:PhysXFoundation_32.dll
 0001:0011b2ee       __imp_load_?PxTransformFromSegment@physx@@YA?AVPxTransform@1@ABVPxVec3@1@0PAM@Z 1011c2ee f   PhysXFoundation_32:PhysXFoundation_32.dll
 0001:0011b2f8       __imp_load_?optimizeBoundingBox@shdfnd@physx@@YA?AVPxVec3@2@AAVPxMat33@2@@Z 1011c2f8 f   PhysXFoundation_32:PhysXFoundation_32.dll
 0001:0011b302       __imp_load_?allocate@TempAllocator@shdfnd@physx@@QAEPAXIPBDH@Z 1011c302 f   PhysXFoundation_32:PhysXFoundation_32.dll
 0001:0011b30c       __imp_load_?deallocate@TempAllocator@shdfnd@physx@@QAEXPAX@Z 1011c30c f   PhysXFoundation_32:PhysXFoundation_32.dll
 0001:0011b316       __imp_load_?atomicIncrement@shdfnd@physx@@YAHPCH@Z 1011c316 f   PhysXFoundation_32:PhysXFoundation_32.dll
 0001:0011b320       ?DloadAcquireSectionWriteAccess@@YGXXZ 1011c320 f i Delayimp:delayhlp.obj
 0001:0011b353       ?DloadGetSRWLockFunctionPointers@@YGEXZ 1011c353 f i Delayimp:delayhlp.obj
 0001:0011b3c6       ?DloadLock@@YGXXZ          1011c3c6 f i Delayimp:delayhlp.obj
 0001:0011b405       ?DloadMakePermanentImageCommit@@YGXPAXK@Z 1011c405 f i Delayimp:delayhlp.obj
 0001:0011b474       ?DloadObtainSection@@YGPAXPAK0@Z 1011c474 f i Delayimp:delayhlp.obj
 0001:0011b4ef       ?DloadProtectSection@@YGXKPAK@Z 1011c4ef f i Delayimp:delayhlp.obj
 0001:0011b55d       ?DloadReleaseSectionWriteAccess@@YGXXZ 1011c55d f i Delayimp:delayhlp.obj
 0001:0011b593       ?DloadUnlock@@YGXXZ        1011c593 f i Delayimp:delayhlp.obj
 0001:0011b5bf       ___delayLoadHelper2@8      1011c5bf f   Delayimp:delayhlp.obj
 0001:0011b82e       ??3@YAXPAXI@Z              1011c82e f   LIBCMT:delete_scalar_size.obj
 0001:0011b840       __ftoui3                   1011c840 f   LIBCMT:ftol3.obj
 0001:0011b886       ??_Gtype_info@@UAEPAXI@Z   1011c886 f i LIBCMT:std_type_info_static.obj
 0001:0011b886       ??_Etype_info@@UAEPAXI@Z   1011c886 f i LIBCMT:std_type_info_static.obj
 0001:0011b8a9       ?__scrt_initialize_type_info@@YAXXZ 1011c8a9 f   LIBCMT:tncleanup.obj
 0001:0011b8b5       ?__scrt_uninitialize_type_info@@YAXXZ 1011c8b5 f   LIBCMT:tncleanup.obj
 0001:0011b8c1       ??_V@YAXPAXI@Z             1011c8c1 f   LIBCMT:delete_array_size.obj
 0001:0011b8d0       __alloca_probe             1011c8d0 f   LIBCMT:chkstk.obj
 0001:0011b8d0       __chkstk                   1011c8d0 f   LIBCMT:chkstk.obj
 0001:0011b900       ___vdecl_sinf4             1011c900 f   LIBCMT:svml_ssinf4_dispatch.obj
 0001:0011b920       ___libm_sse2_sincosf_      1011c920 f   LIBCMT:svml_ssinf4_dispatch.obj
 0001:0011b970       ___libm_sse2_sincosf4_     1011c970 f   LIBCMT:svml_ssinf4_dispatch.obj
 0001:0011b980       ??3@YAXPAX@Z               1011c980 f   LIBCMT:delete_scalar.obj
 0001:0011b985       ??_V@YAXPAX@Z              1011c985 f   LIBCMT:delete_array.obj
 0001:0011b990       __alloca_probe_16          1011c990 f   LIBCMT:alloca16.obj
 0001:0011b9a6       __alloca_probe_8           1011c9a6     LIBCMT:alloca16.obj
 0001:0011bcfc       __DllMainCRTStartup@12     1011ccfc f   LIBCMT:dll_dllmain.obj
 0001:0011bd1f       ___isa_available_init      1011cd1f f   LIBCMT:cpu_disp.obj
 0001:0011bef0       ___sse2_sinf4@@16          1011cef0 f   LIBCMT:svml_ssinf4_sse2.obj
 0001:0011c0b0       ___sse4_sinf4@@16          1011d0b0 f   LIBCMT:svml_ssinf4_sse4.obj
 0001:0011c792       ___security_init_cookie    1011d792 f   LIBCMT:gs_support.obj
 0001:0011c7dd       _DllMain@12                1011d7dd f   LIBCMT:dll_dllmain_stub.obj
 0001:0011c7e3       ___local_stdio_printf_options 1011d7e3 f i LIBCMT:default_local_stdio_options.obj
 0001:0011c7e9       ___local_stdio_scanf_options 1011d7e9 f i LIBCMT:default_local_stdio_options.obj
 0001:0011c7ef       ___scrt_initialize_default_local_stdio_options 1011d7ef f   LIBCMT:default_local_stdio_options.obj
 0001:0011c850       ___scrt_acquire_startup_lock 1011d850 f   LIBCMT:utility.obj
 0001:0011c882       ___scrt_dllmain_after_initialize_c 1011d882 f   LIBCMT:utility.obj
 0001:0011c8ad       ___scrt_dllmain_before_initialize_c 1011d8ad f   LIBCMT:utility.obj
 0001:0011c8bb       ___scrt_dllmain_crt_thread_attach 1011d8bb f   LIBCMT:utility.obj
 0001:0011c8da       ___scrt_dllmain_crt_thread_detach 1011d8da f   LIBCMT:utility.obj
 0001:0011c8e7       ___scrt_dllmain_exception_filter 1011d8e7 f   LIBCMT:utility.obj
 0001:0011c91b       ___scrt_dllmain_uninitialize_c 1011d91b f   LIBCMT:utility.obj
 0001:0011c93e       ___scrt_dllmain_uninitialize_critical 1011d93e f   LIBCMT:utility.obj
 0001:0011c94b       ___scrt_initialize_crt     1011d94b f   LIBCMT:utility.obj
 0001:0011c984       ___scrt_initialize_onexit_tables 1011d984 f   LIBCMT:utility.obj
 0001:0011ca0b       ___scrt_is_nonwritable_in_current_image 1011da0b f   LIBCMT:utility.obj
 0001:0011ca9f       ___scrt_release_startup_lock 1011da9f f   LIBCMT:utility.obj
 0001:0011cabc       ___scrt_uninitialize_crt   1011dabc f   LIBCMT:utility.obj
 0001:0011cae4       ___scrt_get_dyn_tls_init_callback 1011dae4 f   LIBCMT:dyn_tls_init.obj
 0001:0011caea       ___scrt_fastfail           1011daea f   LIBCMT:utility_desktop.obj
 0001:0011cc05       __crt_debugger_hook        1011dc05 f   LIBCMT:utility_desktop.obj
 0001:0011cc0d       __RTC_Initialize           1011dc0d f   LIBCMT:initsect.obj
 0001:0011cc39       __RTC_Terminate            1011dc39 f   LIBCMT:initsect.obj
 0001:0011cc70       __SEH_prolog4              1011dc70 f   LIBCMT:sehprolg4.obj
 0001:0011ccc0       ___common_sin_reduction_LA 1011dcc0 f   LIBCMT:svml_dtrig.obj
 0001:0011d050       ___common_ssin_cout_rare   1011e050 f   LIBCMT:svml_s_sin_cout.obj
 0001:0011d0c9       __get_startup_argv_mode    1011e0c9 f   LIBCMT:argv_mode.obj
 0001:0011d0c9       ?length@charNode@@UBEHXZ   1011e0c9 f   libvcruntime:undname.obj
 0001:0011d0c9       ?raw_length@charNode@@UBEHXZ 1011e0c9 f   libvcruntime:undname.obj
 0001:0011d0cd       ___scrt_is_ucrt_dll_in_use 1011e0cd f   LIBCMT:ucrt_detection.obj
 0001:0011d0d9       @__security_check_cookie@4 1011e0d9 f   LIBCMT:secchk.obj
 0001:0011d0e7       ___raise_securityfailure   1011e0e7 f   LIBCMT:gs_report.obj
 0001:0011d10f       ___report_gsfailure        1011e10f f   LIBCMT:gs_report.obj
 0001:0011d209       __get_purecall_handler     1011e209 f   libvcruntime:purevirt.obj
 0001:0011d20f       __purecall                 1011e20f f   libvcruntime:purevirt.obj
 0001:0011d234       ___std_type_info_compare   1011e234 f   libvcruntime:std_type_info.obj
 0001:0011d270       ___std_type_info_destroy_list 1011e270 f   libvcruntime:std_type_info.obj
 0001:0011d293       ___std_type_info_name      1011e293 f   libvcruntime:std_type_info.obj
 0001:0011d360       _memmove                   1011e360 f   libvcruntime:memmove.obj
 0001:0011d360       _memcpy                    1011e360 f   libvcruntime:memcpy.obj
 0001:0011d8e0       _memset                    1011e8e0 f   libvcruntime:memset.obj
 0001:0011da40       _strstr                    1011ea40 f   libvcruntime:strstr.obj
 0001:0011dcf0       __except_handler4          1011ecf0 f   libvcruntime:chandler4.obj
 0001:0011de4e       ___vcrt_initialize         1011ee4e f   libvcruntime:initialization.obj
 0001:0011de6d       ___vcrt_thread_attach      1011ee6d f   libvcruntime:initialization.obj
 0001:0011de78       ___vcrt_thread_detach      1011ee78 f   libvcruntime:initialization.obj
 0001:0011de83       ___vcrt_uninitialize       1011ee83 f   libvcruntime:initialization.obj
 0001:0011de9a       ___vcrt_uninitialize_critical 1011ee9a f   libvcruntime:initialization.obj
 0001:0011dea2       ___DestructExceptionObject 1011eea2 f   libvcruntime:ehhelpers.obj
 0001:0011df43       ?_CallMemberFunction0@@YGXQAX0@Z 1011ef43 f i libvcruntime:ehhelpers.obj
 0001:0011dfa8       __IsExceptionObjectToBeDestroyed 1011efa8 f   libvcruntime:ehhelpers.obj
 0001:0011dfce       ___AdjustPointer           1011efce f   libvcruntime:ehhelpers.obj
 0001:0011dff3       ___FrameUnwindFilter       1011eff3 f   libvcruntime:ehhelpers.obj
 0001:0011e049       ___std_terminate           1011f049 f   libvcruntime:ehhelpers.obj
 0001:0011e04e       ??$?0$00@DName@@QAE@PBDU?$StringLifeSelector@$00@@@Z 1011f04e f i libvcruntime:undname.obj
 0001:0011e081       ??$?0$0A@@DName@@QAE@PBDU?$StringLifeSelector@$0A@@@@Z 1011f081 f i libvcruntime:undname.obj
 0001:0011e081       ??$?0$01@DName@@QAE@PBDU?$StringLifeSelector@$01@@@Z 1011f081 f i libvcruntime:undname.obj
 0001:0011e0b4       ??$?0$01@pcharNode@@QAE@PBDHU?$StringLifeSelector@$01@@@Z 1011f0b4 f i libvcruntime:undname.obj
 0001:0011e0b4       ??$?0$0A@@pcharNode@@QAE@PBDHU?$StringLifeSelector@$0A@@@@Z 1011f0b4 f i libvcruntime:undname.obj
 0001:0011e0f4       ??$append@VDNameNode@@@DName@@AAEXPBVDNameNode@@@Z 1011f0f4 f i libvcruntime:undname.obj
 0001:0011e0f4       ??$append@VDNameStatusNode@@@DName@@AAEXPBVDNameStatusNode@@@Z 1011f0f4 f i libvcruntime:undname.obj
 0001:0011e0f4       ??$append@VcharNode@@@DName@@AAEXPBVcharNode@@@Z 1011f0f4 f i libvcruntime:undname.obj
 0001:0011e0f4       ??$append@VpcharNode@@@DName@@AAEXPBVpcharNode@@@Z 1011f0f4 f i libvcruntime:undname.obj
 0001:0011e135       ??$doPchar@$00@DName@@AAEXPBDH@Z 1011f135 f i libvcruntime:undname.obj
 0001:0011e1a0       ??$doPchar@$0A@@DName@@AAEXPBDH@Z 1011f1a0 f i libvcruntime:undname.obj
 0001:0011e1a0       ??$doPchar@$01@DName@@AAEXPBDH@Z 1011f1a0 f i libvcruntime:undname.obj
 0001:0011e211       ??$forward@_K@std@@YA$$QA_KAA_K@Z 1011f211 f i libvcruntime:undname.obj
 0001:0011e219       ??0DName@@QAE@AAPBDD@Z     1011f219 f   libvcruntime:undname.obj
 0001:0011e299       ??0DName@@QAE@ABUStringLiteral@@@Z 1011f299 f   libvcruntime:undname.obj
 0001:0011e2c0       ??0DName@@QAE@PAV0@@Z      1011f2c0 f   libvcruntime:undname.obj
 0001:0011e307       ??0DName@@QAE@W4DNameStatus@@@Z 1011f307 f   libvcruntime:undname.obj
 0001:0011e347       ??0DName@@QAE@_J@Z         1011f347 f   libvcruntime:undname.obj
 0001:0011e3d3       ??0DName@@QAE@_K@Z         1011f3d3 f   libvcruntime:undname.obj
 0001:0011e439       ??0UnDecorator@@QAE@PBDP6APADJ@ZK@Z 1011f439 f i libvcruntime:undname.obj
 0001:0011e485       ??0pDNameNode@@QAE@PAVDName@@@Z 1011f485 f   libvcruntime:undname.obj
 0001:0011e4b4       ??2@YAPAXIAAV_HeapManager@@H@Z 1011f4b4 f   libvcruntime:undname.obj
 0001:0011e4d3       ??4DName@@QAEAAV0@ABUStringLiteral@@@Z 1011f4d3 f   libvcruntime:undname.obj
 0001:0011e4f4       ??4DName@@QAEAAV0@W4DNameStatus@@@Z 1011f4f4 f   libvcruntime:undname.obj
 0001:0011e526       ??AReplicator@@QBE?AVDName@@H@Z 1011f526 f   libvcruntime:undname.obj
 0001:0011e56c       ??H@YA?AVDName@@ABUStringLiteral@@ABV0@@Z 1011f56c f i libvcruntime:undname.obj
 0001:0011e58e       ??H@YA?AVDName@@DABV0@@Z   1011f58e f i libvcruntime:undname.obj
 0001:0011e5b9       ??H@YA?AVDName@@W4DNameStatus@@ABV0@@Z 1011f5b9 f i libvcruntime:undname.obj
 0001:0011e5db       ??HDName@@QBE?AV0@ABUStringLiteral@@@Z 1011f5db f   libvcruntime:undname.obj
 0001:0011e5fd       ??HDName@@QBE?AV0@ABV0@@Z  1011f5fd f   libvcruntime:undname.obj
 0001:0011e61f       ??HDName@@QBE?AV0@D@Z      1011f61f f   libvcruntime:undname.obj
 0001:0011e641       ??HDName@@QBE?AV0@W4DNameStatus@@@Z 1011f641 f   libvcruntime:undname.obj
 0001:0011e663       ??YDName@@QAEAAV0@ABUStringLiteral@@@Z 1011f663 f   libvcruntime:undname.obj
 0001:0011e6bb       ??YDName@@QAEAAV0@ABV0@@Z  1011f6bb f   libvcruntime:undname.obj
 0001:0011e712       ??YDName@@QAEAAV0@D@Z      1011f712 f   libvcruntime:undname.obj
 0001:0011e767       ??YDName@@QAEAAV0@W4DNameStatus@@@Z 1011f767 f   libvcruntime:undname.obj
 0001:0011e7a7       ??YReplicator@@QAEAAV0@ABVDName@@@Z 1011f7a7 f   libvcruntime:undname.obj
 0001:0011e7e5       ??_5DName@@QAEAAV0@ABV0@@Z 1011f7e5 f   libvcruntime:undname.obj
 0001:0011e801       ?Destructor@_HeapManager@@QAEXXZ 1011f801 f i libvcruntime:undname.obj
 0001:0011e839       ?UScore@UnDecorator@@SA?AUStringLiteral@@W4Tokens@@@Z 1011f839 f   libvcruntime:undname.obj
 0001:0011e860       ?composeDeclaration@UnDecorator@@CA?AVDName@@ABV2@@Z 1011f860 f i libvcruntime:undname.obj
 0001:0011f593       ?doPchar@DName@@AAEXD@Z    10120593 f   libvcruntime:undname.obj
 0001:0011f5cb       ?getAddressOf@UnDecorator@@CA?AVDName@@XZ 101205cb f   libvcruntime:undname.obj
 0001:0011f63e       ?getArgumentList@UnDecorator@@CA?AVDName@@XZ 1012063e f   libvcruntime:undname.obj
 0001:0011f74b       ?getArgumentTypes@UnDecorator@@CA?AVDName@@XZ 1012074b f   libvcruntime:undname.obj
 0001:0011f864       ?getArrayAccess@UnDecorator@@CA?AVDName@@XZ 10120864 f   libvcruntime:undname.obj
 0001:0011f8e3       ?getArrayObject@UnDecorator@@CA?AVDName@@XZ 101208e3 f   libvcruntime:undname.obj
 0001:0011f985       ?getArrayType@UnDecorator@@CA?AVDName@@ABV2@@Z 10120985 f i libvcruntime:undname.obj
 0001:0011fb22       ?getBasedType@UnDecorator@@CA?AVDName@@XZ 10120b22 f   libvcruntime:undname.obj
 0001:0011fbdd       ?getBasicDataType@UnDecorator@@CA?AVDName@@ABV2@@Z 10120bdd f   libvcruntime:undname.obj
 0001:00120111       ?getCallingConvention@UnDecorator@@CA?AVDName@@XZ 10121111 f   libvcruntime:undname.obj
 0001:001201ee       ?getDataIndirectType@UnDecorator@@CA?AVDName@@ABV2@W4IndirectionKind@@0H@Z 101211ee f   libvcruntime:undname.obj
 0001:00120884       ?getDataIndirectType@UnDecorator@@CA?AVDName@@XZ 10121884 f i libvcruntime:undname.obj
 0001:001208b2       ?getDataType@UnDecorator@@CA?AVDName@@PAV2@@Z 101218b2 f   libvcruntime:undname.obj
 0001:00120989       ?getDecoratedName@UnDecorator@@CA?AVDName@@XZ 10121989 f   libvcruntime:undname.obj
 0001:00120bf3       ?getDimension@UnDecorator@@CA?AVDName@@_N@Z 10121bf3 f   libvcruntime:undname.obj
 0001:00120d0a       ?getDispatchTarget@UnDecorator@@CA?AVDName@@XZ 10121d0a f   libvcruntime:undname.obj
 0001:00120d5e       ?getECSUDataType@UnDecorator@@CA?AVDName@@XZ 10121d5e f   libvcruntime:undname.obj
 0001:00120ef0       ?getEnumType@UnDecorator@@CA?AVDName@@XZ 10121ef0 f i libvcruntime:undname.obj
 0001:00121010       ?getExtendedDataIndirectType@UnDecorator@@CA?AVDName@@AAW4IndirectionKind@@AA_NH@Z 10122010 f   libvcruntime:undname.obj
 0001:001211c3       ?getExternalDataType@UnDecorator@@CA?AVDName@@ABV2@@Z 101221c3 f i libvcruntime:undname.obj
 0001:00121228       ?getFloatingPoint@UnDecorator@@CA?AVDName@@H@Z 10122228 f   libvcruntime:undname.obj
 0001:0012131c       ?getFunctionIndirectType@UnDecorator@@CA?AVDName@@ABV2@@Z 1012231c f   libvcruntime:undname.obj
 0001:001216d5       ?getLastChar@DName@@QBEDXZ 101226d5 f i libvcruntime:undname.obj
 0001:001216f5       ?getLastChar@DNameStatusNode@@UBEDXZ 101226f5 f i libvcruntime:undname.obj
 0001:00121701       ?getLastChar@charNode@@UBEDXZ 10122701 f i libvcruntime:undname.obj
 0001:00121705       ?getLastChar@pDNameNode@@UBEDXZ 10122705 f i libvcruntime:undname.obj
 0001:00121713       ?getLastChar@pairNode@@UBEDXZ 10122713 f i libvcruntime:undname.obj
 0001:00121748       ?getLastChar@pcharNode@@UBEDXZ 10122748 f i libvcruntime:undname.obj
 0001:0012175a       ?getLexicalFrame@UnDecorator@@CA?AVDName@@XZ 1012275a f i libvcruntime:undname.obj
 0001:0012178b       ?getMemberAccess@UnDecorator@@CA?AVDName@@XZ 1012278b f   libvcruntime:undname.obj
 0001:00121806       ?getMemoryWithBuffer@_HeapManager@@QAEPAXI@Z 10122806 f   libvcruntime:undname.obj
 0001:00121870       ?getMemoryWithoutBuffer@_HeapManager@@QAEPAXI@Z 10122870 f   libvcruntime:undname.obj
 0001:00121890       ?getNoexcept@UnDecorator@@CA?AVDName@@XZ 10122890 f   libvcruntime:undname.obj
 0001:001218e4       ?getNumberOfDimensions@UnDecorator@@CAHXZ 101228e4 f   libvcruntime:undname.obj
 0001:00121948       ?getOperatorName@UnDecorator@@CA?AVDName@@_NPA_N@Z 10122948 f i libvcruntime:undname.obj
 0001:001220ae       ?getPointerToMember@UnDecorator@@CA?AVDName@@XZ 101230ae f   libvcruntime:undname.obj
 0001:00122169       ?getPrimaryDataType@UnDecorator@@CA?AVDName@@ABV2@@Z 10123169 f   libvcruntime:undname.obj
 0001:001223b8       ?getPtrRefDataType@UnDecorator@@CA?AVDName@@ABV2@H@Z 101233b8 f   libvcruntime:undname.obj
 0001:00122525       ?getPtrRefType@UnDecorator@@CA?AVDName@@ABV2@0W4IndirectionKind@@@Z 10123525 f   libvcruntime:undname.obj
 0001:00122636       ?getRestrictionSpec@UnDecorator@@CA?AVDName@@XZ 10123636 f   libvcruntime:undname.obj
 0001:0012275e       ?getReturnType@UnDecorator@@CA?AVDName@@PAV2@@Z 1012375e f   libvcruntime:undname.obj
 0001:0012278d       ?getScope@UnDecorator@@CA?AVDName@@XZ 1012378d f   libvcruntime:undname.obj
 0001:00122b3f       ?getScopedName@UnDecorator@@CA?AVDName@@XZ 10123b3f f   libvcruntime:undname.obj
 0001:00122c2a       ?getSignedDimension@UnDecorator@@CA?AVDName@@XZ 10123c2a f   libvcruntime:undname.obj
 0001:00122c7b       ?getString@DName@@QBEPADPAD0@Z 10123c7b f i libvcruntime:undname.obj
 0001:00122ca8       ?getString@DName@@QBEPADPADH@Z 10123ca8 f i libvcruntime:undname.obj
 0001:00122cfd       ?getString@DNameStatusNode@@UBEPADPAD0@Z 10123cfd f i libvcruntime:undname.obj
 0001:00122d43       ?getString@charNode@@UBEPADPAD0@Z 10123d43 f i libvcruntime:undname.obj
 0001:00122d58       ?getString@pDNameNode@@UBEPADPAD0@Z 10123d58 f i libvcruntime:undname.obj
 0001:00122d6f       ?getString@pairNode@@UBEPADPAD0@Z 10123d6f f i libvcruntime:undname.obj
 0001:00122db5       ?getString@pcharNode@@UBEPADPAD0@Z 10123db5 f i libvcruntime:undname.obj
 0001:00122dd0       ?getStringEncoding@UnDecorator@@CA?AVDName@@W4PrefixKind@@H@Z 10123dd0 f   libvcruntime:undname.obj
 0001:00122e88       ?getStringHelper@@YAPADPADPBD1H@Z 10123e88 f i libvcruntime:undname.obj
 0001:00122eb2       ?getStringObject@UnDecorator@@CA?AVDName@@XZ 10123eb2 f   libvcruntime:undname.obj
 0001:00122f09       ?getSymbolName@UnDecorator@@CA?AVDName@@XZ 10123f09 f i libvcruntime:undname.obj
 0001:00122f51       ?getTemplateArgumentList@UnDecorator@@CA?AVDName@@XZ 10123f51 f   libvcruntime:undname.obj
 0001:0012310d       ?getTemplateName@UnDecorator@@CA?AVDName@@_N@Z 1012410d f   libvcruntime:undname.obj
 0001:0012326e       ?getTemplateNonTypeArgument@UnDecorator@@CA?AVDName@@XZ 1012426e f   libvcruntime:undname.obj
 0001:00123622       ?getTemplateTypeArgument@UnDecorator@@CA?AVDName@@XZ 10124622 f   libvcruntime:undname.obj
 0001:00123728       ?getThisType@UnDecorator@@CA?AVDName@@XZ 10124728 f i libvcruntime:undname.obj
 0001:00123757       ?getThrowTypes@UnDecorator@@CA?AVDName@@XZ 10124757 f   libvcruntime:undname.obj
 0001:0012377a       ?getTypeEncoding@UnDecorator@@CAHXZ 1012477a f i libvcruntime:undname.obj
 0001:00123ada       ?getUndecoratedName@UnDecorator@@QAEPADPADH@Z 10124ada f i libvcruntime:undname.obj
 0001:00123bf9       ?getUnionObject@UnDecorator@@CA?AVDName@@XZ 10124bf9 f   libvcruntime:undname.obj
 0001:00123ca8       ?getVCallThunkType@UnDecorator@@CA?AVDName@@XZ 10124ca8 f i libvcruntime:undname.obj
 0001:00123cfe       ?getValue@UnDecorator@@CA?AV?$optional@_K@std@@XZ 10124cfe f   libvcruntime:undname.obj
 0001:00123d6c       ?getValueObject@UnDecorator@@CA?AVDName@@XZ 10124d6c f   libvcruntime:undname.obj
 0001:00123e84       ?getVdispMapType@UnDecorator@@CA?AVDName@@ABV2@@Z 10124e84 f i libvcruntime:undname.obj
 0001:00123ee5       ?getVfTableType@UnDecorator@@CA?AVDName@@ABV2@@Z 10124ee5 f i libvcruntime:undname.obj
 0001:0012403b       ?getZName@UnDecorator@@CA?AVDName@@_N0@Z 1012503b f   libvcruntime:undname.obj
 0001:00124250       ?length@DName@@QBEHXZ      10125250 f i libvcruntime:undname.obj
 0001:0012426f       ?length@pDNameNode@@UBEHXZ 1012526f f i libvcruntime:undname.obj
 0001:0012427d       ?length@pairNode@@UBEHXZ   1012527d f i libvcruntime:undname.obj
 0001:001242c6       ?make@DNameStatusNode@@SAPBV1@W4DNameStatus@@@Z 101252c6 f i libvcruntime:undname.obj
 0001:001242e2       ?parseDecoratedName@UnDecorator@@CA?AVDName@@XZ 101252e2 f   libvcruntime:undname.obj
 0001:001243dc       ?raw_length@pDNameNode@@UBEHXZ 101253dc f i libvcruntime:undname.obj
 0001:00124432       ___unDName                 10125432 f   libvcruntime:undname.obj
 0001:00124455       ___unDNameEx               10125455 f   libvcruntime:undname.obj
 0001:001244f4       __vsprintf_s_l             101254f4 f i libvcruntime:undname.obj
 0001:00124521       _sprintf_s                 10125521 f i libvcruntime:undname.obj
 0001:00124540       _strchr                    10125540 f   libvcruntime:strchr.obj
 0001:001245ae       ___from_strstr_to_strchr   101255ae     libvcruntime:strchr.obj
 0001:00124670       __local_unwind4            10125670 f   libvcruntime:exsup4.obj
 0001:00124760       @_EH4_CallFilterFunc@8     10125760 f   libvcruntime:exsup4.obj
 0001:00124780       @_EH4_TransferToHandler@8  10125780 f   libvcruntime:exsup4.obj
 0001:001247a0       @_EH4_GlobalUnwind2@8      101257a0 f   libvcruntime:exsup4.obj
 0001:001247c0       @_EH4_LocalUnwind@16       101257c0 f   libvcruntime:exsup4.obj
 0001:001247d7       ___except_validate_context_record 101257d7 f   libvcruntime:jbcxrval.obj
 0001:00124807       ___vcrt_freefls@4          10125807 f   libvcruntime:per_thread_data.obj
 0001:00124823       ___vcrt_freeptd            10125823 f   libvcruntime:per_thread_data.obj
 0001:00124859       ___vcrt_getptd             10125859 f   libvcruntime:per_thread_data.obj
 0001:00124867       ___vcrt_getptd_noexit      10125867 f   libvcruntime:per_thread_data.obj
 0001:001248f9       ___vcrt_initialize_ptd     101258f9 f   libvcruntime:per_thread_data.obj
 0001:0012492c       ___vcrt_uninitialize_ptd   1012592c f   libvcruntime:per_thread_data.obj
 0001:00124947       ___vcrt_initialize_locks   10125947 f   libvcruntime:locks.obj
 0001:00124983       ___vcrt_lock               10125983 f   libvcruntime:locks.obj
 0001:00124998       ___vcrt_uninitialize_locks 10125998 f   libvcruntime:locks.obj
 0001:001249c7       ___vcrt_unlock             101259c7 f   libvcruntime:locks.obj
 0001:001249dc       ?GetRangeOfTrysToCheck@__FrameHandler3@@SA?AU?$pair@Viterator@TryBlockMap@__FrameHandler3@@V123@@std@@AAVTryBlockMap@1@HPAXPBU_s_FuncInfo@@H@Z 101259dc f   libvcruntime:trnsctrl.obj
 0001:00124a4c       ?_CallCatchBlock2@@YAPAXPAUEHRegistrationNode@@PBU_s_FuncInfo@@PAXHK@Z 10125a4c f   libvcruntime:trnsctrl.obj
 0001:00124aa9       ?_CallSETranslator@@YAHPAUEHExceptionRecord@@PAUEHRegistrationNode@@PAX2PBU_s_FuncInfo@@H1@Z 10125aa9 f   libvcruntime:trnsctrl.obj
 0001:00124b9f       ?_JumpToContinuation@@YGXPAXPAUEHRegistrationNode@@@Z 10125b9f f   libvcruntime:trnsctrl.obj
 0001:00124bcf       ?_UnwindNestedFrames@@YGXPAUEHRegistrationNode@@PAUEHExceptionRecord@@@Z 10125bcf f   libvcruntime:trnsctrl.obj
 0001:00124c22       __CatchGuardHandler        10125c22 f   libvcruntime:trnsctrl.obj
 0001:00124c53       __CreateFrameInfo          10125c53 f   libvcruntime:trnsctrl.obj
 0001:00124c77       __FindAndUnlinkFrame       10125c77 f   libvcruntime:trnsctrl.obj
 0001:00124cbf       __TranslatorGuardHandler   10125cbf f   libvcruntime:trnsctrl.obj
 0001:00124d5c       ___CxxFrameHandler3        10125d5c f   libvcruntime:trnsctrl.obj
 0001:00124da0       __NLG_Notify1              10125da0 f   libvcruntime:exsup.obj
 0001:00124db0       __NLG_Notify               10125db0 f   libvcruntime:exsup.obj
 0001:00124dc7       __NLG_Dispatch             10125dc7     libvcruntime:exsup.obj
 0001:00124dc7       __NLG_Dispatch2            10125dc7     libvcruntime:exsup.obj
 0001:00124dd0       __NLG_Call                 10125dd0 f   libvcruntime:exsup.obj
 0001:00124dd2       __NLG_Return2              10125dd2     libvcruntime:exsup.obj
 0001:00124eb6       ___vcrt_FlsAlloc           10125eb6 f   libvcruntime:winapi_downlevel.obj
 0001:00124ef1       ___vcrt_FlsFree            10125ef1 f   libvcruntime:winapi_downlevel.obj
 0001:00124f2c       ___vcrt_FlsGetValue        10125f2c f   libvcruntime:winapi_downlevel.obj
 0001:00124f67       ___vcrt_FlsSetValue        10125f67 f   libvcruntime:winapi_downlevel.obj
 0001:00124fa5       ___vcrt_InitializeCriticalSectionEx 10125fa5 f   libvcruntime:winapi_downlevel.obj
 0001:00125723       ??$TypeMatchHelper@V__FrameHandler3@@@@YAHPBU_s_HandlerType@@PBU_s_CatchableType@@PBU_s_ThrowInfo@@@Z 10126723 f i libvcruntime:frame.obj
 0001:001257b1       ??$__InternalCxxFrameHandler@V__FrameHandler3@@@@YA?AW4_EXCEPTION_DISPOSITION@@PAUEHExceptionRecord@@PAUEHRegistrationNode@@PAU_CONTEXT@@PAXPBU_s_FuncInfo@@H1E@Z 101267b1 f i libvcruntime:frame.obj
 0001:001258b3       ??0bad_exception@std@@QAE@ABV01@@Z 101268b3 f i libvcruntime:frame.obj
 0001:001258ce       ??0bad_exception@std@@QAE@XZ 101268ce f i libvcruntime:frame.obj
 0001:001258e6       ??0exception@std@@QAE@ABV01@@Z 101268e6 f i libvcruntime:frame.obj
 0001:00125912       ??1bad_exception@std@@UAE@XZ 10126912 f i libvcruntime:frame.obj
 0001:00125923       ??8type_info@@QBE_NABV0@@Z 10126923 f i libvcruntime:frame.obj
 0001:00125942       ??_Eexception@std@@UAEPAXI@Z 10126942 f i libvcruntime:frame.obj
 0001:00125942       ??_Gbad_exception@std@@UAEPAXI@Z 10126942 f i libvcruntime:frame.obj
 0001:00125942       ??_Gexception@std@@UAEPAXI@Z 10126942 f i libvcruntime:frame.obj
 0001:00125942       ??_Ebad_exception@std@@UAEPAXI@Z 10126942 f i libvcruntime:frame.obj
 0001:00125bbc       ?FrameUnwindToEmptyState@__FrameHandler3@@SAXPAUEHRegistrationNode@@PAXPBU_s_FuncInfo@@@Z 10126bbc f   libvcruntime:frame.obj
 0001:00125bd4       ?FrameUnwindToState@__FrameHandler3@@SAXPAUEHRegistrationNode@@PAXPBU_s_FuncInfo@@H@Z 10126bd4 f   libvcruntime:frame.obj
 0001:00125d56       ?_CallMemberFunction1@@YGXQAX00@Z 10126d56 f i libvcruntime:frame.obj
 0001:00125d66       ?_CallMemberFunction2@@YGXQAX00H@Z 10126d66 f i libvcruntime:frame.obj
 0001:00125d79       ?getESTypes@__FrameHandler3@@SAPBU_s_ESTypeList@@PBU_s_FuncInfo@@@Z 10126d79 f i libvcruntime:frame.obj
 0001:00125d84       ?what@exception@std@@UBEPBDXZ 10126d84 f i libvcruntime:frame.obj
 0001:00125da0       __CallSettingFrame@12      10126da0 f   libvcruntime:lowhelpr.obj
 0001:00125dc7       __NLG_Return               10126dc7     libvcruntime:lowhelpr.obj
 0001:00125dec       _unexpected                10126dec f   libvcruntime:unexpected.obj
 0001:00125e09       ?GetCurrentState@__FrameHandler3@@SAHPAUEHRegistrationNode@@PAXPBU_s_FuncInfo@@@Z 10126e09 f   libvcruntime:ehstate.obj
 0001:00125e26       ?SetState@__FrameHandler3@@SAXPAUEHRegistrationNode@@PBU_s_FuncInfo@@H@Z 10126e26 f   libvcruntime:ehstate.obj
 0001:00125e34       ___std_exception_copy      10126e34 f   libvcruntime:std_exception.obj
 0001:00125e97       ___std_exception_destroy   10126e97 f   libvcruntime:std_exception.obj
 0001:00125eb6       __CxxThrowException@8      10126eb6 f   libvcruntime:throw.obj
 0001:00125f30       ___libm_sse2_tanf          10126f30 f   libucrt:tanf_sse2.obj
 0001:001260d0       _ceil                      101270d0 f   libucrt:ceil_pentium4.obj
 0001:00126110       __ceil_pentium4            10127110 f   libucrt:ceil_pentium4.obj
 0001:001261ed       __fpclass                  101271ed f   libucrt:ieeemisc.obj
 0001:00126291       ___libm_sse2_acosf         10127291 f   libucrt:acosf_sse2.obj
 0001:0012666e       __errcode                  1012766e f   libucrt:fpexcept.obj
 0001:001266a2       __except1                  101276a2 f   libucrt:fpexcept.obj
 0001:00126770       __handle_exc               10127770 f   libucrt:fpexcept.obj
 0001:001269e9       __raise_exc                101279e9 f   libucrt:fpexcept.obj
 0001:00126a0c       __raise_exc_ex             10127a0c f   libucrt:fpexcept.obj
 0001:00126d02       __set_errno_from_matherr   10127d02 f   libucrt:fpexcept.obj
 0001:00126d31       __umatherr                 10127d31 f   libucrt:fpexcept.obj
 0001:00126dd1       _free                      10127dd1 f   libucrt:free.obj
 0001:00126dec       __initterm                 10127dec f   libucrt:initterm.obj
 0001:00126e17       __initterm_e               10127e17 f   libucrt:initterm.obj
 0001:00126e45       __seh_filter_dll           10127e45 f   libucrt:exception_filter.obj
 0001:00126e65       __seh_filter_exe           10127e65 f   libucrt:exception_filter.obj
 0001:00127292       ___acrt_initialize_thread_local_exit_callback 10128292 f   libucrt:exit.obj
 0001:001272a1       __cexit                    101282a1 f   libucrt:exit.obj
 0001:001272b0       __exit                     101282b0 f   libucrt:exit.obj
 0001:001272c6       __is_c_termination_complete 101282c6 f   libucrt:exit.obj
 0001:0012757e       ___acrt_allocate_buffer_for_argv 1012857e f   libucrt:argv_parsing.obj
 0001:001275cd       __configure_narrow_argv    101285cd f   libucrt:argv_parsing.obj
 0001:00127779       ___dcrt_uninitialize_environments_nolock 10128779 f   libucrt:environment_initialization.obj
 0001:001277ca       __initialize_narrow_environment 101287ca f   libucrt:environment_initialization.obj
 0001:00127904       __execute_onexit_table     10128904 f   libucrt:onexit.obj
 0001:00127942       __initialize_onexit_table  10128942 f   libucrt:onexit.obj
 0001:001279bb       ___acrt_uninitialize_command_line 101289bb f   libucrt:argv_data.obj
 0001:00127a3b       ??$__crt_fast_encode_pointer@PAX@@YAPAXQAX@Z 10128a3b f i libucrt:initialization.obj
 0001:00127a88       ___acrt_initialize         10128a88 f   libucrt:initialization.obj
 0001:00127a9a       ___acrt_thread_attach      10128a9a f   libucrt:initialization.obj
 0001:00127aa5       ___acrt_thread_detach      10128aa5 f   libucrt:initialization.obj
 0001:00127aad       ___acrt_uninitialize       10128aad f   libucrt:initialization.obj
 0001:00127add       ___acrt_uninitialize_critical 10128add f   libucrt:initialization.obj
 0001:00127aef       _terminate                 10128aef f   libucrt:terminate.obj
 0001:00127b2b       _abort                     10128b2b f   libucrt:abort.obj
 0001:00127b6f       _malloc                    10128b6f f   libucrt:malloc.obj
 0001:00127b7a       _strcpy_s                  10128b7a f   libucrt:strcpy_s.obj
 0001:00127de7       ??$count@D@formatting_buffer@__crt_stdio_output@@QBEIXZ 10128de7 f i libucrt:output.obj
 0001:00127dff       ??$ensure_buffer_is_big_enough@D@formatting_buffer@__crt_stdio_output@@QAE_NIAAV__crt_cached_ptd_host@@@Z 10128dff f i libucrt:output.obj
 0001:00127e80       ??$is_overflow_condition@K@__crt_strtox@@YA_NIK@Z 10128e80 f i libucrt:output.obj
 0001:00127eb1       ??$is_wide_character_specifier@D@__crt_stdio_output@@YA_N_KDW4length_modifier@0@@Z 10128eb1 f i libucrt:output.obj
 0001:00127ee2       ??$parse_integer@KV?$c_string_character_source@D@__crt_strtox@@$0A@@__crt_strtox@@YAKAAV__crt_cached_ptd_host@@V?$c_string_character_source@D@0@H_N@Z 10128ee2 f i libucrt:output.obj
 0001:001280f1       ??$scratch_data@D@formatting_buffer@__crt_stdio_output@@QAEPADXZ 101290f1 f i libucrt:output.obj
 0001:0012810f       ??$type_case_integer@$07@?$output_processor@DV?$string_output_adapter@D@__crt_stdio_output@@V?$format_validation_base@DV?$string_output_adapter@D@__crt_stdio_output@@@2@@__crt_stdio_output@@AAE_N_N@Z 1012910f f i libucrt:output.obj
 0001:0012828c       ??$type_case_integer@$09@?$output_processor@DV?$string_output_adapter@D@__crt_stdio_output@@V?$format_validation_base@DV?$string_output_adapter@D@__crt_stdio_output@@@2@@__crt_stdio_output@@AAE_N_N@Z 1012928c f i libucrt:output.obj
 0001:00128409       ??$type_case_integer@$0BA@@?$output_processor@DV?$string_output_adapter@D@__crt_stdio_output@@V?$format_validation_base@DV?$string_output_adapter@D@__crt_stdio_output@@@2@@__crt_stdio_output@@AAE_N_N@Z 10129409 f i libucrt:output.obj
 0001:00128586       ??$type_case_integer_parse_into_buffer@I$07@?$output_processor@DV?$string_output_adapter@D@__crt_stdio_output@@V?$format_validation_base@DV?$string_output_adapter@D@__crt_stdio_output@@@2@@__crt_stdio_output@@AAEXI_N@Z 10129586 f i libucrt:output.obj
 0001:001285f0       ??$type_case_integer_parse_into_buffer@I$09@?$output_processor@DV?$string_output_adapter@D@__crt_stdio_output@@V?$format_validation_base@DV?$string_output_adapter@D@__crt_stdio_output@@@2@@__crt_stdio_output@@AAEXI_N@Z 101295f0 f i libucrt:output.obj
 0001:0012866a       ??$type_case_integer_parse_into_buffer@I$0BA@@?$output_processor@DV?$string_output_adapter@D@__crt_stdio_output@@V?$format_validation_base@DV?$string_output_adapter@D@__crt_stdio_output@@@2@@__crt_stdio_output@@AAEXI_N@Z 1012966a f i libucrt:output.obj
 0001:001286f2       ??$type_case_integer_parse_into_buffer@_K$07@?$output_processor@DV?$string_output_adapter@D@__crt_stdio_output@@V?$format_validation_base@DV?$string_output_adapter@D@__crt_stdio_output@@@2@@__crt_stdio_output@@AAEX_K_N@Z 101296f2 f i libucrt:output.obj
 0001:0012876a       ??$type_case_integer_parse_into_buffer@_K$09@?$output_processor@DV?$string_output_adapter@D@__crt_stdio_output@@V?$format_validation_base@DV?$string_output_adapter@D@__crt_stdio_output@@@2@@__crt_stdio_output@@AAEX_K_N@Z 1012976a f i libucrt:output.obj
 0001:00128806       ??$type_case_integer_parse_into_buffer@_K$0BA@@?$output_processor@DV?$string_output_adapter@D@__crt_stdio_output@@V?$format_validation_base@DV?$string_output_adapter@D@__crt_stdio_output@@@2@@__crt_stdio_output@@AAEX_K_N@Z 10129806 f i libucrt:output.obj
 0001:00128898       ??0?$output_adapter_data@DV?$string_output_adapter@D@__crt_stdio_output@@@__crt_stdio_output@@IAE@ABV?$string_output_adapter@D@1@_KQBDAAV__crt_cached_ptd_host@@QAD@Z 10129898 f i libucrt:output.obj
 0001:00128900       ??0__crt_cached_ptd_host@@QAE@QAU__crt_locale_pointers@@@Z 10129900 f i libucrt:output.obj
 0001:00128960       ??1__crt_cached_ptd_host@@QAE@XZ 10129960 f i libucrt:output.obj
 0001:0012899c       ??1formatting_buffer@__crt_stdio_output@@QAE@XZ 1012999c f i libucrt:output.obj
 0001:001289b6       ??4?$__crt_unique_heap_ptr@DU__crt_internal_free_policy@@@@QAEAAV0@$$QAV0@@Z 101299b6 f i libucrt:output.obj
 0001:001289da       ?crop_zeroes@__crt_stdio_output@@YAXPADQAU__crt_locale_pointers@@@Z 101299da f i libucrt:output.obj
 0001:00128a3a       ?find_next_state@?$output_processor@DV?$string_output_adapter@D@__crt_stdio_output@@V?$format_validation_base@DV?$string_output_adapter@D@__crt_stdio_output@@@2@@__crt_stdio_output@@ABE?AW4state@2@DW432@@Z 10129a3a f i libucrt:output.obj
 0001:00128a77       ?force_decimal_point@__crt_stdio_output@@YAXPADQAU__crt_locale_pointers@@@Z 10129a77 f i libucrt:output.obj
 0001:00128ae0       ?force_synchronize_per_thread_data@__crt_cached_ptd_host@@AAEPAU__acrt_ptd@@XZ 10129ae0 f i libucrt:output.obj
 0001:00128b30       ?get_raw_ptd@__crt_cached_ptd_host@@QAEPAU__acrt_ptd@@XZ 10129b30 f i libucrt:output.obj
 0001:00128b8c       ?parse_int_from_format_string@?$output_processor@DV?$string_output_adapter@D@__crt_stdio_output@@V?$format_validation_base@DV?$string_output_adapter@D@__crt_stdio_output@@@2@@__crt_stdio_output@@AAE_NQAH@Z 10129b8c f i libucrt:output.obj
 0001:00128c04       ?process@?$output_processor@DV?$string_output_adapter@D@__crt_stdio_output@@V?$format_validation_base@DV?$string_output_adapter@D@__crt_stdio_output@@@2@@__crt_stdio_output@@QAEHXZ 10129c04 f i libucrt:output.obj
 0001:00128ee4       ?state_case_size@?$output_processor@DV?$string_output_adapter@D@__crt_stdio_output@@V?$format_validation_base@DV?$string_output_adapter@D@__crt_stdio_output@@@2@@__crt_stdio_output@@AAE_NXZ 10129ee4 f i libucrt:output.obj
 0001:00129042       ?state_case_type@?$output_processor@DV?$string_output_adapter@D@__crt_stdio_output@@V?$format_validation_base@DV?$string_output_adapter@D@__crt_stdio_output@@@2@@__crt_stdio_output@@AAE_NXZ 1012a042 f i libucrt:output.obj
 0001:001293d0       ?to_integer_size@__crt_stdio_output@@YAIW4length_modifier@1@@Z 1012a3d0 f i libucrt:output.obj
 0001:00129424       ?type_case_Z@?$output_processor@DV?$string_output_adapter@D@__crt_stdio_output@@V?$format_validation_base@DV?$string_output_adapter@D@__crt_stdio_output@@@2@@__crt_stdio_output@@AAE_NXZ 1012a424 f i libucrt:output.obj
 0001:0012947e       ?type_case_a@?$output_processor@DV?$string_output_adapter@D@__crt_stdio_output@@V?$format_validation_base@DV?$string_output_adapter@D@__crt_stdio_output@@@2@@__crt_stdio_output@@AAE_NXZ 1012a47e f i libucrt:output.obj
 0001:00129608       ?type_case_c_tchar@?$output_processor@DV?$string_output_adapter@D@__crt_stdio_output@@V?$format_validation_base@DV?$string_output_adapter@D@__crt_stdio_output@@@2@@__crt_stdio_output@@AAE_ND@Z 1012a608 f i libucrt:output.obj
 0001:0012969d       ?type_case_n@?$output_processor@DV?$string_output_adapter@D@__crt_stdio_output@@V?$format_validation_base@DV?$string_output_adapter@D@__crt_stdio_output@@@2@@__crt_stdio_output@@AAE_NXZ 1012a69d f i libucrt:output.obj
 0001:00129721       ?type_case_o@?$output_processor@DV?$string_output_adapter@D@__crt_stdio_output@@V?$format_validation_base@DV?$string_output_adapter@D@__crt_stdio_output@@@2@@__crt_stdio_output@@AAE_NXZ 1012a721 f i libucrt:output.obj
 0001:0012973e       ?type_case_p@?$output_processor@DV?$string_output_adapter@D@__crt_stdio_output@@V?$format_validation_base@DV?$string_output_adapter@D@__crt_stdio_output@@@2@@__crt_stdio_output@@AAE_NXZ 1012a73e f i libucrt:output.obj
 0001:00129754       ?type_case_s@?$output_processor@DV?$string_output_adapter@D@__crt_stdio_output@@V?$format_validation_base@DV?$string_output_adapter@D@__crt_stdio_output@@@2@@__crt_stdio_output@@AAE_NXZ 1012a754 f i libucrt:output.obj
 0001:001297c5       ?unget@?$c_string_character_source@D@__crt_strtox@@QAEXD@Z 1012a7c5 f i libucrt:output.obj
 0001:001297f0       ?update_locale_slow@__crt_cached_ptd_host@@AAEXXZ 1012a7f0 f i libucrt:output.obj
 0001:0012984b       ?validate@?$c_string_character_source@D@__crt_strtox@@QBE_NXZ 1012a84b f i libucrt:output.obj
 0001:00129866       ?validate@?$string_output_adapter@D@__crt_stdio_output@@QBE_NAAV__crt_cached_ptd_host@@@Z 1012a866 f i libucrt:output.obj
 0001:00129897       ?write_string@?$string_output_adapter@D@__crt_stdio_output@@QBEXQBDHQAHAAV__crt_cached_ptd_host@@@Z 1012a897 f i libucrt:output.obj
 0001:001298fe       ___acrt_locale_get_ctype_array_value 1012a8fe f i libucrt:output.obj
 0001:00129920       ___stdio_common_vsprintf_s 1012a920 f   libucrt:output.obj
 0001:00129961       ??$parse_integer@KV?$c_string_character_source@D@__crt_strtox@@$00@__crt_strtox@@YAKAAV__crt_cached_ptd_host@@V?$c_string_character_source@D@0@H_N@Z 1012a961 f i libucrt:atox.obj
 0001:00129ba8       __ischartype_l             1012aba8 f i libucrt:atox.obj
 0001:00129bff       _atol                      1012abff f   libucrt:atox.obj
 0001:00129c40       _strncmp                   1012ac40 f   libucrt:strncmp.obj
 0001:00129cb8       _calloc                    1012acb8 f   libucrt:calloc.obj
 0001:00129cc3       _wcsncmp                   1012acc3 f   libucrt:wcsncmp.obj
 0001:00129d00       _cos                       1012ad00 f   libucrt:cos.obj
 0001:00129d50       _sin                       1012ad50 f   libucrt:sin.obj
 0001:00129da0       _tan                       1012ada0 f   libucrt:tan.obj
 0001:00129de3       ___libm_error_support      1012ade3 f   libucrt:libm_error.obj
 0001:00129fd7       ___acrt_initialize_sse2    1012afd7 f   libucrt:mathfcns.obj
 0001:00129fe7       __ceil_default             1012afe7 f   libucrt:ceil.obj
 0001:0012a09c       __decomp                   1012b09c f   libucrt:util.obj
 0001:0012a16e       __set_exp                  1012b16e f   libucrt:util.obj
 0001:0012a19b       __sptype                   1012b19b f   libucrt:util.obj
 0001:0012a1f9       ___set_fpsr_sse2           1012b1f9 f   libucrt:fpctrl.obj
 0001:0012a279       __clrfp                    1012b279 f   libucrt:fpctrl.obj
 0001:0012a28a       __ctrlfp                   1012b28a f   libucrt:fpctrl.obj
 0001:0012a2b4       __set_statfp               1012b2b4 f   libucrt:fpctrl.obj
 0001:0012a30d       __statfp                   1012b30d f   libucrt:fpctrl.obj
 0001:0012a31d       ___acrt_errno_from_os_error 1012b31d f   libucrt:errno.obj
 0001:0012a360       ___acrt_errno_map_os_error 1012b360 f   libucrt:errno.obj
 0001:0012a383       ___acrt_errno_map_os_error_ptd 1012b383 f   libucrt:errno.obj
 0001:0012a3a7       ___doserrno                1012b3a7 f   libucrt:errno.obj
 0001:0012a3ba       __errno                    1012b3ba f   libucrt:errno.obj
 0001:0012a3cd       ___acrt_has_user_matherr   1012b3cd f   libucrt:matherr.obj
 0001:0012a3e5       ___acrt_initialize_user_matherr 1012b3e5 f   libucrt:matherr.obj
 0001:0012a3f4       ___acrt_invoke_user_matherr 1012b3f4 f   libucrt:matherr.obj
 0001:0012a426       _fegetround                1012b426 f   libucrt:fegetround.obj
 0001:0012a433       __free_base                1012b433 f   libucrt:free_base.obj
 0001:0012a7ab       ___acrt_freeptd            1012b7ab f   libucrt:per_thread_data.obj
 0001:0012a7d7       ___acrt_getptd             1012b7d7 f   libucrt:per_thread_data.obj
 0001:0012a892       ___acrt_getptd_head        1012b892 f   libucrt:per_thread_data.obj
 0001:0012a928       ___acrt_getptd_noexit      1012b928 f   libucrt:per_thread_data.obj
 0001:0012a9d9       ___acrt_getptd_noexit_explicit 1012b9d9 f   libucrt:per_thread_data.obj
 0001:0012aa7c       ___acrt_initialize_ptd     1012ba7c f   libucrt:per_thread_data.obj
 0001:0012aaa8       ___acrt_uninitialize_ptd   1012baa8 f   libucrt:per_thread_data.obj
 0001:0012aac2       ___acrt_initialize_locks   1012bac2 f   libucrt:locks.obj
 0001:0012ab03       ___acrt_lock               1012bb03 f   libucrt:locks.obj
 0001:0012ab1a       ___acrt_uninitialize_locks 1012bb1a f   libucrt:locks.obj
 0001:0012ab4b       ___acrt_unlock             1012bb4b f   libucrt:locks.obj
 0001:0012ab62       ___acrt_get_process_end_policy 1012bb62 f   libucrt:win_policies.obj
 0001:0012ab93       ?check_synchronize_global_state_index@__crt_cached_ptd_host@@AAEIXZ 1012bb93 f i libucrt:invalid_parameter.obj
 0001:0012abbc       ___acrt_call_reportfault   1012bbbc f   libucrt:invalid_parameter.obj
 0001:0012acf5       ___acrt_initialize_invalid_parameter_handler 1012bcf5 f   libucrt:invalid_parameter.obj
 0001:0012ad04       __invalid_parameter        1012bd04 f   libucrt:invalid_parameter.obj
 0001:0012ad3b       __invalid_parameter_internal 1012bd3b f   libucrt:invalid_parameter.obj
 0001:0012adb8       __invalid_parameter_noinfo 1012bdb8 f   libucrt:invalid_parameter.obj
 0001:0012adc8       __invoke_watson            1012bdc8 f   libucrt:invalid_parameter.obj
 0001:0012adfc       __calloc_base              1012bdfc f   libucrt:calloc_base.obj
 0001:0012ae71       ??$__acrt_convert_wcs_mbs_cp@D_WV<lambda_62f6974d9771e494a5ea317cc32e971c>@@U__crt_win32_buffer_internal_dynamic_resizing@@@@YAHQBDAAV?$__crt_win32_buffer@_WU__crt_win32_buffer_internal_dynamic_resizing@@@@ABV<lambda_62f6974d9771e494a5ea317cc32e971c>@@I@Z 1012be71 f i libucrt:argv_wildcards.obj
 0001:0012af23       ??$__acrt_convert_wcs_mbs_cp@_WDV<lambda_28bda7af82a03b66c1cb3803a755f95d>@@U__crt_win32_buffer_internal_dynamic_resizing@@@@YAHQB_WAAV?$__crt_win32_buffer@DU__crt_win32_buffer_internal_dynamic_resizing@@@@ABV<lambda_28bda7af82a03b66c1cb3803a755f95d>@@I@Z 1012bf23 f i libucrt:argv_wildcards.obj
 0001:0012afe9       ??$__acrt_mbs_to_wcs_cp@U__crt_win32_buffer_internal_dynamic_resizing@@@@YAHQBDAAV?$__crt_win32_buffer@_WU__crt_win32_buffer_internal_dynamic_resizing@@@@I@Z 1012bfe9 f i libucrt:argv_wildcards.obj
 0001:0012b4b9       ??0_LocaleUpdate@@QAE@QAU__crt_locale_pointers@@@Z 1012c4b9 f i libucrt:argv_wildcards.obj
 0001:0012b564       ??R<lambda_0fec1a7b3f42a53036604e18c2d5e07e>@@QBEHIQB_WQADI@Z 1012c564 f i libucrt:getmodulefilenamea.obj
 0001:0012b564       ??R<lambda_28bda7af82a03b66c1cb3803a755f95d>@@QBEHIQB_WQADI@Z 1012c564 f i libucrt:argv_wildcards.obj
 0001:0012b588       ?__acrt_get_utf8_acp_compatibility_codepage@@YAIXZ 1012c588 f i libucrt:argv_wildcards.obj
 0001:0012b5c7       ?_deallocate@?$__crt_win32_buffer@_WU__crt_win32_buffer_internal_dynamic_resizing@@@@AAEXXZ 1012c5c7 f i libucrt:argv_wildcards.obj
 0001:0012b5c7       ?_deallocate@?$__crt_win32_buffer@DU__crt_win32_buffer_internal_dynamic_resizing@@@@AAEXXZ 1012c5c7 f i libucrt:argv_wildcards.obj
 0001:0012b5e1       ?allocate@?$__crt_win32_buffer@DU__crt_win32_buffer_internal_dynamic_resizing@@@@QAEHI@Z 1012c5e1 f i libucrt:argv_wildcards.obj
 0001:0012b61d       ?allocate@?$__crt_win32_buffer@_WU__crt_win32_buffer_internal_dynamic_resizing@@@@QAEHI@Z 1012c61d f i libucrt:argv_wildcards.obj
 0001:0012b65c       ?allocate@__crt_win32_buffer_internal_dynamic_resizing@@SAHQAPAXIABV__crt_win32_buffer_empty_debug_info@@@Z 1012c65c f i libucrt:argv_wildcards.obj
 0001:0012b702       ___acrt_expand_narrow_argv_wildcards 1012c702 f   libucrt:argv_wildcards.obj
 0001:0012b70d       ??$__acrt_convert_wcs_mbs_cp@_WDV<lambda_0fec1a7b3f42a53036604e18c2d5e07e>@@U__crt_win32_buffer_no_resizing@@@@YAHQB_WAAV?$__crt_win32_buffer@DU__crt_win32_buffer_no_resizing@@@@ABV<lambda_0fec1a7b3f42a53036604e18c2d5e07e>@@I@Z 1012c70d f i libucrt:getmodulefilenamea.obj
 0001:0012b7cf       ?allocate@?$__crt_win32_buffer@DU__crt_win32_buffer_no_resizing@@@@QAEHI@Z 1012c7cf f i libucrt:getmodulefilenamea.obj
 0001:0012b7f6       ?set_to_nullptr@?$__crt_win32_buffer@DU__crt_win32_buffer_no_resizing@@@@QAEXXZ 1012c7f6 f i libucrt:getmodulefilenamea.obj
 0001:0012b80a       ___acrt_GetModuleFileNameA 1012c80a f   libucrt:getmodulefilenamea.obj
 0001:0012be2e       ___acrt_initialize_multibyte 1012ce2e f   libucrt:mbctype.obj
 0001:0012be76       ___acrt_update_thread_multibyte_data 1012ce76 f   libucrt:mbctype.obj
 0001:0012be89       __setmbcp_nolock           1012ce89 f   libucrt:mbctype.obj
 0001:0012c162       __ismbblead                1012d162 f   libucrt:ismbbyte.obj
 0001:0012c17a       ___acrt_initialize_command_line 1012d17a f   libucrt:argv_data.obj
 0001:0012c193       ___acrt_MultiByteToWideChar 1012d193 f   libucrt:multibytetowidechar.obj
 0001:0012c20f       ___acrt_WideCharToMultiByte 1012d20f f   libucrt:widechartomultibyte.obj
 0001:0012c2fd       ___dcrt_get_narrow_environment_from_os 1012d2fd f   libucrt:get_environment_from_os.obj
 0001:0012c39d       __recalloc_base            1012d39d f   libucrt:recalloc.obj
 0001:0012c5a6       ___acrt_AppPolicyGetProcessTerminationMethodInternal@4 1012d5a6 f   libucrt:winapi_thunks.obj
 0001:0012c5e6       ___acrt_AreFileApisANSI@0  1012d5e6 f   libucrt:winapi_thunks.obj
 0001:0012c605       ___acrt_FlsAlloc@4         1012d605 f   libucrt:winapi_thunks.obj
 0001:0012c644       ___acrt_FlsFree@4          1012d644 f   libucrt:winapi_thunks.obj
 0001:0012c683       ___acrt_FlsGetValue@4      1012d683 f   libucrt:winapi_thunks.obj
 0001:0012c6c2       ___acrt_FlsSetValue@8      1012d6c2 f   libucrt:winapi_thunks.obj
 0001:0012c704       ___acrt_InitializeCriticalSectionEx@12 1012d704 f   libucrt:winapi_thunks.obj
 0001:0012c74f       ___acrt_LCMapStringEx@36   1012d74f f   libucrt:winapi_thunks.obj
 0001:0012c7ac       ___acrt_LocaleNameToLCID@8 1012d7ac f   libucrt:winapi_thunks.obj
 0001:0012c7dd       ___acrt_initialize_winapi_thunks 1012d7dd f   libucrt:winapi_thunks.obj
 0001:0012c7f1       ___acrt_uninitialize_winapi_thunks 1012d7f1 f   libucrt:winapi_thunks.obj
 0001:0012c827       ___acrt_initialize_heap    1012d827 f   libucrt:heap_handle.obj
 0001:0012c838       ___acrt_uninitialize_heap  1012d838 f   libucrt:heap_handle.obj
 0001:0012c9a8       ___acrt_initialize_lowio   1012d9a8 f   libucrt:ioinit.obj
 0001:0012ca08       ___acrt_uninitialize_lowio 1012da08 f   libucrt:ioinit.obj
 0001:0012ca34       ___acrt_execute_initializers 1012da34 f   libucrt:shared_initialization.obj
 0001:0012ca9c       ___acrt_execute_uninitializers 1012da9c f   libucrt:shared_initialization.obj
 0001:0012cacd       ___acrt_initialize_new_handler 1012dacd f   libucrt:new_handler.obj
 0001:0012cadc       __callnewh                 1012dadc f   libucrt:new_handler.obj
 0001:0012cb09       __query_new_handler        1012db09 f   libucrt:new_handler.obj
 0001:0012cc33       ___acrt_get_sigabrt_handler 1012dc33 f   libucrt:signal.obj
 0001:0012cc5a       ___acrt_initialize_signal_handlers 1012dc5a f   libucrt:signal.obj
 0001:0012cc78       _raise                     1012dc78 f   libucrt:signal.obj
 0001:0012d048       ___acrt_stdio_flush_nolock 1012e048 f   libucrt:fflush.obj
 0001:0012d0b1       __fflush_nolock            1012e0b1 f   libucrt:fflush.obj
 0001:0012d116       __flushall                 1012e116 f   libucrt:fflush.obj
 0001:0012d11f       ___acrt_initialize_stdio   1012e11f f   libucrt:_file.obj
 0001:0012d1e7       ___acrt_uninitialize_stdio 1012e1e7 f   libucrt:_file.obj
 0001:0012d233       __lock_file                1012e233 f   libucrt:_file.obj
 0001:0012d247       __unlock_file              1012e247 f   libucrt:_file.obj
 0001:0012d25b       __malloc_base              1012e25b f   libucrt:malloc_base.obj
 0001:0012d2a9       _strnlen                   1012e2a9 f   libucrt:strnlen.obj
 0001:0012d3cb       _wcsnlen                   1012e3cb f   libucrt:strnlen.obj
 0001:0012d57b       ___acrt_update_locale_info 1012e57b f   libucrt:locale_update.obj
 0001:0012d5a8       ___acrt_update_locale_info_explicit 1012e5a8 f   libucrt:locale_update.obj
 0001:0012d5d9       ___acrt_update_multibyte_info 1012e5d9 f   libucrt:locale_update.obj
 0001:0012d606       ___acrt_update_multibyte_info_explicit 1012e606 f   libucrt:locale_update.obj
 0001:0012d637       ?__acrt_fp_classify@@YA?AW4__acrt_fp_class@@ABN@Z 1012e637 f i libucrt:cvt.obj
 0001:0012e000       ___acrt_fp_format          1012f000 f   libucrt:cvt.obj
 0001:0012e181       __wctomb_internal          1012f181 f   libucrt:wctomb.obj
 0001:0012e2eb       __mbtowc_internal          1012f2eb f   libucrt:mbtowc.obj
 0001:0012e41e       __fileno                   1012f41e f   libucrt:fileno.obj
 0001:0012e445       __get_printf_count_output  1012f445 f   libucrt:printf_count_output.obj
 0001:0012e4c8       ___acrt_set_locale_changed 1012f4c8 f   libucrt:wsetlocale.obj
 0001:0012e4d3       ___acrt_uninitialize_locale 1012f4d3 f   libucrt:wsetlocale.obj
 0001:0012e4fa       ___pctype_func             1012f4fa f   libucrt:ctype.obj
 0001:0012e51e       __isctype_l                1012f51e f   libucrt:isctype.obj
 0001:0012e5f0       __CIcos                    1012f5f0 f   libucrt:cos_impl.obj
 0001:0012e62b       __CIcos_default            1012f62b f   libucrt:cos_impl.obj
 0001:0012e63f       __cos_default              1012f63f     libucrt:cos_impl.obj
 0001:0012e6e0       __CIcos_pentium4           1012f6e0 f   libucrt:cos_pentium4.obj
 0001:0012e6f8       __cos_pentium4             1012f6f8     libucrt:cos_pentium4.obj
 0001:0012e890       __CIsin                    1012f890 f   libucrt:sin_impl.obj
 0001:0012e8cb       __CIsin_default            1012f8cb f   libucrt:sin_impl.obj
 0001:0012e8df       __sin_default              1012f8df     libucrt:sin_impl.obj
 0001:0012e980       __CIsin_pentium4           1012f980 f   libucrt:sin_pentium4.obj
 0001:0012e998       __sin_pentium4             1012f998     libucrt:sin_pentium4.obj
 0001:0012eb50       __CItan                    1012fb50 f   libucrt:tan_impl.obj
 0001:0012eb8b       __CItan_default            1012fb8b f   libucrt:tan_impl.obj
 0001:0012eb9f       __tan_default              1012fb9f     libucrt:tan_impl.obj
 0001:0012ec40       __CItan_pentium4           1012fc40 f   libucrt:tan_pentium4.obj
 0001:0012ec58       __tan_pentium4             1012fc58     libucrt:tan_pentium4.obj
 0001:0012eea0       __frnd                     1012fea0 f   libucrt:frnd.obj
 0001:0012f17d       ___acrt_fenv_get_common_round_control 1013017d f   libucrt:_fenvutils.obj
 0001:0012f19f       ___acrt_fenv_get_control   1013019f f   libucrt:_fenvutils.obj
 0001:0012f21f       ___acrt_fenv_get_status    1013021f f   libucrt:_fenvutils.obj
 0001:0012f2c9       ___acrt_fenv_set_control   101302c9 f   libucrt:_fenvutils.obj
 0001:0012f344       ___acrt_fenv_set_status    10130344 f   libucrt:_fenvutils.obj
 0001:0012f43e       ___acrt_add_locale_ref     1013043e f   libucrt:locale_refcounting.obj
 0001:0012f4bb       ___acrt_free_locale        101304bb f   libucrt:locale_refcounting.obj
 0001:0012f603       ___acrt_locale_add_lc_time_reference 10130603 f   libucrt:locale_refcounting.obj
 0001:0012f62c       ___acrt_locale_free_lc_time_if_unreferenced 1013062c f   libucrt:locale_refcounting.obj
 0001:0012f65d       ___acrt_locale_release_lc_time_reference 1013065d f   libucrt:locale_refcounting.obj
 0001:0012f686       ___acrt_release_locale_ref 10130686 f   libucrt:locale_refcounting.obj
 0001:0012f707       ___acrt_update_thread_locale_data 10130707 f   libucrt:locale_refcounting.obj
 0001:0012f788       __updatetlocinfoEx_nolock  10130788 f   libucrt:locale_refcounting.obj
 0001:0012f7d8       __query_new_mode           101307d8 f   libucrt:new_mode.obj
 0001:0012f7e0       _qsort                     101307e0 f   libucrt:qsort.obj
 0001:0012fd85       _strncpy_s                 10130d85 f   libucrt:strncpy_s.obj
 0001:0012fd90       _strpbrk                   10130d90 f   libucrt:strpbrk.obj
 0001:0012fdd0       __mbsdec                   10130dd0 f   libucrt:mbsdec.obj
 0001:0012fde7       __mbsdec_l                 10130de7 f   libucrt:mbsdec.obj
 0001:0012fe74       ___acrt_GetStringTypeA     10130e74 f   libucrt:getstringtypea.obj
 0001:0012ff7d       __freea_crt                10130f7d f i libucrt:getstringtypea.obj
 0001:0013018b       ___acrt_LCMapStringA       1013118b f   libucrt:lcmapstringa.obj
 0001:001301e3       __msize_base               101311e3 f   libucrt:msize.obj
 0001:00130216       __realloc_base             10131216 f   libucrt:realloc_base.obj
 0001:001302cf       ___acrt_DownlevelLocaleNameToLCID 101312cf f   libucrt:lcidtoname_downlevel.obj
 0001:001302fb       ___acrt_lowio_create_handle_array 101312fb f   libucrt:osfinfo.obj
 0001:00130376       ___acrt_lowio_destroy_handle_array 10131376 f   libucrt:osfinfo.obj
 0001:001303ab       ___acrt_lowio_ensure_fh_exists 101313ab f   libucrt:osfinfo.obj
 0001:00130449       ___acrt_lowio_lock_fh      10131449 f   libucrt:osfinfo.obj
 0001:0013046c       ___acrt_lowio_unlock_fh    1013146c f   libucrt:osfinfo.obj
 0001:0013048f       __free_osfhnd              1013148f f   libucrt:osfinfo.obj
 0001:00130520       __get_osfhandle            10131520 f   libucrt:osfinfo.obj
 0001:0013062c       __commit                   1013162c f   libucrt:commit.obj
 0001:00130e57       __write_internal           10131e57 f   libucrt:write.obj
 0001:00130f5f       __write_nolock             10131f5f f   libucrt:write.obj
 0001:0013115f       __fcloseall                1013215f f   libucrt:closeall.obj
 0001:0013120a       ___acrt_stdio_free_buffer_nolock 1013220a f   libucrt:_freebuf.obj
 0001:0013124a       __isatty                   1013224a f   libucrt:isatty.obj
 0001:0013131e       ___acrt_fp_strflt_to_string 1013231e f   libucrt:_fptostr.obj
 0001:00131420       ?divide@__crt_strtox@@YA_KAAUbig_integer@1@ABU21@@Z 10132420 f i libucrt:cfout.obj
 0001:001318a8       ___acrt_fltout             101328a8 f   libucrt:cfout.obj
 0001:00132de1       ?__c32rtomb_utf8@__crt_mbstring@@YAIPAD_UPAU_Mbstatet@@AAV__crt_cached_ptd_host@@@Z 10133de1 f   libucrt:c32rtomb.obj
 0001:00132ebd       ?__mbrtowc_utf8@__crt_mbstring@@YAIPA_WPBDIPAU_Mbstatet@@AAV__crt_cached_ptd_host@@@Z 10133ebd f   libucrt:mbrtowc.obj
 0001:00132f00       ?__mbsrtowcs_utf8@__crt_mbstring@@YAIPA_WPAPBDIPAU_Mbstatet@@AAV__crt_cached_ptd_host@@@Z 10133f00 f   libucrt:mbrtowc.obj
 0001:00133008       ___acrt_locale_free_monetary 10134008 f   libucrt:initmon.obj
 0001:00133106       ___acrt_locale_free_numeric 10134106 f   libucrt:initnum.obj
 0001:00133194       ___acrt_locale_free_time   10134194 f   libucrt:inittime.obj
 0001:00133280       __trandisp1                10134280 f   libucrt:87disp.obj
 0001:001332f5       __trandisp2                101342f5 f   libucrt:87disp.obj
 0001:0013338f       __rttospopde               1013438f     libucrt:87disp.obj
 0001:00133394       __rttospop                 10134394     libucrt:87disp.obj
 0001:001333a0       __rtnospop                 101343a0 f   libucrt:87disp.obj
 0001:001333b0       __rttosnpop                101343b0 f   libucrt:87disp.obj
 0001:001333b1       __rtnospopde               101343b1     libucrt:87disp.obj
 0001:001333b8       __rtzeropop                101343b8     libucrt:87disp.obj
 0001:001333ba       __rtzeronpop               101343ba     libucrt:87disp.obj
 0001:001333c0       __rtzerospop               101343c0 f   libucrt:87disp.obj
 0001:001333cd       __rtonepop                 101343cd     libucrt:87disp.obj
 0001:001333d0       __rtonenpop                101343d0 f   libucrt:87disp.obj
 0001:001333e0       __tosnan1                  101343e0 f   libucrt:87disp.obj
 0001:00133410       __nosnan2                  10134410 f   libucrt:87disp.obj
 0001:00133420       __tosnan2                  10134420 f   libucrt:87disp.obj
 0001:00133450       __nan2                     10134450 f   libucrt:87disp.obj
 0001:00133490       __rtindfpop                10134490 f   libucrt:87disp.obj
 0001:00133492       __rtindfnpop               10134492     libucrt:87disp.obj
 0001:001334a3       __rttosnpopde              101344a3     libucrt:87disp.obj
 0001:001334b0       __rtatan2inf               101344b0 f   libucrt:87disp.obj
 0001:001334cd       __rtchsifneg               101344cd     libucrt:87disp.obj
 0001:001334e0       __twoToTOS                 101344e0 f   libucrt:common.obj
 0001:001334f5       __load_CW                  101344f5 f   libucrt:common.obj
 0001:0013350c       __convertTOStoQNaN         1013450c f   libucrt:common.obj
 0001:00133525       __fload_withFB             10134525 f   libucrt:common.obj
 0001:00133568       __checkTOS_withFB          10134568 f   libucrt:common.obj
 0001:0013357e       __fast_exit                1013457e f   libucrt:common.obj
 0001:0013358b       __math_exit                1013458b f   libucrt:common.obj
 0001:001335b5       __check_overflow_exit      101345b5 f   libucrt:common.obj
 0001:001335c9       __check_range_exit         101345c9 f   libucrt:common.obj
 0001:00133670       __startTwoArgErrorHandling 10134670 f   libucrt:genexcep.obj
 0001:00133687       __startOneArgErrorHandling 10134687 f   libucrt:genexcep.obj
 0001:001336c3       ___strncnt                 101346c3 f   libucrt:strncnt.obj
 0001:001336df       ___ascii_wcsnicmp          101346df f   libucrt:wcsnicmp.obj
 0001:0013372e       __query_app_type           1013472e f   libucrt:report_runtime_error.obj
 0001:001337b7       __lseeki64_nolock_internal 101347b7 f   libucrt:lseek.obj
 0001:001337d5       __putwch_nolock            101347d5 f   libucrt:putwch.obj
 0001:0013392c       _fclose                    1013492c f   libucrt:fclose.obj
 0001:0013395c       __controlfp_s              1013495c f   libucrt:contrlfp.obj
 0001:001339bb       _fegetenv                  101349bb f   libucrt:fegetenv.obj
 0001:001339d8       _fesetenv                  101349d8 f   libucrt:fesetenv.obj
 0001:00133a23       _feholdexcept              10134a23 f   libucrt:feholdexcept.obj
 0001:00133a70       __CIlog10                  10134a70 f   libucrt:log10_impl.obj
 0001:00133aab       __CIlog10_default          10134aab f   libucrt:log10_impl.obj
 0001:00133abf       __log10_default            10134abf     libucrt:log10_impl.obj
 0001:00133b80       ?reset_and_return@__crt_mbstring@@YAIIPAU_Mbstatet@@@Z 10134b80 f   libucrt:common_utf8.obj
 0001:00133b94       ?return_illegal_sequence@__crt_mbstring@@YAIPAU_Mbstatet@@AAV__crt_cached_ptd_host@@@Z 10134b94 f   libucrt:common_utf8.obj
 0001:00133bb6       ?__mbrtoc32_utf8@__crt_mbstring@@YAIPA_UPBDIPAU_Mbstatet@@AAV__crt_cached_ptd_host@@@Z 10134bb6 f   libucrt:mbrtoc32.obj
 0001:00133d74       __87except                 10134d74 f   libucrt:87except.obj
 0001:00133e80       ___ascii_strnicmp          10134e80 f   libucrt:_strnicm.obj
 0001:00133f00       ___dcrt_lowio_ensure_console_output_initialized 10134f00 f   libucrt:initcon.obj
 0001:00133f1f       ___dcrt_terminate_console_output 10134f1f f   libucrt:initcon.obj
 0001:00133f36       ___dcrt_write_console      10134f36 f   libucrt:initcon.obj
 0001:0013401c       __close_internal           1013501c f   libucrt:close.obj
 0001:001340bf       __close_nolock_internal    101350bf f   libucrt:close.obj
 0001:0013415f       ?__acrt_stdio_free_stream@@YAXV__crt_stdio_stream@@@Z 1013515f f   libucrt:stream.obj
 0001:00134241       __clearfp                  10135241 f   libucrt:ieee87.obj
 0001:0013431f       __control87                1013531f f   libucrt:ieee87.obj
 0001:001346c0       __CIlog10_pentium4         101356c0 f   libucrt:log10_pentium4.obj
 0001:001346d8       __log10_pentium4           101356d8     libucrt:log10_pentium4.obj
 0001:00134970       __fFEXP                    10135970 f   libucrt:87tran.obj
 0001:001349c7       __rtinfpopse               101359c7     libucrt:87tran.obj
 0001:001349c9       __rtinfnpopse              101359c9     libucrt:87tran.obj
 0001:001349d9       __fFLN                     101359d9     libucrt:87tran.obj
 0001:00134a8e       __rtinfpop                 10135a8e     libucrt:87tran.obj
 0001:00134a90       __rtinfnpop                10135a90     libucrt:87tran.obj
 0001:00134aa0       __rtforexpinf              10135aa0 f   libucrt:87tran.obj
 0001:00134aad       __ffexpm1                  10135aad     libucrt:87tran.obj
 0001:00134b56       __d_inttype                10135b56 f   libucrt:powhlp.obj
 0001:00134bbe       __powhlp                   10135bbe f   libucrt:powhlp.obj
 0001:00134cf0       __FindPESection            10135cf0 f   LIBCMT:pesect.obj
 0001:00134d40       __IsNonwritableInCurrentImage 10135d40 f   LIBCMT:pesect.obj
 0001:00134e00       __ValidateImageBase        10135e00 f   LIBCMT:pesect.obj
 0001:00134e33       __EH_epilog3               10135e33 f   LIBCMT:ehprolg3.obj
 0001:00134e47       __EH_prolog3               10135e47 f   LIBCMT:ehprolg3.obj
 0001:00134e7a       __EH_prolog3_catch         10135e7a f   LIBCMT:ehprolg3.obj
 0001:00134eb0       __aulldvrm                 10135eb0 f   LIBCMT:ulldvrm.obj
 0001:00134f50       __allmul                   10135f50 f   LIBCMT:llmul.obj
 0001:00134f90       __alldvrm                  10135f90 f   LIBCMT:lldvrm.obj
 0001:00135070       __allshl                   10136070 f   LIBCMT:llshl.obj
 0001:00135090       __aullshr                  10136090 f   LIBCMT:ullshr.obj
 0001:001350b0       __ftol2_sse                101360b0 f   LIBCMT:ftol2.obj
 0001:001350c0       __ftoi2                    101360c0 f   LIBCMT:ftol2.obj
 0001:00135140       _strrchr                   10136140 f   libvcruntime:strrchr.obj
 0001:00135277       __filter_x86_sse2_floating_point_exception 10136277 f   LIBCMT:x86_exception_filter.obj
 0001:00135277       __filter_x86_sse2_floating_point_exception_default 10136277 f   LIBCMT:x86_exception_filter.obj
 0002:00000000       __imp__FreeLibrary@4       10137000     kernel32:KERNEL32.dll
 0002:00000004       __imp__GetProcAddress@8    10137004     kernel32:KERNEL32.dll
 0002:00000008       __imp__LoadLibraryA@4      10137008     kernel32:KERNEL32.dll
 0002:0000000c       __imp__CloseHandle@4       1013700c     kernel32:KERNEL32.dll
 0002:00000010       __imp__RaiseException@16   10137010     kernel32:KERNEL32.dll
 0002:00000014       __imp__GetLastError@0      10137014     kernel32:KERNEL32.dll
 0002:00000018       __imp__GetSystemInfo@4     10137018     kernel32:KERNEL32.dll
 0002:0000001c       __imp__VirtualProtect@16   1013701c     kernel32:KERNEL32.dll
 0002:00000020       __imp__VirtualQuery@12     10137020     kernel32:KERNEL32.dll
 0002:00000024       __imp__GetModuleHandleW@4  10137024     kernel32:KERNEL32.dll
 0002:00000028       __imp__LoadLibraryExA@12   10137028     kernel32:KERNEL32.dll
 0002:0000002c       __imp__InitializeSListHead@4 1013702c     kernel32:KERNEL32.dll
 0002:00000030       __imp__IsProcessorFeaturePresent@4 10137030     kernel32:KERNEL32.dll
 0002:00000034       __imp__QueryPerformanceCounter@4 10137034     kernel32:KERNEL32.dll
 0002:00000038       __imp__GetCurrentProcessId@0 10137038     kernel32:KERNEL32.dll
 0002:0000003c       __imp__GetCurrentThreadId@0 1013703c     kernel32:KERNEL32.dll
 0002:00000040       __imp__GetSystemTimeAsFileTime@4 10137040     kernel32:KERNEL32.dll
 0002:00000044       __imp__IsDebuggerPresent@0 10137044     kernel32:KERNEL32.dll
 0002:00000048       __imp__UnhandledExceptionFilter@4 10137048     kernel32:KERNEL32.dll
 0002:0000004c       __imp__SetUnhandledExceptionFilter@4 1013704c     kernel32:KERNEL32.dll
 0002:00000050       __imp__GetStartupInfoW@4   10137050     kernel32:KERNEL32.dll
 0002:00000054       __imp__GetCurrentProcess@0 10137054     kernel32:KERNEL32.dll
 0002:00000058       __imp__TerminateProcess@8  10137058     kernel32:KERNEL32.dll
 0002:0000005c       __imp__InterlockedPushEntrySList@8 1013705c     kernel32:KERNEL32.dll
 0002:00000060       __imp__InterlockedFlushSList@4 10137060     kernel32:KERNEL32.dll
 0002:00000064       __imp__RtlUnwind@16        10137064     kernel32:KERNEL32.dll
 0002:00000068       __imp__SetLastError@4      10137068     kernel32:KERNEL32.dll
 0002:0000006c       __imp__EnterCriticalSection@4 1013706c     kernel32:KERNEL32.dll
 0002:00000070       __imp__LeaveCriticalSection@4 10137070     kernel32:KERNEL32.dll
 0002:00000074       __imp__DeleteCriticalSection@4 10137074     kernel32:KERNEL32.dll
 0002:00000078       __imp__InitializeCriticalSectionAndSpinCount@8 10137078     kernel32:KERNEL32.dll
 0002:0000007c       __imp__TlsAlloc@0          1013707c     kernel32:KERNEL32.dll
 0002:00000080       __imp__TlsGetValue@4       10137080     kernel32:KERNEL32.dll
 0002:00000084       __imp__TlsSetValue@8       10137084     kernel32:KERNEL32.dll
 0002:00000088       __imp__TlsFree@4           10137088     kernel32:KERNEL32.dll
 0002:0000008c       __imp__LoadLibraryExW@12   1013708c     kernel32:KERNEL32.dll
 0002:00000090       __imp__EncodePointer@4     10137090     kernel32:KERNEL32.dll
 0002:00000094       __imp__ExitProcess@4       10137094     kernel32:KERNEL32.dll
 0002:00000098       __imp__GetModuleHandleExW@12 10137098     kernel32:KERNEL32.dll
 0002:0000009c       __imp__GetModuleFileNameW@12 1013709c     kernel32:KERNEL32.dll
 0002:000000a0       __imp__DecodePointer@4     101370a0     kernel32:KERNEL32.dll
 0002:000000a4       __imp__HeapFree@12         101370a4     kernel32:KERNEL32.dll
 0002:000000a8       __imp__HeapAlloc@12        101370a8     kernel32:KERNEL32.dll
 0002:000000ac       __imp__FindClose@4         101370ac     kernel32:KERNEL32.dll
 0002:000000b0       __imp__FindFirstFileExW@24 101370b0     kernel32:KERNEL32.dll
 0002:000000b4       __imp__FindNextFileW@8     101370b4     kernel32:KERNEL32.dll
 0002:000000b8       __imp__IsValidCodePage@4   101370b8     kernel32:KERNEL32.dll
 0002:000000bc       __imp__GetACP@0            101370bc     kernel32:KERNEL32.dll
 0002:000000c0       __imp__GetOEMCP@0          101370c0     kernel32:KERNEL32.dll
 0002:000000c4       __imp__GetCPInfo@8         101370c4     kernel32:KERNEL32.dll
 0002:000000c8       __imp__GetCommandLineA@0   101370c8     kernel32:KERNEL32.dll
 0002:000000cc       __imp__GetCommandLineW@0   101370cc     kernel32:KERNEL32.dll
 0002:000000d0       __imp__MultiByteToWideChar@24 101370d0     kernel32:KERNEL32.dll
 0002:000000d4       __imp__WideCharToMultiByte@32 101370d4     kernel32:KERNEL32.dll
 0002:000000d8       __imp__GetEnvironmentStringsW@0 101370d8     kernel32:KERNEL32.dll
 0002:000000dc       __imp__FreeEnvironmentStringsW@4 101370dc     kernel32:KERNEL32.dll
 0002:000000e0       __imp__LCMapStringW@24     101370e0     kernel32:KERNEL32.dll
 0002:000000e4       __imp__GetProcessHeap@0    101370e4     kernel32:KERNEL32.dll
 0002:000000e8       __imp__GetStdHandle@4      101370e8     kernel32:KERNEL32.dll
 0002:000000ec       __imp__GetFileType@4       101370ec     kernel32:KERNEL32.dll
 0002:000000f0       __imp__GetStringTypeW@16   101370f0     kernel32:KERNEL32.dll
 0002:000000f4       __imp__HeapSize@12         101370f4     kernel32:KERNEL32.dll
 0002:000000f8       __imp__HeapReAlloc@16      101370f8     kernel32:KERNEL32.dll
 0002:000000fc       __imp__SetStdHandle@8      101370fc     kernel32:KERNEL32.dll
 0002:00000100       __imp__FlushFileBuffers@4  10137100     kernel32:KERNEL32.dll
 0002:00000104       __imp__WriteFile@20        10137104     kernel32:KERNEL32.dll
 0002:00000108       __imp__GetConsoleOutputCP@0 10137108     kernel32:KERNEL32.dll
 0002:0000010c       __imp__GetConsoleMode@8    1013710c     kernel32:KERNEL32.dll
 0002:00000110       __imp__SetFilePointerEx@20 10137110     kernel32:KERNEL32.dll
 0002:00000114       __imp__CreateFileW@28      10137114     kernel32:KERNEL32.dll
 0002:00000118       __imp__WriteConsoleW@20    10137118     kernel32:KERNEL32.dll
 0002:0000011c       \177KERNEL32_NULL_THUNK_DATA 1013711c     kernel32:KERNEL32.dll
 0002:00000120       ___guard_check_icall_fptr  10137120     LIBCMT:guard_support.obj
 0002:00000124       ___xc_a                    10137124     LIBCMT:initializers.obj
 0002:00000b24       ___xc_z                    10137b24     LIBCMT:initializers.obj
 0002:00000b28       ___xi_a                    10137b28     LIBCMT:initializers.obj
 0002:00000b2c       ___acrt_tran_sse2_initializer 10137b2c     libucrt:sse2_initializer.obj
 0002:00000b30       ___acrt_multibyte_initializer 10137b30     libucrt:multibyte_initializer.obj
 0002:00000b34       ___acrt_stdio_initializer  10137b34     libucrt:stdio_initializer.obj
 0002:00000b38       ___xi_z                    10137b38     LIBCMT:initializers.obj
 0002:00000b3c       ___xp_a                    10137b3c     LIBCMT:initializers.obj
 0002:00000b40       ___acrt_locale_terminator  10137b40     libucrt:locale_initializer.obj
 0002:00000b44       ___dcrt_console_output_terminator 10137b44     libucrt:console_output_initializer.obj
 0002:00000b48       ___acrt_stdio_terminator   10137b48     libucrt:stdio_initializer.obj
 0002:00000b4c       ___xp_z                    10137b4c     LIBCMT:initializers.obj
 0002:00000b50       ___xt_a                    10137b50     LIBCMT:initializers.obj
 0002:00000b54       ___xt_z                    10137b54     LIBCMT:initializers.obj
 0002:00000b60       ??_7PxCollection@physx@@6B@ 10137b60     CmCollection.obj
 0002:00000ba0       ??_C@_0BA@DLCJDKDM@NonTrackedAlloc@ 10137ba0     CmCollection.obj
 0002:00000bb0       ??_7Collection@Cm@physx@@6B@ 10137bb0     CmCollection.obj
 0002:00000bf0       ??_C@_0GE@GBACBMOC@PxCollection?3?3add?5called?5for?5an@ 10137bf0     CmCollection.obj
 0002:00000c58       ??_C@_0EL@ECLNLDPP@C?3?2Users?2maria?2source?2repos?2Phy@ 10137c58     CmCollection.obj
 0002:00000ca8       ??_C@_0EM@OMMGDOMK@PxCollection?3?3add?5called?5with?5a@ 10137ca8     CmCollection.obj
 0002:00000cf8       ??_C@_0FE@GCLCMFKL@C?3?2Users?2maria?2source?2repos?2Phy@ 10137cf8     CmCollection.obj
 0002:00000d4c       ??_C@_0BM@OIFKLHDN@?$DMallocation?5names?5disabled?$DO@ 10137d4c     CmCollection.obj
 0002:00000d70       __xmm@41f00000000000000000000000000000 10137d70     CmCollection.obj
 0002:00000d80       ??_C@_08MDGMHCHN@PtrTable@ 10137d80     CmPtrTable.obj
 0002:00000d8c       ??_C@_04GKJNKENE@void@     10137d8c     CmPtrTable.obj
 0002:00000d94       ??_C@_07DFEBJDHE@mSingle@  10137d94     CmPtrTable.obj
 0002:00000d9c       ??_C@_05NLHHBMOH@PxU16@    10137d9c     CmPtrTable.obj
 0002:00000da4       ??_C@_06EPKHJPIM@mCount@   10137da4     CmPtrTable.obj
 0002:00000dac       ??_C@_04DDKJGDCM@bool@     10137dac     CmPtrTable.obj
 0002:00000db4       ??_C@_0M@DAGELID@mOwnsMemory@ 10137db4     CmPtrTable.obj
 0002:00000dc0       ??_C@_0M@MMPOMMLP@mBufferUsed@ 10137dc0     CmPtrTable.obj
 0002:00000dcc       ??_7RadixSort@Cm@physx@@6B@ 10137dcc     CmRadixSort.obj
 0002:00000dd0       __xmm@00000001000000010000000100000001 10137dd0     CmRadixSort.obj
 0002:00000de0       __xmm@00000003000000020000000100000000 10137de0     CmRadixSort.obj
 0002:00000df0       ??_7RadixSortBuffered@Cm@physx@@6B@ 10137df0     CmRadixSortBuffered.obj
 0002:00000df8       ??_C@_0FC@KDNGCLLE@C?3?2Users?2maria?2source?2repos?2Phy@ 10137df8     CmRadixSortBuffered.obj
 0002:00000e4c       ?sBufferSize@DebugText@Cm@physx@@2HB 10137e4c     CmRenderOutput.obj
 0002:00000e50       ??_C@_0EM@FDJBGEOA@C?3?2Users?2maria?2source?2repos?2Phy@ 10137e50     CmRenderOutput.obj
 0002:00000e9c       __real@3e19999a            10137e9c     CmRenderOutput.obj
 0002:00000ea0       __real@3e800000            10137ea0     CmRenderOutput.obj
 0002:00000ea4       __real@3f3504f3            10137ea4     CmRenderOutput.obj
 0002:00000ea8       __real@3f800000            10137ea8     CmRenderOutput.obj
 0002:00000eac       __real@3fddb3d7            10137eac     CmRenderOutput.obj
 0002:00000eb0       __real@40c90fdb            10137eb0     CmRenderOutput.obj
 0002:00000ec0       __xmm@7fffffff7fffffff7fffffff7fffffff 10137ec0     CmRenderOutput.obj
 0002:00000ed0       __xmm@80000000800000008000000080000000 10137ed0     CmRenderOutput.obj
 0002:00000ee0       __real@00000000            10137ee0     CmVisualization.obj
 0002:00000ee4       __real@3d4ccccd            10137ee4     CmVisualization.obj
 0002:00000ee8       __real@3e490fdb            10137ee8     CmVisualization.obj
 0002:00000eec       __real@3e99999a            10137eec     CmVisualization.obj
 0002:00000ef0       __real@3f000000            10137ef0     CmVisualization.obj
 0002:00000ef4       __real@3fc00000            10137ef4     CmVisualization.obj
 0002:00000f00       __xmm@3f800000000000000000000000000000 10137f00     CmVisualization.obj
 0002:00000f10       ??_C@_0BB@CPDDPFKD@GetUpdatedModule@ 10137f10     CmWindowsModuleUpdateLoader.obj
 0002:00000f24       ??_C@_0BA@EGLNOO@PhysXFoundation@ 10137f24     CmWindowsDelayLoadHook.obj
 0002:00000f34       ??_C@_0M@ILKNCJKN@PhysXCommon@ 10137f34     CmWindowsDelayLoadHook.obj
 0002:00000f60       ??_C@_06EJKDJEDO@PxBase@   10137f60     GuBounds.obj
 0002:00000f68       ??_C@_0N@CDGINLLF@PxConvexMesh@ 10137f68     GuBounds.obj
 0002:00000f78       ??_C@_0O@PBAKPCEC@PxHeightField@ 10137f78     GuBounds.obj
 0002:00000f88       ??_7PxBase@physx@@6B@      10137f88     GuBounds.obj
 0002:00000f9c       ??_C@_0DG@DFOCGHP@Gu?3?3GeometryUnion?3?3computeBound@ 10137f9c     GuBounds.obj
 0002:00000fd8       ??_C@_0EK@HKHCJPHG@C?3?2Users?2maria?2source?2repos?2Phy@ 10137fd8     GuBounds.obj
 0002:00001024       __real@358637bd            10138024     GuBounds.obj
 0002:00001028       __real@3a83126f            10138028     GuBounds.obj
 0002:0000102c       __real@3f400000            1013802c     GuBounds.obj
 0002:00001030       __real@3f7fffef            10138030     GuBounds.obj
 0002:00001034       __real@3f8147ae            10138034     GuBounds.obj
 0002:00001038       __real@7e7fffff            10138038     GuBounds.obj
 0002:0000103c       __real@7f7fffff            1013803c     GuBounds.obj
 0002:00001040       __real@ba83126f            10138040     GuBounds.obj
 0002:00001044       __real@fe7fffff            10138044     GuBounds.obj
 0002:00001050       __xmm@000000003a83126f3a83126f3a83126f 10138050     GuBounds.obj
 0002:00001060       __xmm@00000000ba83126fba83126fba83126f 10138060     GuBounds.obj
 0002:00001090       __real@3f7ff972            10138090     GuBox.obj
 0002:000010c0       ??_7?$EntityReport@I@Gu@physx@@6B@ 101380c0     GuCCTSweepTests.obj
 0002:000010d0       __real@3b03126f            101380d0     GuCCTSweepTests.obj
 0002:000010d4       __real@40000000            101380d4     GuCCTSweepTests.obj
 0002:000010d8       __real@4b000000            101380d8     GuCCTSweepTests.obj
 0002:000010dc       __real@80000000            101380dc     GuCCTSweepTests.obj
 0002:00001100       __real@38d1b717            10138100     GuGeometryQuery.obj
 0002:00001104       __real@49742400            10138104     GuGeometryQuery.obj
 0002:00001130       ??_C@_0EP@NLLFCLPJ@C?3?2Users?2maria?2source?2repos?2Phy@ 10138130     GuGeometryUnion.obj
 0002:000011c0       ??_7GuMeshFactory@physx@@6B@ 101381c0     GuMeshFactory.obj
 0002:000011c4       ??_7MeshDataBase@Gu@physx@@6B@ 101381c4     GuMeshFactory.obj
 0002:000011c8       ??_C@_0EP@NNPAGEFD@C?3?2Users?2maria?2source?2repos?2Phy@ 101381c8     GuMeshFactory.obj
 0002:00001218       ??_7TriangleMeshData@Gu@physx@@6B@ 10138218     GuMeshFactory.obj
 0002:0000121c       ??_7RTreeTriangleData@Gu@physx@@6B@ 1013821c     GuMeshFactory.obj
 0002:00001220       ??_7BV4TriangleData@Gu@physx@@6B@ 10138220     GuMeshFactory.obj
 0002:00001228       ??_C@_0EP@DDCGGKNE@C?3?2Users?2maria?2source?2repos?2Phy@ 10138228     GuMeshFactory.obj
 0002:00001278       ??_C@_0GP@NHELMDAL@Loading?5triangle?5mesh?5failed?3?5D@ 10138278     GuMeshFactory.obj
 0002:000012e8       ??_C@_0BP@CDOKDACA@RTree?5binary?5image?5load?5error?4@ 101382e8     GuMeshFactory.obj
 0002:00001308       ??_C@_0BN@MJPNIELF@BV4?5binary?5image?5load?5error?4@ 10138308     GuMeshFactory.obj
 0002:00001328       ??_C@_0BO@JDPABAOF@BV32?5binary?5image?5load?5error?4@ 10138328     GuMeshFactory.obj
 0002:00001348       ??_C@_0EM@FKPMGNJJ@C?3?2Users?2maria?2source?2repos?2Phy@ 10138348     GuMeshFactory.obj
 0002:000013c0       ??_C@_0P@GGNFNHKF@PxTriangleMesh@ 101383c0     GuMetaData.obj
 0002:000013d0       ??_C@_07GFCEJNGM@Valency@  101383d0     GuMetaData.obj
 0002:000013d8       ??_C@_07NHGKEEIN@mOffset@  101383d8     GuMetaData.obj
 0002:000013e0       ??_C@_0BB@BAGHBMNJ@BigConvexRawData@ 101383e0     GuMetaData.obj
 0002:000013f4       ??_C@_07PBDEJAAC@mSubdiv@  101383f4     GuMetaData.obj
 0002:000013fc       ??_C@_0L@HNPACPGH@mNbSamples@ 101383fc     GuMetaData.obj
 0002:00001408       ??_C@_04NCKNBPPK@PxU8@     10138408     GuMetaData.obj
 0002:00001410       ??_C@_08DEPEKJNI@mSamples@ 10138410     GuMetaData.obj
 0002:0000141c       ??_C@_05LMJPANIN@PxU32@    1013841c     GuMetaData.obj
 0002:00001424       ??_C@_08IJDNJBMI@mNbVerts@ 10138424     GuMetaData.obj
 0002:00001430       ??_C@_0M@MMKMIJAF@mNbAdjVerts@ 10138430     GuMetaData.obj
 0002:0000143c       ??_C@_0L@EOKMNILC@mValencies@ 1013843c     GuMetaData.obj
 0002:00001448       ??_C@_0P@DLGEAMHJ@mAdjacentVerts@ 10138448     GuMetaData.obj
 0002:00001458       ??_C@_0O@PFOPBKAM@BigConvexData@ 10138458     GuMetaData.obj
 0002:00001468       ??_C@_05PLKALGFN@mData@    10138468     GuMetaData.obj
 0002:00001470       ??_C@_08PEMCLHEM@mVBuffer@ 10138470     GuMetaData.obj
 0002:0000147c       ??_C@_09FBMAGD@Alignment@  1013847c     GuMetaData.obj
 0002:00001488       ??_C@_0BE@KFHIBEEA@InternalObjectsData@ 10138488     GuMetaData.obj
 0002:0000149c       ??_C@_06GIEBFILM@PxReal@   1013849c     GuMetaData.obj
 0002:000014a4       ??_C@_07NKGFFIBH@mRadius@  101384a4     GuMetaData.obj
 0002:000014ac       ??_C@_08EHFCACAE@mExtents@ 101384ac     GuMetaData.obj
 0002:000014b8       ??_C@_0BA@LFMGGCBK@HullPolygonData@ 101384b8     GuMetaData.obj
 0002:000014c8       ??_C@_06BOHHGLB@mPlane@    101384c8     GuMetaData.obj
 0002:000014d0       ??_C@_06EHMLHGLN@mVRef8@   101384d0     GuMetaData.obj
 0002:000014d8       ??_C@_09BAHHHINI@mMinIndex@ 101384d8     GuMetaData.obj
 0002:000014e4       ??_C@_0P@GBLBPIPB@ConvexHullData@ 101384e4     GuMetaData.obj
 0002:000014f4       ??_C@_09JDCJAPKD@PxBounds3@ 101384f4     GuMetaData.obj
 0002:00001500       ??_C@_05NDNHIFA@mAABB@     10138500     GuMetaData.obj
 0002:00001508       ??_C@_06KDGGGLIJ@PxVec3@   10138508     GuMetaData.obj
 0002:00001510       ??_C@_0O@LNOGEMJI@mCenterOfMass@ 10138510     GuMetaData.obj
 0002:00001520       ??_C@_09CNMCBBKH@mPolygons@ 10138520     GuMetaData.obj
 0002:0000152c       ??_C@_0BC@KKPDCFJC@mBigConvexRawData@ 1013852c     GuMetaData.obj
 0002:00001540       ??_C@_08ELDMKGKH@mNbEdges@ 10138540     GuMetaData.obj
 0002:0000154c       ??_C@_0BA@CGLOHBAC@mNbHullVertices@ 1013854c     GuMetaData.obj
 0002:0000155c       ??_C@_0M@HGFFLLDM@mNbPolygons@ 1013855c     GuMetaData.obj
 0002:00001568       ??_C@_09BHJEMDGO@mInternal@ 10138568     GuMetaData.obj
 0002:00001574       ??_C@_0L@GMFHOMKA@ConvexMesh@ 10138574     GuMetaData.obj
 0002:00001580       ??_C@_0N@KECKKFLK@RefCountable@ 10138580     GuMetaData.obj
 0002:00001590       ??_C@_09ILEBDLJH@mHullData@ 10138590     GuMetaData.obj
 0002:0000159c       ??_C@_03DKDIKGNC@mNb@      1013859c     GuMetaData.obj
 0002:000015a0       ??_C@_0P@ENLHFHMD@mBigConvexData@ 101385a0     GuMetaData.obj
 0002:000015b0       ??_C@_05ILALLCHK@mMass@    101385b0     GuMetaData.obj
 0002:000015b8       ??_C@_07DBPDADGB@PxMat33@  101385b8     GuMetaData.obj
 0002:000015c0       ??_C@_08FNBHNDBI@mInertia@ 101385c0     GuMetaData.obj
 0002:000015cc       ??_C@_0O@FCKNKLMJ@GuMeshFactory@ 101385cc     GuMetaData.obj
 0002:000015dc       ??_C@_0N@EGBCLMAK@mMeshFactory@ 101385dc     GuMetaData.obj
 0002:000015ec       ??_C@_0BE@CJJAMAMK@PxHeightFieldSample@ 101385ec     GuMetaData.obj
 0002:00001600       ??_C@_05MBLIPEMA@PxI16@    10138600     GuMetaData.obj
 0002:00001608       ??_C@_06LNLHEAAG@height@   10138608     GuMetaData.obj
 0002:00001610       ??_C@_0N@HHDGHJN@PxBitAndByte@ 10138610     GuMetaData.obj
 0002:00001620       ??_C@_0P@MBBMLBO@materialIndex0@ 10138620     GuMetaData.obj
 0002:00001630       ??_C@_0P@BFAKPKFP@materialIndex1@ 10138630     GuMetaData.obj
 0002:00001640       ??_C@_0BD@EBLPJEOE@PxHeightFieldFlags@ 10138640     GuMetaData.obj
 0002:00001654       ??_C@_0BK@FNNCFFCN@PxHeightFieldFormat?3?3Enum@ 10138654     GuMetaData.obj
 0002:00001670       ??_C@_0BA@CLNFMAAA@HeightFieldData@ 10138670     GuMetaData.obj
 0002:00001680       ??_C@_04IMCGAIPI@rows@     10138680     GuMetaData.obj
 0002:00001688       ??_C@_07HIFEPIJN@columns@  10138688     GuMetaData.obj
 0002:00001690       ??_C@_08MOAGOABI@rowLimit@ 10138690     GuMetaData.obj
 0002:0000169c       ??_C@_08BAGEHOBO@colLimit@ 1013869c     GuMetaData.obj
 0002:000016a8       ??_C@_09LKDBLADF@nbColumns@ 101386a8     GuMetaData.obj
 0002:000016b4       ??_C@_07ODIFGGLK@samples@  101386b4     GuMetaData.obj
 0002:000016bc       ??_C@_0BE@POHEGOJG@convexEdgeThreshold@ 101386bc     GuMetaData.obj
 0002:000016d0       ??_C@_05GECEPKB@flags@     101386d0     GuMetaData.obj
 0002:000016d8       ??_C@_06DLEPGFEF@format@   101386d8     GuMetaData.obj
 0002:000016e0       ??_C@_0BF@MOGDNMPL@PxMaterialTableIndex@ 101386e0     GuMetaData.obj
 0002:000016f8       ??_C@_0M@JMJICJJO@HeightField@ 101386f8     GuMetaData.obj
 0002:00001704       ??_C@_0O@ENGHMLJP@mSampleStride@ 10138704     GuMetaData.obj
 0002:00001714       ??_C@_0L@EBEEMFFB@mMinHeight@ 10138714     GuMetaData.obj
 0002:00001720       ??_C@_0L@EAEIFPOF@mMaxHeight@ 10138720     GuMetaData.obj
 0002:0000172c       ??_C@_0N@FEFJOKKE@mModifyCount@ 1013872c     GuMetaData.obj
 0002:0000173c       ??_C@_09PHDKHCK@RTreePage@ 1013873c     GuMetaData.obj
 0002:00001748       ??_C@_04LLPOBGED@minx@     10138748     GuMetaData.obj
 0002:00001750       ??_C@_04KCOFCHAC@miny@     10138750     GuMetaData.obj
 0002:00001758       ??_C@_04IJMIHEMB@minz@     10138758     GuMetaData.obj
 0002:00001760       ??_C@_04GGOBOBGO@maxx@     10138760     GuMetaData.obj
 0002:00001768       ??_C@_04HPPKNACP@maxy@     10138768     GuMetaData.obj
 0002:00001770       ??_C@_04FENHIDOM@maxz@     10138770     GuMetaData.obj
 0002:00001778       ??_C@_04HHDFEJON@ptrs@     10138778     GuMetaData.obj
 0002:00001780       ??_C@_05FFEIGAJF@RTree@    10138780     GuMetaData.obj
 0002:00001788       ??_C@_06OMCHPNEO@PxVec4@   10138788     GuMetaData.obj
 0002:00001790       ??_C@_0L@NBIFEFLN@mBoundsMin@ 10138790     GuMetaData.obj
 0002:0000179c       ??_C@_0L@MDAOKBNC@mBoundsMax@ 1013879c     GuMetaData.obj
 0002:000017a8       ??_C@_0N@NJEHLCOF@mInvDiagonal@ 101387a8     GuMetaData.obj
 0002:000017b8       ??_C@_0BA@BEFIGPFG@mDiagonalScaler@ 101387b8     GuMetaData.obj
 0002:000017c8       ??_C@_09DICGGKGO@mPageSize@ 101387c8     GuMetaData.obj
 0002:000017d4       ??_C@_0O@BOFFCNOL@mNumRootPages@ 101387d4     GuMetaData.obj
 0002:000017e4       ??_C@_0L@JKLGBKAE@mNumLevels@ 101387e4     GuMetaData.obj
 0002:000017f0       ??_C@_0M@PHDOHJGK@mTotalNodes@ 101387f0     GuMetaData.obj
 0002:000017fc       ??_C@_0M@GDGHALAO@mTotalPages@ 101387fc     GuMetaData.obj
 0002:00001808       ??_C@_06MHCBBJGP@mFlags@   10138808     GuMetaData.obj
 0002:00001810       ??_C@_06MMNBLHOK@mPages@   10138810     GuMetaData.obj
 0002:00001818       ??_C@_0L@LEOGNOEC@SourceMesh@ 10138818     GuMetaData.obj
 0002:00001824       ??_C@_06JFCLJMNN@mVerts@   10138824     GuMetaData.obj
 0002:0000182c       ??_C@_07MPIKOOAP@mNbTris@  1013882c     GuMetaData.obj
 0002:00001834       ??_C@_0N@FBMOMEHF@mTriangles32@ 10138834     GuMetaData.obj
 0002:00001844       ??_C@_0N@DGCGNFBP@mTriangles16@ 10138844     GuMetaData.obj
 0002:00001854       ??_C@_06DHAAKLFK@mRemap@   10138854     GuMetaData.obj
 0002:0000185c       ??_C@_0O@NLNHFNO@QuantizedAABB@ 1013885c     GuMetaData.obj
 0002:0000186c       ??_C@_0BC@OOGBEMHH@mData?$FL0?$FN?4mExtents@ 1013886c     GuMetaData.obj
 0002:00001880       ??_C@_0BB@OCEDKIEF@mData?$FL0?$FN?4mCenter@ 10138880     GuMetaData.obj
 0002:00001894       ??_C@_0BC@HFMEAABI@mData?$FL1?$FN?4mExtents@ 10138894     GuMetaData.obj
 0002:000018a8       ??_C@_0BB@CDMNHHIF@mData?$FL1?$FN?4mCenter@ 101388a8     GuMetaData.obj
 0002:000018bc       ??_C@_0BC@CFKNCOI@mData?$FL2?$FN?4mExtents@ 101388bc     GuMetaData.obj
 0002:000018d0       ??_C@_0BB@LKCPBBIE@mData?$FL2?$FN?4mCenter@ 101388d0     GuMetaData.obj
 0002:000018e4       ??_C@_0O@MJJKKPFN@BVDataPackedQ@ 101388e4     GuMetaData.obj
 0002:000018f4       ??_C@_0M@PNCEBOG@LocalBounds@ 101388f4     GuMetaData.obj
 0002:00001900       ??_C@_07GNKDIIKJ@mCenter@  10138900     GuMetaData.obj
 0002:00001908       ??_C@_05KNFBNCOH@float@    10138908     GuMetaData.obj
 0002:00001910       ??_C@_0BC@LADJKHPL@mExtentsMagnitude@ 10138910     GuMetaData.obj
 0002:00001924       ??_C@_07HELIOLAF@BV4Tree@  10138924     GuMetaData.obj
 0002:0000192c       ??_C@_0P@EMMDNPMH@mMeshInterface@ 1013892c     GuMetaData.obj
 0002:0000193c       ??_C@_0N@DCKMHLCL@mLocalBounds@ 1013893c     GuMetaData.obj
 0002:0000194c       ??_C@_08EEJOMIJL@mNbNodes@ 1013894c     GuMetaData.obj
 0002:00001958       ??_C@_09FGKNPI@mInitData@  10138958     GuMetaData.obj
 0002:00001964       ??_C@_0BC@CLDEHKCO@mCenterOrMinCoeff@ 10138964     GuMetaData.obj
 0002:00001978       ??_C@_0BD@LAOLBNJ@mExtentsOrMaxCoeff@ 10138978     GuMetaData.obj
 0002:0000198c       ??_C@_0P@JEECKKBL@mUserAllocated@ 1013898c     GuMetaData.obj
 0002:0000199c       ??_C@_0L@GLIMNECG@mQuantized@ 1013899c     GuMetaData.obj
 0002:000019a8       ??_C@_08BNDBAGDH@mPadding@ 101389a8     GuMetaData.obj
 0002:000019b4       ??_C@_0N@OJNNNLIB@TriangleMesh@ 101389b4     GuMetaData.obj
 0002:000019c4       ??_C@_0M@OGEDMEAL@mNbVertices@ 101389c4     GuMetaData.obj
 0002:000019d0       ??_C@_0N@MGGDNHNI@mNbTriangles@ 101389d0     GuMetaData.obj
 0002:000019e0       ??_C@_09LNNEGOJA@mVertices@ 101389e0     GuMetaData.obj
 0002:000019ec       ??_C@_0L@KBOFAKLO@mTriangles@ 101389ec     GuMetaData.obj
 0002:000019f8       ??_C@_0P@MHDFIHLD@mExtraTrigData@ 101389f8     GuMetaData.obj
 0002:00001a08       ??_C@_0N@MGIKKCI@mGeomEpsilon@ 10138a08     GuMetaData.obj
 0002:00001a18       ??_C@_0BB@IFLOOCNA@mMaterialIndices@ 10138a18     GuMetaData.obj
 0002:00001a2c       ??_C@_0L@OPJMBFMI@mFaceRemap@ 10138a2c     GuMetaData.obj
 0002:00001a38       ??_C@_0N@BIOECAPM@mAdjacencies@ 10138a38     GuMetaData.obj
 0002:00001a48       ??_C@_0BA@OCOIGPII@mGRB_triIndices@ 10138a48     GuMetaData.obj
 0002:00001a58       ??_C@_0BE@JPINNDAH@mGRB_triAdjacencies@ 10138a58     GuMetaData.obj
 0002:00001a6c       ??_C@_0P@EDFJJHEF@mGRB_faceRemap@ 10138a6c     GuMetaData.obj
 0002:00001a7c       ??_C@_0O@CKMBAIFN@mGRB_BV32Tree@ 10138a7c     GuMetaData.obj
 0002:00001a8c       ??_C@_0BC@IFGECKF@RTreeTriangleMesh@ 10138a8c     GuMetaData.obj
 0002:00001aa0       ??_C@_06JDIHDDGN@mRTree@   10138aa0     GuMetaData.obj
 0002:00001aa8       ??_C@_0BA@LNNFPOKA@BV4TriangleMesh@ 10138aa8     GuMetaData.obj
 0002:00001ab8       ??_C@_08FKLPEGDB@mBV4Tree@ 10138ab8     GuMetaData.obj
 0002:00001ac4       ??_C@_0BG@EAPGHGEI@MaterialIndicesStruct@ 10138ac4     GuMetaData.obj
 0002:00001adc       ??_C@_07OKCKIPNN@indices@  10138adc     GuMetaData.obj
 0002:00001ae4       ??_C@_0L@KCBHBGBP@numIndices@ 10138ae4     GuMetaData.obj
 0002:00001af0       ??_C@_03PNAAIPML@pad@      10138af0     GuMetaData.obj
 0002:00001af4       ??_C@_0BK@GNJGHDGO@PxConvexMeshGeometryFlags@ 10138af4     GuMetaData.obj
 0002:00001b10       ??_C@_0BJ@LIOOOKID@ShadowConvexMeshGeometry@ 10138b10     GuMetaData.obj
 0002:00001b2c       ??_C@_0BF@PJFPGDNP@PxGeometryType?3?3Enum@ 10138b2c     GuMetaData.obj
 0002:00001b44       ??_C@_05GNIIDDHH@mType@    10138b44     GuMetaData.obj
 0002:00001b4c       ??_C@_0M@JFNDEGCE@PxMeshScale@ 10138b4c     GuMetaData.obj
 0002:00001b58       ??_C@_05MHMEBBGO@scale@    10138b58     GuMetaData.obj
 0002:00001b60       ??_C@_0L@OKMLGDHH@convexMesh@ 10138b60     GuMetaData.obj
 0002:00001b6c       ??_C@_09PLMNFMJI@meshFlags@ 10138b6c     GuMetaData.obj
 0002:00001b78       ??_C@_0BB@EINMAHMD@paddingFromFlags@ 10138b78     GuMetaData.obj
 0002:00001b8c       ??_C@_08CICKEKCM@hullData@ 10138b8c     GuMetaData.obj
 0002:00001b98       ??_C@_0O@EOELHBFF@gpuCompatible@ 10138b98     GuMetaData.obj
 0002:00001ba8       ??_C@_0BE@FFPGAPHN@PxMeshGeometryFlags@ 10138ba8     GuMetaData.obj
 0002:00001bbc       ??_C@_0BL@KABFLNEB@ShadowTriangleMeshGeometry@ 10138bbc     GuMetaData.obj
 0002:00001bd8       ??_C@_0N@FKKDJAHE@triangleMesh@ 10138bd8     GuMetaData.obj
 0002:00001be8       ??_C@_08BEABJAHJ@meshData@ 10138be8     GuMetaData.obj
 0002:00001bf4       ??_C@_0BA@NGIONHFJ@materialIndices@ 10138bf4     GuMetaData.obj
 0002:00001c04       ??_C@_09JGGNEAGH@materials@ 10138c04     GuMetaData.obj
 0002:00001c10       ??_C@_0BK@OIFEOHNJ@ShadowHeightFieldGeometry@ 10138c10     GuMetaData.obj
 0002:00001c2c       ??_C@_0M@IEKJPCGG@heightField@ 10138c2c     GuMetaData.obj
 0002:00001c38       ??_C@_0M@LHLNPPJ@heightScale@ 10138c38     GuMetaData.obj
 0002:00001c44       ??_C@_08GJPCBGLE@rowScale@ 10138c44     GuMetaData.obj
 0002:00001c50       ??_C@_0M@HHBHEPCE@columnScale@ 10138c50     GuMetaData.obj
 0002:00001c5c       ??_C@_0BB@PMIIHDKK@heightFieldFlags@ 10138c5c     GuMetaData.obj
 0002:00001c70       ??_C@_0BA@DMOKLLHN@heightFieldData@ 10138c70     GuMetaData.obj
 0002:00001c80       ??_C@_0BE@IKADPPC@ShadowPlaneGeometry@ 10138c80     GuMetaData.obj
 0002:00001c94       ??_C@_0BF@PIKLLBGN@ShadowSphereGeometry@ 10138c94     GuMetaData.obj
 0002:00001cac       ??_C@_06KGHINEPG@radius@   10138cac     GuMetaData.obj
 0002:00001cb4       ??_C@_0BG@OBHJHKMO@ShadowCapsuleGeometry@ 10138cb4     GuMetaData.obj
 0002:00001ccc       ??_C@_0L@PMAANELH@halfHeight@ 10138ccc     GuMetaData.obj
 0002:00001cd8       ??_C@_0BC@DMJNHLLO@ShadowBoxGeometry@ 10138cd8     GuMetaData.obj
 0002:00001cec       ??_C@_0M@CMAEPJOI@halfExtents@ 10138cec     GuMetaData.obj
 0002:00001cf8       ??_C@_0BH@PKALDLFA@PxConvexMeshGeometryLL@ 10138cf8     GuMetaData.obj
 0002:00001d10       ??_C@_0BJ@GAFBNAAE@PxTriangleMeshGeometryLL@ 10138d10     GuMetaData.obj
 0002:00001d2c       ??_C@_0BI@IIFLCNOC@PxHeightFieldGeometryLL@ 10138d2c     GuMetaData.obj
 0002:00001d44       ??_C@_0BA@NAHKMBFO@PxPlaneGeometry@ 10138d44     GuMetaData.obj
 0002:00001d54       ??_C@_0BB@CHBDIEFA@PxSphereGeometry@ 10138d54     GuMetaData.obj
 0002:00001d68       ??_C@_0BC@LJMOIOOK@PxCapsuleGeometry@ 10138d68     GuMetaData.obj
 0002:00001d7c       ??_C@_0O@OEDJDNFP@PxBoxGeometry@ 10138d7c     GuMetaData.obj
 0002:00001d8c       ??_C@_0BC@ICOOCLFG@Gu?3?3GeometryUnion@ 10138d8c     GuMetaData.obj
 0002:00001dc0       ??_7?$SupportLocalImpl@VConvexHullV@Gu@physx@@@Gu@physx@@6B@ 10138dc0     GuMTD.obj
 0002:00001dd0       ??_7?$SupportLocalImpl@VConvexHullNoScaleV@Gu@physx@@@Gu@physx@@6B@ 10138dd0     GuMTD.obj
 0002:00001de0       ??_7?$SupportLocalImpl@VBoxV@Gu@physx@@@Gu@physx@@6B@ 10138de0     GuMTD.obj
 0002:00001df0       ??_7SupportLocal@Gu@physx@@6B@ 10138df0     GuMTD.obj
 0002:00001e00       ?absMask@?1??FAbs@aos@shdfnd@physx@@YA?AT__m128@@T5@@Z@4QBIB 10138e00     GuMTD.obj
 0002:00001e10       ??_7GjkConvexBase@Gu@physx@@6B@ 10138e10     GuMTD.obj
 0002:00001e28       ??_7?$LocalConvex@VCapsuleV@Gu@physx@@@Gu@physx@@6B@ 10138e28     GuMTD.obj
 0002:00001e40       ??_7?$LocalConvex@VConvexHullV@Gu@physx@@@Gu@physx@@6B@ 10138e40     GuMTD.obj
 0002:00001e58       __real@2edbe6ff            10138e58     GuMTD.obj
 0002:00001e5c       __real@34000000            10138e5c     GuMTD.obj
 0002:00001e60       __real@396bedfa            10138e60     GuMTD.obj
 0002:00001e64       __real@3ccccccd            10138e64     GuMTD.obj
 0002:00001e68       __real@3dcccccd            10138e68     GuMTD.obj
 0002:00001e6c       __real@3e4ccccd            10138e6c     GuMTD.obj
 0002:00001e70       __real@3f7ff2e5            10138e70     GuMTD.obj
 0002:00001e74       __real@bf000000            10138e74     GuMTD.obj
 0002:00001e78       __real@bf800000            10138e78     GuMTD.obj
 0002:00001e7c       __real@ff7fffff            10138e7c     GuMTD.obj
 0002:00001e80       __xmm@0000000000000000000000003f800000 10138e80     GuMTD.obj
 0002:00001e90       __xmm@00000000000000003f80000000000000 10138e90     GuMTD.obj
 0002:00001ea0       __xmm@000000003f8000000000000000000000 10138ea0     GuMTD.obj
 0002:00001eb0       __xmm@000000003f8000003f8000003f800000 10138eb0     GuMTD.obj
 0002:00001ec0       __xmm@00000000ffffffffffffffffffffffff 10138ec0     GuMTD.obj
 0002:00001ef0       ??_7?$RelativeConvex@VBoxV@Gu@physx@@@Gu@physx@@6B@ 10138ef0     GuOverlapTests.obj
 0002:00001f08       ??_7?$RelativeConvex@VConvexHullV@Gu@physx@@@Gu@physx@@6B@ 10138f08     GuOverlapTests.obj
 0002:00001f20       ??_C@_0EC@MLIJOGHA@Height?5Field?5Overlap?5test?5calle@ 10138f20     GuOverlapTests.obj
 0002:00001f68       ??_C@_0FA@PMJIOGBJ@C?3?2Users?2maria?2source?2repos?2Phy@ 10138f68     GuOverlapTests.obj
 0002:00001fe8       ??_C@_0EC@GJLDADPE@Height?5Field?5Raycast?5test?5calle@ 10138fe8     GuRaycastTests.obj
 0002:00002030       ??_C@_0FA@PFFJBLD@C?3?2Users?2maria?2source?2repos?2Phy@ 10139030     GuRaycastTests.obj
 0002:00002080       __real@1e3ce508            10139080     GuRaycastTests.obj
 0002:00002084       __real@28800000            10139084     GuRaycastTests.obj
 0002:00002088       __real@33d6bf95            10139088     GuRaycastTests.obj
 0002:0000208c       __real@3727c5ac            1013908c     GuRaycastTests.obj
 0002:00002090       __real@3f0147ae            10139090     GuRaycastTests.obj
 0002:00002094       __real@3f7ffffe            10139094     GuRaycastTests.obj
 0002:00002098       __real@3f800347            10139098     GuRaycastTests.obj
 0002:0000209c       __real@41200000            1013909c     GuRaycastTests.obj
 0002:000020a0       __real@b3d6bf95            101390a0     GuRaycastTests.obj
 0002:000020a4       __real@b8d1b717            101390a4     GuRaycastTests.obj
 0002:000020d8       ??_7?$MeshHitCallback@UPxRaycastHit@physx@@@Gu@physx@@6B@ 101390d8     GuSweepMTD.obj
 0002:000020e0       ??_7MeshMTDGenerationCallback@@6B@ 101390e0     GuSweepMTD.obj
 0002:000020e8       ??_7MidPhaseQueryLocalReport@@6B@ 101390e8     GuSweepMTD.obj
 0002:000020f0       __real@3f933333            101390f0     GuSweepMTD.obj
 0002:00002120       __real@3c23d70a            10139120     GuSweepSharedTests.obj
 0002:00002124       __real@42c80000            10139124     GuSweepSharedTests.obj
 0002:00002130       __xmm@ffffffffffffffffffffffffffffffff 10139130     GuSweepSharedTests.obj
 0002:00002160       ??_C@_0EA@GNDJNJGB@Height?5Field?5Sweep?5test?5called?5@ 10139160     GuSweepTests.obj
 0002:000021a0       ??_C@_0EO@LFIAGKHA@C?3?2Users?2maria?2source?2repos?2Phy@ 101391a0     GuSweepTests.obj
 0002:000021f0       ??_7?$LocalConvex@VBoxV@Gu@physx@@@Gu@physx@@6B@ 101391f0     GuSweepTests.obj
 0002:00002208       ??_7?$LocalConvex@VTriangleV@Gu@physx@@@Gu@physx@@6B@ 10139208     GuSweepTests.obj
 0002:00002220       __real@3eaaaa9f            10139220     GuSweepTests.obj
 0002:00002250       ??_C@_0FB@GFCGNEJH@C?3?2Users?2maria?2source?2repos?2Phy@ 10139250     GuAABBTreeBuild.obj
 0002:000022d0       ??_7PxBVHStructure@physx@@6B@ 101392d0     GuBVHStructure.obj
 0002:000022f8       ??_C@_0P@CDPKBIIF@PxBVHStructure@ 101392f8     GuBVHStructure.obj
 0002:00002308       ??_7RefCountable@Cm@physx@@6B@ 10139308     GuBVHStructure.obj
 0002:00002310       ??_7BVHStructure@Gu@physx@@6BPxBVHStructure@2@@ 10139310     GuBVHStructure.obj
 0002:00002338       ??_7BVHStructure@Gu@physx@@6BRefCountable@Cm@2@@ 10139338     GuBVHStructure.obj
 0002:00002340       ??_C@_0FA@HIMIBPPL@C?3?2Users?2maria?2source?2repos?2Phy@ 10139340     GuBVHStructure.obj
 0002:00002390       ??_C@_0DF@GMOKOMPK@Gu?3?3BVHStructure?3?3release?3?5doub@ 10139390     GuBVHStructure.obj
 0002:00002410       __real@3c343958            10139410     GuCCDSweepConvexMesh.obj
 0002:00002414       __real@3ca3d70a            10139414     GuCCDSweepConvexMesh.obj
 0002:00002418       __real@3f0ccccd            10139418     GuCCDSweepConvexMesh.obj
 0002:0000241c       __real@3f8ccccd            1013941c     GuCCDSweepConvexMesh.obj
 0002:00002420       __real@b58637bd            10139420     GuCCDSweepConvexMesh.obj
 0002:00002430       __xmm@00000000000000003f8000003f800000 10139430     GuCCDSweepConvexMesh.obj
 0002:00002440       __xmm@0000000000000000fe7ffffffe7fffff 10139440     GuCCDSweepConvexMesh.obj
 0002:00002450       __xmm@fe7fffff7e7fffff7e7fffff7e7fffff 10139450     GuCCDSweepConvexMesh.obj
 0002:00002480       ??_7?$RelativeConvex@VCapsuleV@Gu@physx@@@Gu@physx@@6B@ 10139480     GuCCDSweepPrimitives.obj
 0002:00002498       ??_7?$RelativeConvex@VTriangleV@Gu@physx@@@Gu@physx@@6B@ 10139498     GuCCDSweepPrimitives.obj
 0002:000024b0       __real@3ba3d70a            101394b0     GuCCDSweepPrimitives.obj
 0002:000024b4       __real@501502f9            101394b4     GuCCDSweepPrimitives.obj
 0002:000025c0       __real@3f7fbe77            101395c0     GuContactBoxBox.obj
 0002:00002610       __real@40800000            10139610     GuContactCapsuleCapsule.obj
 0002:00002614       __real@c0000000            10139614     GuContactCapsuleCapsule.obj
 0002:00002680       __real@358637be            10139680     GuContactCapsuleMesh.obj
 0002:00002684       __real@3eaaaaab            10139684     GuContactCapsuleMesh.obj
 0002:00002688       __real@3f8020c5            10139688     GuContactCapsuleMesh.obj
 0002:000026d8       ??_7ConvexMeshContactGenerationCallback@@6B@ 101396d8     GuContactConvexMesh.obj
 0002:00002750       __real@3ec90fdb            10139750     GuContactPolygonPolygon.obj
 0002:000027e0       ??_C@_0EL@IGIANCCB@C?3?2Users?2maria?2source?2repos?2Phy@ 101397e0     GuContactSphereMesh.obj
 0002:00002870       ??_C@_0FI@KHEPAOLL@C?3?2Users?2maria?2source?2repos?2Phy@ 10139870     GuBigConvexData.obj
 0002:000028f0       ??_7PxConvexMesh@physx@@6B@ 101398f0     GuConvexMesh.obj
 0002:0000292c       ??_7ConvexMesh@Gu@physx@@6BPxConvexMesh@2@@ 1013992c     GuConvexMesh.obj
 0002:00002970       ??_7ConvexMesh@Gu@physx@@6BRefCountable@Cm@2@@ 10139970     GuConvexMesh.obj
 0002:00002978       ??_C@_0FF@KLGPEIHL@C?3?2Users?2maria?2source?2repos?2Phy@ 10139978     GuConvexMesh.obj
 0002:000029d0       ??_C@_0DM@NEJKOFIP@Loading?5convex?5mesh?5failed?3?5Dep@ 101399d0     GuConvexMesh.obj
 0002:00002a0c       ??_C@_0DD@GDAMDLJL@Gu?3?3ConvexMesh?3?3release?3?5double@ 10139a0c     GuConvexMesh.obj
 0002:00002a60       __xmm@000000000000000000000000ffffffff 10139a60     GuConvexSupportTable.obj
 0002:00002a70       __xmm@0000000000000000ffffffff00000000 10139a70     GuConvexSupportTable.obj
 0002:00002a80       __xmm@0000000000000000ffffffffffffffff 10139a80     GuConvexSupportTable.obj
 0002:00002a90       __xmm@00000000ffffffff0000000000000000 10139a90     GuConvexSupportTable.obj
 0002:00002aa0       __xmm@00000000ffffffff00000000ffffffff 10139aa0     GuConvexSupportTable.obj
 0002:00002ab0       __xmm@00000000ffffffffffffffff00000000 10139ab0     GuConvexSupportTable.obj
 0002:00002b60       __real@2b8cbccc            10139b60     GuDistanceSegmentTriangle.obj
 0002:00002be0       ??_7PxHeightField@physx@@6B@ 10139be0     GuHeightField.obj
 0002:00002c30       ??_7HeightField@Gu@physx@@6BPxHeightField@2@@ 10139c30     GuHeightField.obj
 0002:00002c88       ??_7HeightField@Gu@physx@@6BRefCountable@Cm@2@@ 10139c88     GuHeightField.obj
 0002:00002c90       ??_C@_0DL@DNGFPCEG@Gu?3?3HeightField?3?3onRefCountZero@ 10139c90     GuHeightField.obj
 0002:00002cd0       ??_C@_0FC@JDNHAGDK@C?3?2Users?2maria?2source?2repos?2Phy@ 10139cd0     GuHeightField.obj
 0002:00002d24       ??_C@_0CI@DMKEKGNK@Gu?3?3HeightField?3?3load?3?5PX_ALLOC@ 10139d24     GuHeightField.obj
 0002:00002d50       ??_C@_0EF@PEKCHJB@C?3?2Users?2maria?2source?2repos?2Phy@ 10139d50     GuHeightField.obj
 0002:00002dc0       __real@3a03126f            10139dc0     GuHeightFieldUtil.obj
 0002:00002dc4       __real@3f19999a            10139dc4     GuHeightFieldUtil.obj
 0002:00002e30       ??_7HeightFieldTraceSegmentReport@@6B@ 10139e30     GuSweepsHF.obj
 0002:00002e38       ??_7CapsuleTraceSegmentReport@@6B@ 10139e38     GuSweepsHF.obj
 0002:00002e40       ??_7ConvexTraceSegmentReport@@6B@ 10139e40     GuSweepsHF.obj
 0002:00002e48       ??_7BoxTraceSegmentReport@@6B@ 10139e48     GuSweepsHF.obj
 0002:00002e50       __real@aedbe6ff            10139e50     GuSweepsHF.obj
 0002:00002e60       __xmm@ffffffff00000001ffffffff00000001 10139e60     GuSweepsHF.obj
 0002:00002e90       __real@3089705f            10139e90     GuIntersectionRayBox.obj
 0002:00002e94       __real@b4000000            10139e94     GuIntersectionRayBox.obj
 0002:00002ea0       __xmm@000000003089705f3089705f3089705f 10139ea0     GuIntersectionRayBox.obj
 0002:00002eb0       __xmm@00000000bf800000bf800000bf800000 10139eb0     GuIntersectionRayBox.obj
 0002:00002f00       ??_C@_0EM@PCNCCKPB@C?3?2Users?2maria?2source?2repos?2Phy@ 10139f00     GuBV4.obj
 0002:00002f70       ??_C@_0FB@HKBOMCAL@C?3?2Users?2maria?2source?2repos?2Phy@ 10139f70     GuBV4Build.obj
 0002:00002fc4       __real@38000100            10139fc4     GuBV4Build.obj
 0002:00002fc8       __real@3e93cd3a            10139fc8     GuBV4Build.obj
 0002:00002fcc       __real@46fffe00            10139fcc     GuBV4Build.obj
 0002:00002fd0       __real@be93cd3a            10139fd0     GuBV4Build.obj
 0002:00003000       __xmm@0000ffff0000ffff0000ffff0000ffff 1013a000     GuBV4_AABBSweep.obj
 0002:00003110       __xmm@000000007f7fffff0000000000000000 1013a110     GuMidphaseBV4.obj
 0002:00003160       ??_C@_0FD@EHCCILIF@Adjacency?5information?5not?5creat@ 1013a160     GuMeshQuery.obj
 0002:000031b8       ??_C@_0FC@JADPPOFB@C?3?2Users?2maria?2source?2repos?2Phy@ 1013a1b8     GuMeshQuery.obj
 0002:0000320c       __real@4cbebc20            1013a20c     GuMeshQuery.obj
 0002:00003230       ??_7Callback@RTree@Gu@physx@@6B@ 1013a230     GuMidphaseRTree.obj
 0002:0000323c       ??_7CallbackRaycast@RTree@Gu@physx@@6B@ 1013a23c     GuMidphaseRTree.obj
 0002:0000323c       ??_7CallbackRefit@RTree@Gu@physx@@6B@ 1013a23c     GuTriangleMeshRTree.obj
 0002:00003244       ??_7?$RayRTreeCallback@$00$0A@@@6BCallbackRaycast@RTree@Gu@physx@@@ 1013a244     GuMidphaseRTree.obj
 0002:00003244       ??_7?$RayRTreeCallback@$0A@$0A@@@6BCallbackRaycast@RTree@Gu@physx@@@ 1013a244     GuMidphaseRTree.obj
 0002:0000324c       ??_7?$RayRTreeCallback@$00$0A@@@6BCallback@RTree@Gu@physx@@@ 1013a24c     GuMidphaseRTree.obj
 0002:0000324c       ??_7?$RayRTreeCallback@$0A@$0A@@@6BCallback@RTree@Gu@physx@@@ 1013a24c     GuMidphaseRTree.obj
 0002:00003258       ??_7RayMeshColliderCallback@@6B@ 1013a258     GuMidphaseRTree.obj
 0002:00003260       ??_7?$RayRTreeCallback@$0A@$00@@6BCallbackRaycast@RTree@Gu@physx@@@ 1013a260     GuMidphaseRTree.obj
 0002:00003268       ??_7?$RayRTreeCallback@$0A@$00@@6BCallback@RTree@Gu@physx@@@ 1013a268     GuMidphaseRTree.obj
 0002:00003274       ??_7?$RayRTreeCallback@$00$00@@6BCallbackRaycast@RTree@Gu@physx@@@ 1013a274     GuMidphaseRTree.obj
 0002:0000327c       ??_7?$RayRTreeCallback@$00$00@@6BCallback@RTree@Gu@physx@@@ 1013a27c     GuMidphaseRTree.obj
 0002:00003300       ??_7ConvexVsMeshOverlapCallback@@6B@ 1013a300     GuOverlapTestsMesh.obj
 0002:00003310       ?MN@RTreePage@Gu@physx@@2MB 1013a310     GuRTree.obj
 0002:00003314       ?MX@RTreePage@Gu@physx@@2MB 1013a314     GuRTree.obj
 0002:00003340       ??_C@_0EO@BOKCNDBP@C?3?2Users?2maria?2source?2repos?2Phy@ 1013a340     GuRTree.obj
 0002:000033e8       ??_7SweepShapeMeshHitCallback@Gu@physx@@6B@ 1013a3e8     GuSweepsMesh.obj
 0002:000033f0       ??_7SweepCapsuleMeshHitCallback@Gu@physx@@6B@ 1013a3f0     GuSweepsMesh.obj
 0002:000033f8       ??_7SweepBoxMeshHitCallback@Gu@physx@@6B@ 1013a3f8     GuSweepsMesh.obj
 0002:00003400       ??_7SweepConvexMeshHitCallback@Gu@physx@@6B@ 1013a400     GuSweepsMesh.obj
 0002:00003430       ??_7PxTriangleMesh@physx@@6B@ 1013a430     GuTriangleMesh.obj
 0002:00003474       ??_7TriangleMesh@Gu@physx@@6BPxTriangleMesh@2@@ 1013a474     GuTriangleMesh.obj
 0002:000034c4       ??_7TriangleMesh@Gu@physx@@6BRefCountable@Cm@2@@ 1013a4c4     GuTriangleMesh.obj
 0002:000034cc       ??_C@_0DF@DNLKAHAL@Gu?3?3TriangleMesh?3?3release?3?5doub@ 1013a4cc     GuTriangleMesh.obj
 0002:00003508       ??_C@_0FF@JFDPOHJK@C?3?2Users?2maria?2source?2repos?2Phy@ 1013a508     GuTriangleMesh.obj
 0002:00003560       ??_C@_0GH@IGKFPLIJ@PxTriangleMesh?3?3getVerticesForM@ 1013a560     GuTriangleMesh.obj
 0002:000035c8       ??_C@_0FF@LHAOBIMM@PxTriangleMesh?3?3refitBVH?$CI?$CJ?5is?5o@ 1013a5c8     GuTriangleMesh.obj
 0002:00003640       ??_C@_0BE@CNJKIINO@PxBVH34TriangleMesh@ 1013a640     GuTriangleMeshBV4.obj
 0002:00003654       ??_7BV4TriangleMesh@Gu@physx@@6BPxTriangleMesh@2@@ 1013a654     GuTriangleMeshBV4.obj
 0002:000036a4       ??_7BV4TriangleMesh@Gu@physx@@6BRefCountable@Cm@2@@ 1013a6a4     GuTriangleMeshBV4.obj
 0002:000036d0       ??_C@_0BE@EIFHCCBO@PxBVH33TriangleMesh@ 1013a6d0     GuTriangleMeshRTree.obj
 0002:000036e4       ??_7RTreeTriangleMesh@Gu@physx@@6BPxTriangleMesh@2@@ 1013a6e4     GuTriangleMeshRTree.obj
 0002:00003734       ??_7RTreeTriangleMesh@Gu@physx@@6BRefCountable@Cm@2@@ 1013a734     GuTriangleMeshRTree.obj
 0002:0000373c       ??_7?$RefitCallback@G@physx@@6B@ 1013a73c     GuTriangleMeshRTree.obj
 0002:00003744       ??_7?$RefitCallback@I@physx@@6B@ 1013a744     GuTriangleMeshRTree.obj
 0002:00003750       __xmm@38383838383838383838383838383838 1013a750     GuTriangleMeshRTree.obj
 0002:00003760       ??_C@_0EN@LGALPBLB@C?3?2Users?2maria?2source?2repos?2Phy@ 1013a760     GuBV32.obj
 0002:000037d0       ??_C@_0FC@MFPFCAGE@C?3?2Users?2maria?2source?2repos?2Phy@ 1013a7d0     GuBV32Build.obj
 0002:00003850       __real@3f4ccccd            1013a850     GuPCMContactBoxBox.obj
 0002:00003860       __xmm@00000000358637bd358637bd358637bd 1013a860     GuPCMContactBoxBox.obj
 0002:00003870       __xmm@ffffffff00000000ffffffffffffffff 1013a870     GuPCMContactBoxBox.obj
 0002:000038a0       ??_7?$LocalConvex@VConvexHullNoScaleV@Gu@physx@@@Gu@physx@@6B@ 1013a8a0     GuPCMContactBoxConvex.obj
 0002:00003900       __xmm@ffffffffffffffffffffffff00000000 1013a900     GuPCMContactCapsuleCapsule.obj
 0002:00003930       __real@3fa00000            1013a930     GuPCMContactCapsuleConvex.obj
 0002:00003960       ??_7PCMCapsuleVsHeightfieldContactGenerationCallback@physx@@6B@ 1013a960     GuPCMContactCapsuleHeightField.obj
 0002:00003968       __real@3f7ef9db            1013a968     GuPCMContactCapsuleHeightField.obj
 0002:0000396c       __real@3f7f3b64            1013a96c     GuPCMContactCapsuleHeightField.obj
 0002:00003998       ??_7PCMCapsuleVsMeshContactGenerationCallback@physx@@6B@ 1013a998     GuPCMContactCapsuleMesh.obj
 0002:000039c0       ??_7?$SupportLocalImpl@VTriangleV@Gu@physx@@@Gu@physx@@6B@ 1013a9c0     GuPCMContactConvexCommon.obj
 0002:000039d0       ??_C@_0FE@IAIPDGKK@C?3?2Users?2maria?2source?2repos?2Phy@ 1013a9d0     GuPCMContactConvexCommon.obj
 0002:00003a24       __real@3f7851ec            1013aa24     GuPCMContactConvexCommon.obj
 0002:00003a50       ??_7?$RelativeConvex@VConvexHullNoScaleV@Gu@physx@@@Gu@physx@@6B@ 1013aa50     GuPCMContactConvexConvex.obj
 0002:00003a90       ??_7PCMConvexVsHeightfieldContactGenerationCallback@physx@@6B@ 1013aa90     GuPCMContactConvexHeightField.obj
 0002:00003ac8       ??_7PCMConvexVsMeshContactGenerationCallback@physx@@6B@ 1013aac8     GuPCMContactConvexMesh.obj
 0002:00003af0       __real@3f34fdf4            1013aaf0     GuPCMContactGenBoxConvex.obj
 0002:00003c00       ??_7PCMSphereVsHeightfieldContactGenerationCallback@physx@@6B@ 1013ac00     GuPCMContactSphereHeightField.obj
 0002:00003c38       ??_7PCMSphereVsMeshContactGenerationCallback@physx@@6B@ 1013ac38     GuPCMContactSphereMesh.obj
 0002:00003ca0       ?gPCMBoxPolygonData@Gu@physx@@3QBEB 1013aca0     GuPCMShapeConvex.obj
 0002:00003ce0       ?invalidateThresholds@Gu@physx@@3QBMB 1013ace0     GuPersistentContactManifold.obj
 0002:00003cf4       ?invalidateQuatThresholds@Gu@physx@@3QBMB 1013acf4     GuPersistentContactManifold.obj
 0002:00003d08       ?invalidateThresholds2@Gu@physx@@3QBMB 1013ad08     GuPersistentContactManifold.obj
 0002:00003d14       ?invalidateQuatThresholds2@Gu@physx@@3QBMB 1013ad14     GuPersistentContactManifold.obj
 0002:00003d40       __xmm@000000003f8000003f80000000000000 1013ad40     GuPersistentContactManifold.obj
 0002:00003d50       __xmm@00000000bf8000003f80000000000000 1013ad50     GuPersistentContactManifold.obj
 0002:00003d60       __xmm@ffffffffffffffff00000000ffffffff 1013ad60     GuPersistentContactManifold.obj
 0002:00003db0       __real@b727c5ac            1013adb0     GuSweepBoxSphere.obj
 0002:00003e20       ??_C@_0FJ@GEGCPIM@C?3?2Users?2maria?2source?2repos?2Phy@ 1013ae20     GuSweepCapsuleBox.obj
 0002:00003ea0       __real@3f7fff58            1013aea0     GuSweepCapsuleTriangle.obj
 0002:00003ef0       __sz_PhysXFoundation_32_dll 1013aef0     PhysXFoundation_32:PhysXFoundation_32.dll
 0002:00003f08       ??_C@_1BK@DBDEIDLH@?$AAK?$AAE?$AAR?$AAN?$AAE?$AAL?$AA3?$AA2?$AA?4?$AAD?$AAL?$AAL@ 1013af08     Delayimp:delayhlp.obj
 0002:00003f24       ??_C@_0BI@OMNLIJDB@AcquireSRWLockExclusive@ 1013af24     Delayimp:delayhlp.obj
 0002:00003f3c       ??_C@_0BI@HMIEPCNJ@ReleaseSRWLockExclusive@ 1013af3c     Delayimp:delayhlp.obj
 0002:00003f54       ___pfnDliFailureHook2      1013af54     Delayimp:delayhk1.obj
 0002:00003f7c       ??_7type_info@@6B@         1013af7c     LIBCMT:std_type_info_static.obj
 0002:00003fe0       __pRawDllMain              1013afe0     LIBCMT:dll_dllmain.obj
 0002:00003fe0       __pDefaultRawDllMain       1013afe0     LIBCMT:dll_dllmain.obj
 0002:00003fe8       __load_config_used         1013afe8     LIBCMT:loadcfg.obj
 0002:000040ac       __pDestructExceptionObject 1013b0ac     libvcruntime:ehhelpers.obj
 0002:00004430       ??_C@_08EHJDFFNH@__based?$CI@ 1013b430     libvcruntime:undname.obj
 0002:0000443c       ??_C@_07KOLFKCDI@__cdecl@  1013b43c     libvcruntime:undname.obj
 0002:00004444       ??_C@_08GHMPAG@__pascal@   1013b444     libvcruntime:undname.obj
 0002:00004450       ??_C@_09IFJBGAPI@__stdcall@ 1013b450     libvcruntime:undname.obj
 0002:0000445c       ??_C@_0L@NPHFGOKO@__thiscall@ 1013b45c     libvcruntime:undname.obj
 0002:00004468       ??_C@_0L@JMKHOMEK@__fastcall@ 1013b468     libvcruntime:undname.obj
 0002:00004474       ??_C@_0N@BCKKPABJ@__vectorcall@ 1013b474     libvcruntime:undname.obj
 0002:00004484       ??_C@_09HIJEGCPM@__clrcall@ 1013b484     libvcruntime:undname.obj
 0002:00004490       ??_C@_06GHPCKEAG@__eabi@   1013b490     libvcruntime:undname.obj
 0002:00004498       ??_C@_09IOPIDJLG@__swift_1@ 1013b498     libvcruntime:undname.obj
 0002:000044a4       ??_C@_09KFNFGKHF@__swift_2@ 1013b4a4     libvcruntime:undname.obj
 0002:000044b0       ??_C@_07JOMMBBKO@__ptr64@  1013b4b0     libvcruntime:undname.obj
 0002:000044b8       ??_C@_0L@PILCLIHE@__restrict@ 1013b4b8     libvcruntime:undname.obj
 0002:000044c4       ??_C@_0M@GFIIJFMG@__unaligned@ 1013b4c4     libvcruntime:undname.obj
 0002:000044d0       ??_C@_09DHDLOLLB@restrict?$CI@ 1013b4d0     libvcruntime:undname.obj
 0002:000044da       ??_C@_00CNPNBAHC@@         1013b4da     libvcruntime:undname.obj
 0002:000044dc       ??_C@_04NIHEBCM@?5new@     1013b4dc     libvcruntime:undname.obj
 0002:000044e4       ??_C@_07FPCDHGMM@?5delete@ 1013b4e4     libvcruntime:undname.obj
 0002:000044ec       ??_C@_01NEMOKFLO@?$DN@     1013b4ec     libvcruntime:undname.obj
 0002:000044f0       ??_C@_02GPIOPFAK@?$DO?$DO@ 1013b4f0     libvcruntime:undname.obj
 0002:000044f4       ??_C@_02FODMEDOG@?$DM?$DM@ 1013b4f4     libvcruntime:undname.obj
 0002:000044f8       ??_C@_01DCLJPIOD@?$CB@     1013b4f8     libvcruntime:undname.obj
 0002:000044fc       ??_C@_02EGOFBIJA@?$DN?$DN@ 1013b4fc     libvcruntime:undname.obj
 0002:00004500       ??_C@_02FDNJECIE@?$CB?$DN@ 1013b500     libvcruntime:undname.obj
 0002:00004504       ??_C@_02GPECMEKF@?$FL?$FN@ 1013b504     libvcruntime:undname.obj
 0002:00004508       ??_C@_08LHJFAFGD@operator@ 1013b508     libvcruntime:undname.obj
 0002:00004514       ??_C@_02HBOOOICD@?9?$DO@   1013b514     libvcruntime:undname.obj
 0002:00004518       ??_C@_01NBENCBCI@?$CK@     1013b518     libvcruntime:undname.obj
 0002:0000451c       ??_C@_02ECNGHCIF@?$CL?$CL@ 1013b51c     libvcruntime:undname.obj
 0002:00004520       ??_C@_02BAABKJLB@?9?9@     1013b520     libvcruntime:undname.obj
 0002:00004524       ??_C@_01JOAMLHOP@?9@       1013b524     libvcruntime:undname.obj
 0002:00004528       ??_C@_01MIFGBAGJ@?$CL@     1013b528     libvcruntime:undname.obj
 0002:0000452c       ??_C@_01HNPIGOCE@?$CG@     1013b52c     libvcruntime:undname.obj
 0002:00004530       ??_C@_03MNHNFDLC@?9?$DO?$CK@ 1013b530     libvcruntime:undname.obj
 0002:00004534       ??_C@_01KMDKNFGN@?1@       1013b534     libvcruntime:undname.obj
 0002:00004538       ??_C@_01FGNFDNOH@?$CF@     1013b538     libvcruntime:undname.obj
 0002:0000453c       ??_C@_01MNNFJEPP@?$DM@     1013b53c     libvcruntime:undname.obj
 0002:00004540       ??_C@_02EHCHHCKH@?$DM?$DN@ 1013b540     libvcruntime:undname.obj
 0002:00004544       ??_C@_01PPODPGHN@?$DO@     1013b544     libvcruntime:undname.obj
 0002:00004548       ??_C@_02EEKDKGMJ@?$DO?$DN@ 1013b548     libvcruntime:undname.obj
 0002:0000454c       ??_C@_01IHBHIGKO@?0@       1013b54c     libvcruntime:undname.obj
 0002:00004550       ??_C@_02HCKGKOFO@?$CI?$CJ@ 1013b550     libvcruntime:undname.obj
 0002:00004554       ??_C@_01PJKLJHI@?$HO@      1013b554     libvcruntime:undname.obj
 0002:00004558       ??_C@_01JKBOJNNK@?$FO@     1013b558     libvcruntime:undname.obj
 0002:0000455c       ??_C@_01DNKMNLPK@?$HM@     1013b55c     libvcruntime:undname.obj
 0002:00004560       ??_C@_02PPKAJPJL@?$CG?$CG@ 1013b560     libvcruntime:undname.obj
 0002:00004564       ??_C@_02NONPIBCD@?$HM?$HM@ 1013b564     libvcruntime:undname.obj
 0002:00004568       ??_C@_02FPIMKNGF@?$CK?$DN@ 1013b568     libvcruntime:undname.obj
 0002:0000456c       ??_C@_02FOEOMHFC@?$CL?$DN@ 1013b56c     libvcruntime:undname.obj
 0002:00004570       ??_C@_02FKMDLLOA@?9?$DN@   1013b570     libvcruntime:undname.obj
 0002:00004574       ??_C@_02FJEHGPIO@?1?$DN@   1013b574     libvcruntime:undname.obj
 0002:00004578       ??_C@_02FENAOKFI@?$CF?$DN@ 1013b578     libvcruntime:undname.obj
 0002:0000457c       ??_C@_03IKFCCPFF@?$DO?$DO?$DN@ 1013b57c     libvcruntime:undname.obj
 0002:00004580       ??_C@_03CDNPDDLA@?$DM?$DM?$DN@ 1013b580     libvcruntime:undname.obj
 0002:00004584       ??_C@_02FGJGFEAB@?$CG?$DN@ 1013b584     libvcruntime:undname.obj
 0002:00004588       ??_C@_02DHLNPPGH@?$HM?$DN@ 1013b588     libvcruntime:undname.obj
 0002:0000458c       ??_C@_02MHEGNOJ@?$FO?$DN@  1013b58c     libvcruntime:undname.obj
 0002:00004590       ??_C@_09IFPLHPGF@?$GAvftable?8@ 1013b590     libvcruntime:undname.obj
 0002:0000459c       ??_C@_09BLBHBJP@?$GAvbtable?8@ 1013b59c     libvcruntime:undname.obj
 0002:000045a8       ??_C@_07FEEIOKP@?$GAvcall?8@ 1013b5a8     libvcruntime:undname.obj
 0002:000045b0       ??_C@_08LLFFHHDJ@?$GAtypeof?8@ 1013b5b0     libvcruntime:undname.obj
 0002:000045bc       ??_C@_0BF@KDPPACIK@?$GAlocal?5static?5guard?8@ 1013b5bc     libvcruntime:undname.obj
 0002:000045d4       ??_C@_08OBABFOLI@?$GAstring?8@ 1013b5d4     libvcruntime:undname.obj
 0002:000045e0       ??_C@_0BD@JDLKDPAB@?$GAvbase?5destructor?8@ 1013b5e0     libvcruntime:undname.obj
 0002:000045f4       ??_C@_0BN@DEGPLNFK@?$GAvector?5deleting?5destructor?8@ 1013b5f4     libvcruntime:undname.obj
 0002:00004614       ??_C@_0BO@OBMKPJIG@?$GAdefault?5constructor?5closure?8@ 1013b614     libvcruntime:undname.obj
 0002:00004634       ??_C@_0BN@IMDCHIKM@?$GAscalar?5deleting?5destructor?8@ 1013b634     libvcruntime:undname.obj
 0002:00004654       ??_C@_0BO@PFGOCPJJ@?$GAvector?5constructor?5iterator?8@ 1013b654     libvcruntime:undname.obj
 0002:00004674       ??_C@_0BN@LFPFMEDL@?$GAvector?5destructor?5iterator?8@ 1013b674     libvcruntime:undname.obj
 0002:00004694       ??_C@_0CE@IKBNEHA@?$GAvector?5vbase?5constructor?5itera@ 1013b694     libvcruntime:undname.obj
 0002:000046b8       ??_C@_0BL@NILFHHPC@?$GAvirtual?5displacement?5map?8@ 1013b6b8     libvcruntime:undname.obj
 0002:000046d4       ??_C@_0CB@JONCMFFK@?$GAeh?5vector?5constructor?5iterator@ 1013b6d4     libvcruntime:undname.obj
 0002:000046f8       ??_C@_0CA@GCEOPDGL@?$GAeh?5vector?5destructor?5iterator?8@ 1013b6f8     libvcruntime:undname.obj
 0002:00004718       ??_C@_0CH@OOJPLCPH@?$GAeh?5vector?5vbase?5constructor?5it@ 1013b718     libvcruntime:undname.obj
 0002:00004740       ??_C@_0BL@LLKPOHJI@?$GAcopy?5constructor?5closure?8@ 1013b740     libvcruntime:undname.obj
 0002:0000475c       ??_C@_0BA@KBCDOMBN@?$GAudt?5returning?8@ 1013b75c     libvcruntime:undname.obj
 0002:0000476c       ??_C@_03KLGMFNMG@?$GAEH@   1013b76c     libvcruntime:undname.obj
 0002:00004770       ??_C@_05KHLCHHI@?$GARTTI@  1013b770     libvcruntime:undname.obj
 0002:00004778       ??_C@_0BA@KKLDJDLB@?$GAlocal?5vftable?8@ 1013b778     libvcruntime:undname.obj
 0002:00004788       ??_C@_0CE@IIHCMGGL@?$GAlocal?5vftable?5constructor?5clos@ 1013b788     libvcruntime:undname.obj
 0002:000047ac       ??_C@_06FHBGPFGH@?5new?$FL?$FN@ 1013b7ac     libvcruntime:undname.obj
 0002:000047b4       ??_C@_09LBNFPBCA@?5delete?$FL?$FN@ 1013b7b4     libvcruntime:undname.obj
 0002:000047c0       ??_C@_0P@HJKNJFNN@?$GAomni?5callsig?8@ 1013b7c0     libvcruntime:undname.obj
 0002:000047d0       ??_C@_0BL@CNOONJFP@?$GAplacement?5delete?5closure?8@ 1013b7d0     libvcruntime:undname.obj
 0002:000047ec       ??_C@_0BN@CKNJLHMB@?$GAplacement?5delete?$FL?$FN?5closure?8@ 1013b7ec     libvcruntime:undname.obj
 0002:0000480c       ??_C@_0CG@CFDHKGGD@?$GAmanaged?5vector?5constructor?5ite@ 1013b80c     libvcruntime:undname.obj
 0002:00004834       ??_C@_0CF@IMGKMJNO@?$GAmanaged?5vector?5destructor?5iter@ 1013b834     libvcruntime:undname.obj
 0002:0000485c       ??_C@_0CG@HLDDJMAG@?$GAeh?5vector?5copy?5constructor?5ite@ 1013b85c     libvcruntime:undname.obj
 0002:00004884       ??_C@_0CM@FCBBDIGB@?$GAeh?5vector?5vbase?5copy?5construct@ 1013b884     libvcruntime:undname.obj
 0002:000048b0       ??_C@_0BL@CLIPGLGB@?$GAdynamic?5initializer?5for?5?8@ 1013b8b0     libvcruntime:undname.obj
 0002:000048cc       ??_C@_0CB@PDBIFEP@?$GAdynamic?5atexit?5destructor?5for?5@ 1013b8cc     libvcruntime:undname.obj
 0002:000048f0       ??_C@_0CD@CGAJBKEJ@?$GAvector?5copy?5constructor?5iterat@ 1013b8f0     libvcruntime:undname.obj
 0002:00004914       ??_C@_0CJ@GJELGAMM@?$GAvector?5vbase?5copy?5constructor?5@ 1013b914     libvcruntime:undname.obj
 0002:00004940       ??_C@_0CL@FGIJHLCE@?$GAmanaged?5vector?5copy?5constructo@ 1013b940     libvcruntime:undname.obj
 0002:0000496c       ??_C@_0BM@PMGGMLDN@?$GAlocal?5static?5thread?5guard?8@ 1013b96c     libvcruntime:undname.obj
 0002:00004988       ??_C@_0N@BDNMDMOL@operator?5?$CC?$CC?5@ 1013b988     libvcruntime:undname.obj
 0002:00004998       ??_C@_0BC@GGEBGALA@operator?5co_await@ 1013b998     libvcruntime:undname.obj
 0002:000049ac       ??_C@_0M@GAAIMMOH@operator?$DM?$DN?$DO@ 1013b9ac     libvcruntime:undname.obj
 0002:000049b8       ??_C@_0BC@DAFEJGAK@?5Type?5Descriptor?8@ 1013b9b8     libvcruntime:undname.obj
 0002:000049cc       ??_C@_0BM@LDKODKLH@?5Base?5Class?5Descriptor?5at?5?$CI@ 1013b9cc     libvcruntime:undname.obj
 0002:000049e8       ??_C@_0BD@LGICGFMM@?5Base?5Class?5Array?8@ 1013b9e8     libvcruntime:undname.obj
 0002:000049fc       ??_C@_0BN@MECKDCOJ@?5Class?5Hierarchy?5Descriptor?8@ 1013b9fc     libvcruntime:undname.obj
 0002:00004a1c       ??_C@_0BK@CFCOFLF@?5Complete?5Object?5Locator?8@ 1013ba1c     libvcruntime:undname.obj
 0002:00004a38       ??_C@_0BG@JNJLAMPM@?$GAanonymous?5namespace?8@ 1013ba38     libvcruntime:undname.obj
 0002:00004a50       ??_C@_04HEJADOOB@CV?3?5@   1013ba50     libvcruntime:undname.obj
 0002:00004a58       ??_C@_02MOLJINC@?3?3@      1013ba58     libvcruntime:undname.obj
 0002:00004a5c       ??_C@_0BE@JAEOCHPE@template?9parameter?9@ 1013ba5c     libvcruntime:undname.obj
 0002:00004a70       ??_C@_0BF@LNLGBBNL@?$GAtemplate?9parameter?9@ 1013ba70     libvcruntime:undname.obj
 0002:00004a88       ??_C@_0O@KHGCOMHP@generic?9type?9@ 1013ba88     libvcruntime:undname.obj
 0002:00004a98       ??_C@_0P@ODDENDLM@?$GAgeneric?9type?9@ 1013ba98     libvcruntime:undname.obj
 0002:00004aa8       ??_C@_02OHHJMEON@?8?8@     1013baa8     libvcruntime:undname.obj
 0002:00004aac       ??_C@_0BN@IBLMMFAP@?$GAnon?9type?9template?9parameter@ 1013baac     libvcruntime:undname.obj
 0002:00004acc       ??_C@_03DLDNIBIK@?$CFlf@   1013bacc     libvcruntime:undname.obj
 0002:00004ad0       ??_C@_04OFALKAJ@?$DP?$DP_C@ 1013bad0     libvcruntime:undname.obj
 0002:00004ad8       ??_C@_03KHICJKCI@?4?4?4@   1013bad8     libvcruntime:undname.obj
 0002:00004adc       ??_C@_04HIBGFPH@NULL@      1013badc     libvcruntime:undname.obj
 0002:00004ae4       ??_C@_02DPKJAMEF@?$CFd@    1013bae4     libvcruntime:undname.obj
 0002:00004ae8       ??_C@_0BK@IHCCFNEL@?$GAtemplate?9type?9parameter?9@ 1013bae8     libvcruntime:undname.obj
 0002:00004b04       ??_C@_0BK@OFCNNNKO@?$GAgeneric?9class?9parameter?9@ 1013bb04     libvcruntime:undname.obj
 0002:00004b20       ??_C@_0BL@NGJBLFIL@?$GAgeneric?9method?9parameter?9@ 1013bb20     libvcruntime:undname.obj
 0002:00004b3c       ??_C@_07OHNGEDJK@nullptr@  1013bb3c     libvcruntime:undname.obj
 0002:00004b44       ??_C@_0BE@EODMJLIF@?$GAtemplate?9parameter@ 1013bb44     libvcruntime:undname.obj
 0002:00004b58       ??_C@_03OPGICMGF@?$HN?8?5@ 1013bb58     libvcruntime:undname.obj
 0002:00004b5c       ??_C@_02IGFCGPIL@?$HN?8@   1013bb5c     libvcruntime:undname.obj
 0002:00004b60       ??_C@_0N@CBHHHENL@?$GAvtordispex?$HL@ 1013bb60     libvcruntime:undname.obj
 0002:00004b70       ??_C@_0L@GHPFDFH@?$GAvtordisp?$HL@ 1013bb70     libvcruntime:undname.obj
 0002:00004b7c       ??_C@_0L@HNGCOGAE@?$GAadjustor?$HL@ 1013bb7c     libvcruntime:undname.obj
 0002:00004b88       ??_C@_0CB@KJDOOODE@?$GAlocal?5static?5destructor?5helper@ 1013bb88     libvcruntime:undname.obj
 0002:00004bac       ??_C@_0DB@ILEFOCIJ@?$GAtemplate?5static?5data?5member?5co@ 1013bbac     libvcruntime:undname.obj
 0002:00004be0       ??_C@_0DA@HGFJFBBE@?$GAtemplate?5static?5data?5member?5de@ 1013bbe0     libvcruntime:undname.obj
 0002:00004c10       ??_C@_07PGOEDBHP@static?5@ 1013bc10     libvcruntime:undname.obj
 0002:00004c18       ??_C@_08NIEOINHE@virtual?5@ 1013bc18     libvcruntime:undname.obj
 0002:00004c24       ??_C@_09LAPHOOG@private?3?5@ 1013bc24     libvcruntime:undname.obj
 0002:00004c30       ??_C@_0M@GAIFPFIP@protected?3?5@ 1013bc30     libvcruntime:undname.obj
 0002:00004c3c       ??_C@_08GPDDCMKI@public?3?5@ 1013bc3c     libvcruntime:undname.obj
 0002:00004c48       ??_C@_08KJLFOPNE@?$FLthunk?$FN?3@ 1013bc48     libvcruntime:undname.obj
 0002:00004c54       ??_C@_0M@DHNBOJMP@extern?5?$CCC?$CC?5@ 1013bc54     libvcruntime:undname.obj
 0002:00004c60       ??_C@_02KCKGHPCA@?$CJ?5@   1013bc60     libvcruntime:undname.obj
 0002:00004c64       ??_C@_05CIHEBHNO@char?5@   1013bc64     libvcruntime:undname.obj
 0002:00004c6c       ??_C@_06EHJMALKF@short?5@  1013bc6c     libvcruntime:undname.obj
 0002:00004c74       ??_C@_04LAHKHJMA@int?5@    1013bc74     libvcruntime:undname.obj
 0002:00004c7c       ??_C@_05CJIMAING@long?5@   1013bc7c     libvcruntime:undname.obj
 0002:00004c84       ??_C@_09EBBEKKIH@unsigned?5@ 1013bc84     libvcruntime:undname.obj
 0002:00004c90       ??_C@_05BEFAKPML@void?5@   1013bc90     libvcruntime:undname.obj
 0002:00004c98       ??_C@_09GAIEOBLP@volatile?5@ 1013bc98     libvcruntime:undname.obj
 0002:00004ca4       ??_C@_08PABEKFH@volatile@  1013bca4     libvcruntime:undname.obj
 0002:00004cb0       ??_C@_0BA@LKIJLKPP@std?3?3nullptr_t?5@ 1013bcb0     libvcruntime:undname.obj
 0002:00004cc0       ??_C@_0P@GCOCNKDM@std?3?3nullptr_t@ 1013bcc0     libvcruntime:undname.obj
 0002:00004cd0       ??_C@_0L@EGPHHEKN@?$DMellipsis?$DO@ 1013bcd0     libvcruntime:undname.obj
 0002:00004cdc       ??_C@_04EENFHACM@?0?4?4?4@ 1013bcdc     libvcruntime:undname.obj
 0002:00004ce4       ??_C@_0M@ELJOJFFH@?0?$DMellipsis?$DO@ 1013bce4     libvcruntime:undname.obj
 0002:00004cf0       ??_C@_09DNHFEOJI@?5noexcept@ 1013bcf0     libvcruntime:undname.obj
 0002:00004cfc       ??_C@_03PBJBJNON@cpu@      1013bcfc     libvcruntime:undname.obj
 0002:00004d00       ??_C@_03DCBBJBAA@amp@      1013bd00     libvcruntime:undname.obj
 0002:00004d04       ??_C@_02KEGNLNML@?0?5@     1013bd04     libvcruntime:undname.obj
 0002:00004d08       ??_C@_04ENMBGAPA@char@     1013bd08     libvcruntime:undname.obj
 0002:00004d10       ??_C@_05BFKKPKCG@short@    1013bd10     libvcruntime:undname.obj
 0002:00004d18       ??_C@_03JBIPMCLC@int@      1013bd18     libvcruntime:undname.obj
 0002:00004d1c       ??_C@_04GOKPGOLB@long@     1013bd1c     libvcruntime:undname.obj
 0002:00004d24       ??_C@_06BNJCAIGJ@double@   1013bd24     libvcruntime:undname.obj
 0002:00004d2c       ??_C@_06EBGKOKIG@__int8@   1013bd2c     libvcruntime:undname.obj
 0002:00004d34       ??_C@_07ICFHOGAF@__int16@  1013bd34     libvcruntime:undname.obj
 0002:00004d3c       ??_C@_07OFLPPHGP@__int32@  1013bd3c     libvcruntime:undname.obj
 0002:00004d44       ??_C@_07LFCOJCAC@__int64@  1013bd44     libvcruntime:undname.obj
 0002:00004d4c       ??_C@_08GAHOLHEO@__int128@ 1013bd4c     libvcruntime:undname.obj
 0002:00004d58       ??_C@_09EEKGDCPH@?$DMunknown?$DO@ 1013bd58     libvcruntime:undname.obj
 0002:00004d64       ??_C@_07CFHGOPCN@char8_t@  1013bd64     libvcruntime:undname.obj
 0002:00004d6c       ??_C@_08HBIPOFJB@char16_t@ 1013bd6c     libvcruntime:undname.obj
 0002:00004d78       ??_C@_08IECNCBKG@char32_t@ 1013bd78     libvcruntime:undname.obj
 0002:00004d84       ??_C@_07CLGGIAMF@wchar_t@  1013bd84     libvcruntime:undname.obj
 0002:00004d8c       ??_C@_04HAPDLBFF@auto@     1013bd8c     libvcruntime:undname.obj
 0002:00004d94       ??_C@_0P@LHCGKIGK@decltype?$CIauto?$CJ@ 1013bd94     libvcruntime:undname.obj
 0002:00004da4       ??_C@_06GCICPBLB@__w64?5@  1013bda4     libvcruntime:undname.obj
 0002:00004dac       ??_C@_07NFANNNEC@UNKNOWN@  1013bdac     libvcruntime:undname.obj
 0002:00004db4       ??_C@_07EDHNAJHC@signed?5@ 1013bdb4     libvcruntime:undname.obj
 0002:00004dbc       ??_C@_05BNCCCJPP@const@    1013bdbc     libvcruntime:undname.obj
 0002:00004dc4       ??_C@_09EFNPDFFP@?5volatile@ 1013bdc4     libvcruntime:undname.obj
 0002:00004dd0       ??_C@_0P@GCIFDJCJ@?$GAunknown?5ecsu?8@ 1013bdd0     libvcruntime:undname.obj
 0002:00004de0       ??_C@_06MOJHIBMG@union?5@  1013bde0     libvcruntime:undname.obj
 0002:00004de8       ??_C@_07DIBCDNGL@struct?5@ 1013bde8     libvcruntime:undname.obj
 0002:00004df0       ??_C@_06LJBABKPM@class?5@  1013bdf0     libvcruntime:undname.obj
 0002:00004df8       ??_C@_08KOFANOFK@coclass?5@ 1013bdf8     libvcruntime:undname.obj
 0002:00004e04       ??_C@_0N@DLIEFKNA@cointerface?5@ 1013be04     libvcruntime:undname.obj
 0002:00004e14       ??_C@_05LJGMCFOG@enum?5@   1013be14     libvcruntime:undname.obj
 0002:00004e1c       ??_C@_06LIJLOJAG@const?5@  1013be1c     libvcruntime:undname.obj
 0002:00004e24       ??_C@_02KJPKDIBN@?$CG?5@   1013be24     libvcruntime:undname.obj
 0002:00004e28       ??_C@_03PCKGMOPB@?$CG?$CG?5@ 1013be28     libvcruntime:undname.obj
 0002:00004e2c       ??_C@_0M@EALIELKG@cli?3?3array?$DM@ 1013be2c     libvcruntime:undname.obj
 0002:00004e38       ??_C@_0O@GKABPPIF@cli?3?3pin_ptr?$DM@ 1013be38     libvcruntime:undname.obj
 0002:00004e48       ??_C@_02GOGNNPBN@?$CJ?$FL@ 1013be48     libvcruntime:undname.obj
 0002:00004e4c       ??_C@_06EEGAIFAK@?$HLflat?$HN@ 1013be4c     libvcruntime:undname.obj
 0002:00004e54       ??_C@_05JIBOFOHK@?$HLfor?5@ 1013be54     libvcruntime:undname.obj
 0002:00004e5c       ??_C@_02MDINNEEG@s?5@      1013be5c     libvcruntime:undname.obj
 0002:00004e64       ??_7charNode@@6B@          1013be64     libvcruntime:undname.obj
 0002:00004e78       ??_7pcharNode@@6B@         1013be78     libvcruntime:undname.obj
 0002:00004e8c       ??_7pDNameNode@@6B@        1013be8c     libvcruntime:undname.obj
 0002:00004ea0       ??_7DNameStatusNode@@6B@   1013bea0     libvcruntime:undname.obj
 0002:00004eb4       ??_7pairNode@@6B@          1013beb4     libvcruntime:undname.obj
 0002:00004fc8       ??_C@_04OKOHEJBO@?5?$DP?$DP?5@ 1013bfc8     libvcruntime:undname.obj
 0002:00004fd0       ?nodes@?1??make@DNameStatusNode@@SAPBV2@W4DNameStatus@@@Z@4QBV2@B 1013bfd0     libvcruntime:undname.obj
 0002:0000500c       ??_C@_1DM@KHCHBNEB@?$AAa?$AAp?$AAi?$AA?9?$AAm?$AAs?$AA?9?$AAw?$AAi?$AAn?$AA?9?$AAc?$AAo?$AAr?$AAe@ 1013c00c     libvcruntime:winapi_downlevel.obj
 0002:00005048       ??_C@_1DK@LPPGFMPP@?$AAa?$AAp?$AAi?$AA?9?$AAm?$AAs?$AA?9?$AAw?$AAi?$AAn?$AA?9?$AAc?$AAo?$AAr?$AAe@ 1013c048     libvcruntime:winapi_downlevel.obj
 0002:00005084       ??_C@_1BC@GDMECMAK@?$AAk?$AAe?$AAr?$AAn?$AAe?$AAl?$AA3?$AA2@ 1013c084     libvcruntime:winapi_downlevel.obj
 0002:00005098       ??_C@_1BA@PFFKHIOG@?$AAa?$AAp?$AAi?$AA?9?$AAm?$AAs?$AA?9@ 1013c098     libvcruntime:winapi_downlevel.obj
 0002:000050b0       ??_C@_08KNHFBNJ@FlsAlloc@  1013c0b0     libvcruntime:winapi_downlevel.obj
 0002:000050c4       ??_C@_07PEJMOBNF@FlsFree@  1013c0c4     libvcruntime:winapi_downlevel.obj
 0002:000050d4       ??_C@_0M@GDNOONDI@FlsGetValue@ 1013c0d4     libvcruntime:winapi_downlevel.obj
 0002:000050e8       ??_C@_0M@JCPCPOEF@FlsSetValue@ 1013c0e8     libvcruntime:winapi_downlevel.obj
 0002:000050fc       ??_C@_0BM@HCFOFFN@InitializeCriticalSectionEx@ 1013c0fc     libvcruntime:winapi_downlevel.obj
 0002:0000511c       ??_7exception@std@@6B@     1013c11c     libvcruntime:frame.obj
 0002:00005124       ??_C@_0BC@EOODALEL@Unknown?5exception@ 1013c124     libvcruntime:frame.obj
 0002:0000513c       ??_7bad_exception@std@@6B@ 1013c13c     libvcruntime:frame.obj
 0002:00005144       ??_C@_0O@DPKOEFFH@bad?5exception@ 1013c144     libvcruntime:frame.obj
 0002:00005b28       __real@3ff0000000000000    1013cb28     libucrt:ieeemisc.obj
 0002:00006448       ??_C@_03KHJOGHMM@exp@      1013d448     libucrt:fpexcept.obj
 0002:0000644c       ??_C@_03JGHBODFD@pow@      1013d44c     libucrt:fpexcept.obj
 0002:00006450       ??_C@_03MGHMBJCF@log@      1013d450     libucrt:fpexcept.obj
 0002:00006454       ??_C@_05HGHHAHAP@log10@    1013d454     libucrt:fpexcept.obj
 0002:0000645c       ??_C@_04COOMCNPB@sinh@     1013d45c     libucrt:fpexcept.obj
 0002:00006464       ??_C@_04HPJJNFIM@cosh@     1013d464     libucrt:fpexcept.obj
 0002:0000646c       ??_C@_04FJHINJAO@tanh@     1013d46c     libucrt:fpexcept.obj
 0002:00006474       ??_C@_04FIHNOPOL@asin@     1013d474     libucrt:fpexcept.obj
 0002:0000647c       ??_C@_04PDIFKINK@acos@     1013d47c     libucrt:fpexcept.obj
 0002:00006484       ??_C@_04MLLJIGOK@atan@     1013d484     libucrt:fpexcept.obj
 0002:0000648c       ??_C@_05KNGEOGJB@atan2@    1013d48c     libucrt:fpexcept.obj
 0002:00006494       ??_C@_04EIAKFFMI@sqrt@     1013d494     libucrt:fpexcept.obj
 0002:0000649c       ??_C@_03BLEJJJBH@sin@      1013d49c     libucrt:fpexcept.obj
 0002:000064a0       ??_C@_03LALBNOCG@cos@      1013d4a0     libucrt:fpexcept.obj
 0002:000064a4       ??_C@_03IIINPABG@tan@      1013d4a4     libucrt:fpexcept.obj
 0002:000064a8       ??_C@_04GFPJNGEK@ceil@     1013d4a8     libucrt:fpexcept.obj
 0002:000064b0       ??_C@_05PBJFFIGL@floor@    1013d4b0     libucrt:fpexcept.obj
 0002:000064b8       ??_C@_04ODHECPBC@fabs@     1013d4b8     libucrt:fpexcept.obj
 0002:000064c0       ??_C@_04EHEDPDJG@modf@     1013d4c0     libucrt:fpexcept.obj
 0002:000064c8       ??_C@_05CEJMAHNP@ldexp@    1013d4c8     libucrt:fpexcept.obj
 0002:000064d0       ??_C@_05KBKMEMPO@_cabs@    1013d4d0     libucrt:fpexcept.obj
 0002:000064d8       ??_C@_06MEIMCGCF@_hypot@   1013d4d8     libucrt:fpexcept.obj
 0002:000064e0       ??_C@_04KEPJIHGP@fmod@     1013d4e0     libucrt:fpexcept.obj
 0002:000064e8       ??_C@_05GKKHEGJL@frexp@    1013d4e8     libucrt:fpexcept.obj
 0002:000064f0       ??_C@_03MJLDFKDL@_y0@      1013d4f0     libucrt:fpexcept.obj
 0002:000064f4       ??_C@_03NAKIGLHK@_y1@      1013d4f4     libucrt:fpexcept.obj
 0002:000064f8       ??_C@_03ONILCKOB@_yn@      1013d4f8     libucrt:fpexcept.obj
 0002:000064fc       ??_C@_05JGDBENOH@_logb@    1013d4fc     libucrt:fpexcept.obj
 0002:00006504       ??_C@_0L@KDOEJCKC@_nextafter@ 1013d504     libucrt:fpexcept.obj
 0002:00006510       ___acrt_exception_action_table 1013d510     libucrt:exception_filter.obj
 0002:000065a0       ___acrt_signal_action_table_count 1013d5a0     libucrt:exception_filter.obj
 0002:000065a4       ___acrt_signal_action_first_fpe_index 1013d5a4     libucrt:exception_filter.obj
 0002:000065a8       ___acrt_signal_action_fpe_count 1013d5a8     libucrt:exception_filter.obj
 0002:000065ac       ??_C@_1BI@BGOHAHKC@?$AAm?$AAs?$AAc?$AAo?$AAr?$AAe?$AAe?$AA?4?$AAd?$AAl?$AAl@ 1013d5ac     libucrt:exit.obj
 0002:000065c4       ??_C@_0P@MIGLKIOC@CorExitProcess@ 1013d5c4     libucrt:exit.obj
 0002:00006658       ?format_validation_lookup_table_spectre@__crt_stdio_output@@3V?$spectre_mitigated_lookup_table@Ustate_transition_pair@__crt_stdio_output@@$0IA@@1@B 1013d658     libucrt:output.obj
 0002:00006758       ??_C@_1O@CEDCILHN@?$AA?$CI?$AAn?$AAu?$AAl?$AAl?$AA?$CJ@ 1013d758     libucrt:output.obj
 0002:00006768       ??_C@_06OJHGLDPL@?$CInull?$CJ@ 1013d768     libucrt:output.obj
 0002:00006770       __d_inf                    1013d770     libucrt:util.obj
 0002:00006778       __d_max                    1013d778     libucrt:util.obj
 0002:00006780       __d_mzero                  1013d780     libucrt:util.obj
 0002:000067a0       ___acrt_acosf_asinf_t_table 1013d7a0     libucrt:acosf_asinf_t_table.obj
 0002:00006d18       ??_C@_1M@HPNHIDJI@?$AAj?$AAa?$AA?9?$AAJ?$AAP@ 1013dd18     libucrt:mbctype.obj
 0002:00006d24       ??_C@_1M@BIBDDEMK@?$AAz?$AAh?$AA?9?$AAC?$AAN@ 1013dd24     libucrt:mbctype.obj
 0002:00006d30       ??_C@_1M@JLOOOEGK@?$AAk?$AAo?$AA?9?$AAK?$AAR@ 1013dd30     libucrt:mbctype.obj
 0002:00006d3c       ??_C@_1M@CLNBBOPM@?$AAz?$AAh?$AA?9?$AAT?$AAW@ 1013dd3c     libucrt:mbctype.obj
 0002:00006d98       ??_C@_1EA@JGEFHKEI@?$AAa?$AAp?$AAi?$AA?9?$AAm?$AAs?$AA?9?$AAw?$AAi?$AAn?$AA?9?$AAc?$AAo?$AAr?$AAe@ 1013dd98     libucrt:winapi_thunks.obj
 0002:00006dd8       ??_C@_1DI@IJCEHOCB@?$AAa?$AAp?$AAi?$AA?9?$AAm?$AAs?$AA?9?$AAw?$AAi?$AAn?$AA?9?$AAc?$AAo?$AAr?$AAe@ 1013ddd8     libucrt:winapi_thunks.obj
 0002:00006e10       ??_C@_1EI@MPIAOHOC@?$AAa?$AAp?$AAi?$AA?9?$AAm?$AAs?$AA?9?$AAw?$AAi?$AAn?$AA?9?$AAc?$AAo?$AAr?$AAe@ 1013de10     libucrt:winapi_thunks.obj
 0002:00006e58       ??_C@_1FK@FPHCKFIE@?$AAa?$AAp?$AAi?$AA?9?$AAm?$AAs?$AA?9?$AAw?$AAi?$AAn?$AA?9?$AAc?$AAo?$AAr?$AAe@ 1013de58     libucrt:winapi_thunks.obj
 0002:00006eb8       ??_C@_1EM@DILCGIIO@?$AAa?$AAp?$AAi?$AA?9?$AAm?$AAs?$AA?9?$AAw?$AAi?$AAn?$AA?9?$AAc?$AAo?$AAr?$AAe@ 1013deb8     libucrt:winapi_thunks.obj
 0002:00006f04       ??_C@_1DM@LNCGDDPN@?$AAa?$AAp?$AAi?$AA?9?$AAm?$AAs?$AA?9?$AAw?$AAi?$AAn?$AA?9?$AAc?$AAo?$AAr?$AAe@ 1013df04     libucrt:winapi_thunks.obj
 0002:00006f40       ??_C@_1DO@FPAPJEMD@?$AAa?$AAp?$AAi?$AA?9?$AAm?$AAs?$AA?9?$AAw?$AAi?$AAn?$AA?9?$AAc?$AAo?$AAr?$AAe@ 1013df40     libucrt:winapi_thunks.obj
 0002:00006f80       ??_C@_1DK@NDHNAHIO@?$AAa?$AAp?$AAi?$AA?9?$AAm?$AAs?$AA?9?$AAw?$AAi?$AAn?$AA?9?$AAc?$AAo?$AAr?$AAe@ 1013df80     libucrt:winapi_thunks.obj
 0002:00006fbc       ??_C@_1DM@KGHDGBCM@?$AAa?$AAp?$AAi?$AA?9?$AAm?$AAs?$AA?9?$AAw?$AAi?$AAn?$AA?9?$AAc?$AAo?$AAr?$AAe@ 1013dfbc     libucrt:winapi_thunks.obj
 0002:00006ff8       ??_C@_1EO@IJIOEFOH@?$AAa?$AAp?$AAi?$AA?9?$AAm?$AAs?$AA?9?$AAw?$AAi?$AAn?$AA?9?$AAr?$AAt?$AAc?$AAo@ 1013dff8     libucrt:winapi_thunks.obj
 0002:00007048       ??_C@_1FG@HHGEKANL@?$AAa?$AAp?$AAi?$AA?9?$AAm?$AAs?$AA?9?$AAw?$AAi?$AAn?$AA?9?$AAs?$AAe?$AAc?$AAu@ 1013e048     libucrt:winapi_thunks.obj
 0002:000070a0       ??_C@_1EG@DBIOJECG@?$AAe?$AAx?$AAt?$AA?9?$AAm?$AAs?$AA?9?$AAw?$AAi?$AAn?$AA?9?$AAn?$AAt?$AAu?$AAs@ 1013e0a0     libucrt:winapi_thunks.obj
 0002:000070e8       ??_C@_1EO@FIHMJCLF@?$AAe?$AAx?$AAt?$AA?9?$AAm?$AAs?$AA?9?$AAw?$AAi?$AAn?$AA?9?$AAn?$AAt?$AAu?$AAs@ 1013e0e8     libucrt:winapi_thunks.obj
 0002:00007138       ??_C@_1BC@DNHGCMLG@?$AAa?$AAd?$AAv?$AAa?$AAp?$AAi?$AA3?$AA2@ 1013e138     libucrt:winapi_thunks.obj
 0002:0000714c       ??_C@_1M@OAIMIKLP@?$AAn?$AAt?$AAd?$AAl?$AAl@ 1013e14c     libucrt:winapi_thunks.obj
 0002:00007158       ??_C@_1EG@DPGNFKGC@?$AAa?$AAp?$AAi?$AA?9?$AAm?$AAs?$AA?9?$AAw?$AAi?$AAn?$AA?9?$AAa?$AAp?$AAp?$AAm@ 1013e158     libucrt:winapi_thunks.obj
 0002:000071a0       ??_C@_1O@BCCLBEOE@?$AAu?$AAs?$AAe?$AAr?$AA3?$AA2@ 1013e1a0     libucrt:winapi_thunks.obj
 0002:000071b0       ??_C@_1DM@BPJLHKCE@?$AAa?$AAp?$AAi?$AA?9?$AAm?$AAs?$AA?9?$AAw?$AAi?$AAn?$AA?9?$AAc?$AAo?$AAr?$AAe@ 1013e1b0     libucrt:winapi_thunks.obj
 0002:000071ec       ??_C@_1BA@IAIFMGEF@?$AAe?$AAx?$AAt?$AA?9?$AAm?$AAs?$AA?9@ 1013e1ec     libucrt:winapi_thunks.obj
 0002:00007200       ??_C@_0BA@FHFNEAED@AreFileApisANSI@ 1013e200     libucrt:winapi_thunks.obj
 0002:00007220       ??_C@_0O@KKBNKAPF@LCMapStringEx@ 1013e220     libucrt:winapi_thunks.obj
 0002:00007238       ??_C@_0BB@HBDEELFH@LocaleNameToLCID@ 1013e238     libucrt:winapi_thunks.obj
 0002:00007250       ??_C@_0CF@OJOFEIGO@AppPolicyGetProcessTerminationM@ 1013e250     libucrt:winapi_thunks.obj
 0002:00007298       ___lc_time_c               1013e298     libucrt:nlsdata.obj
 0002:000073fc       ??_C@_03KOEHGMDN@Sun@      1013e3fc     libucrt:nlsdata.obj
 0002:00007400       ??_C@_03PDAGKDH@Mon@       1013e400     libucrt:nlsdata.obj
 0002:00007404       ??_C@_03NAGEINEP@Tue@      1013e404     libucrt:nlsdata.obj
 0002:00007408       ??_C@_03MHOMLAJA@Wed@      1013e408     libucrt:nlsdata.obj
 0002:0000740c       ??_C@_03IOFIKPDN@Thu@      1013e40c     libucrt:nlsdata.obj
 0002:00007410       ??_C@_03IDIOELNC@Fri@      1013e410     libucrt:nlsdata.obj
 0002:00007414       ??_C@_03FEFJNEK@Sat@       1013e414     libucrt:nlsdata.obj
 0002:00007418       ??_C@_06OOPIFAJ@Sunday@    1013e418     libucrt:nlsdata.obj
 0002:00007420       ??_C@_06JLEDEDGH@Monday@   1013e420     libucrt:nlsdata.obj
 0002:00007428       ??_C@_07BAAGCFCM@Tuesday@  1013e428     libucrt:nlsdata.obj
 0002:00007430       ??_C@_09DLIGFAKA@Wednesday@ 1013e430     libucrt:nlsdata.obj
 0002:0000743c       ??_C@_08HACCIKIA@Thursday@ 1013e43c     libucrt:nlsdata.obj
 0002:00007448       ??_C@_06JECMNKMI@Friday@   1013e448     libucrt:nlsdata.obj
 0002:00007450       ??_C@_08INBOOONO@Saturday@ 1013e450     libucrt:nlsdata.obj
 0002:0000745c       ??_C@_03JIHJHPIE@Jan@      1013e45c     libucrt:nlsdata.obj
 0002:00007460       ??_C@_03HJBDCHOM@Feb@      1013e460     libucrt:nlsdata.obj
 0002:00007464       ??_C@_03ODNJBKGA@Mar@      1013e464     libucrt:nlsdata.obj
 0002:00007468       ??_C@_03LEOLGMJP@Apr@      1013e468     libucrt:nlsdata.obj
 0002:0000746c       ??_C@_03CNMDKL@May@        1013e46c     libucrt:nlsdata.obj
 0002:00007470       ??_C@_03IDFGHECI@Jun@      1013e470     libucrt:nlsdata.obj
 0002:00007474       ??_C@_03LBGABGKK@Jul@      1013e474     libucrt:nlsdata.obj
 0002:00007478       ??_C@_03IFJFEIGA@Aug@      1013e478     libucrt:nlsdata.obj
 0002:0000747c       ??_C@_03GGCAPAJC@Sep@      1013e47c     libucrt:nlsdata.obj
 0002:00007480       ??_C@_03BMAOKBAD@Oct@      1013e480     libucrt:nlsdata.obj
 0002:00007484       ??_C@_03JPJOFNIA@Nov@      1013e484     libucrt:nlsdata.obj
 0002:00007488       ??_C@_03MKABNOCG@Dec@      1013e488     libucrt:nlsdata.obj
 0002:0000748c       ??_C@_07CGJPFGJA@January@  1013e48c     libucrt:nlsdata.obj
 0002:00007494       ??_C@_08GNJGEPFN@February@ 1013e494     libucrt:nlsdata.obj
 0002:000074a0       ??_C@_05HPCKOFNC@March@    1013e4a0     libucrt:nlsdata.obj
 0002:000074a8       ??_C@_05DMJDNLEJ@April@    1013e4a8     libucrt:nlsdata.obj
 0002:000074b0       ??_C@_04CNLMGBGM@June@     1013e4b0     libucrt:nlsdata.obj
 0002:000074b8       ??_C@_04MIEPOIFP@July@     1013e4b8     libucrt:nlsdata.obj
 0002:000074c0       ??_C@_06LBBHFDDG@August@   1013e4c0     libucrt:nlsdata.obj
 0002:000074c8       ??_C@_09BHHEALKD@September@ 1013e4c8     libucrt:nlsdata.obj
 0002:000074d4       ??_C@_07JJNFCEND@October@  1013e4d4     libucrt:nlsdata.obj
 0002:000074dc       ??_C@_08HCHEGEOA@November@ 1013e4dc     libucrt:nlsdata.obj
 0002:000074e8       ??_C@_08EDHMEBNP@December@ 1013e4e8     libucrt:nlsdata.obj
 0002:000074f4       ??_C@_02DEDBPAFC@AM@       1013e4f4     libucrt:nlsdata.obj
 0002:000074f8       ??_C@_02CJNFDJBF@PM@       1013e4f8     libucrt:nlsdata.obj
 0002:000074fc       ??_C@_08BPBNCDIB@MM?1dd?1yy@ 1013e4fc     libucrt:nlsdata.obj
 0002:00007508       ??_C@_0BE@CKGJFCPC@dddd?0?5MMMM?5dd?0?5yyyy@ 1013e508     libucrt:nlsdata.obj
 0002:0000751c       ??_C@_08JCCMCCIL@HH?3mm?3ss@ 1013e51c     libucrt:nlsdata.obj
 0002:00007528       ??_C@_17MBGCMIPB@?$AAS?$AAu?$AAn@ 1013e528     libucrt:nlsdata.obj
 0002:00007530       ??_C@_17KBOMKBF@?$AAM?$AAo?$AAn@ 1013e530     libucrt:nlsdata.obj
 0002:00007538       ??_C@_17BMKGEGOJ@?$AAT?$AAu?$AAe@ 1013e538     libucrt:nlsdata.obj
 0002:00007540       ??_C@_17CJEDCEPE@?$AAW?$AAe?$AAd@ 1013e540     libucrt:nlsdata.obj
 0002:00007548       ??_C@_17PDPHAADD@?$AAT?$AAh?$AAu@ 1013e548     libucrt:nlsdata.obj
 0002:00007550       ??_C@_17HFOLPPLP@?$AAF?$AAr?$AAi@ 1013e550     libucrt:nlsdata.obj
 0002:00007558       ??_C@_17GGIBDPIH@?$AAS?$AAa?$AAt@ 1013e558     libucrt:nlsdata.obj
 0002:00007560       ??_C@_1O@IHNHDHPB@?$AAS?$AAu?$AAn?$AAd?$AAa?$AAy@ 1013e560     libucrt:nlsdata.obj
 0002:00007570       ??_C@_1O@MMNBFLIA@?$AAM?$AAo?$AAn?$AAd?$AAa?$AAy@ 1013e570     libucrt:nlsdata.obj
 0002:00007580       ??_C@_1BA@ENFBFFEK@?$AAT?$AAu?$AAe?$AAs?$AAd?$AAa?$AAy@ 1013e580     libucrt:nlsdata.obj
 0002:00007590       ??_C@_1BE@EBOGMDOH@?$AAW?$AAe?$AAd?$AAn?$AAe?$AAs?$AAd?$AAa?$AAy@ 1013e590     libucrt:nlsdata.obj
 0002:000075a4       ??_C@_1BC@HHMNLIHE@?$AAT?$AAh?$AAu?$AAr?$AAs?$AAd?$AAa?$AAy@ 1013e5a4     libucrt:nlsdata.obj
 0002:000075b8       ??_C@_1O@PDICJHAG@?$AAF?$AAr?$AAi?$AAd?$AAa?$AAy@ 1013e5b8     libucrt:nlsdata.obj
 0002:000075c8       ??_C@_1BC@ENMNNPAJ@?$AAS?$AAa?$AAt?$AAu?$AAr?$AAd?$AAa?$AAy@ 1013e5c8     libucrt:nlsdata.obj
 0002:000075dc       ??_C@_17DKNBKCHM@?$AAJ?$AAa?$AAn@ 1013e5dc     libucrt:nlsdata.obj
 0002:000075e4       ??_C@_17LMDJEKJN@?$AAF?$AAe?$AAb@ 1013e5e4     libucrt:nlsdata.obj
 0002:000075ec       ??_C@_17CKNLEDEC@?$AAM?$AAa?$AAr@ 1013e5ec     libucrt:nlsdata.obj
 0002:000075f4       ??_C@_17LFPOIHDD@?$AAA?$AAp?$AAr@ 1013e5f4     libucrt:nlsdata.obj
 0002:000075fc       ??_C@_17PNNKMEED@?$AAM?$AAa?$AAy@ 1013e5fc     libucrt:nlsdata.obj
 0002:00007604       ??_C@_17KCJGOCPB@?$AAJ?$AAu?$AAn@ 1013e604     libucrt:nlsdata.obj
 0002:0000760c       ??_C@_17IJPCKHK@?$AAJ?$AAu?$AAl@ 1013e60c     libucrt:nlsdata.obj
 0002:00007614       ??_C@_17ICPELBCN@?$AAA?$AAu?$AAg@ 1013e614     libucrt:nlsdata.obj
 0002:0000761c       ??_C@_17HCHCOKMG@?$AAS?$AAe?$AAp@ 1013e61c     libucrt:nlsdata.obj
 0002:00007624       ??_C@_17FNLKOI@?$AAO?$AAc?$AAt@ 1013e624     libucrt:nlsdata.obj
 0002:0000762c       ??_C@_17BBDMLCIG@?$AAN?$AAo?$AAv@ 1013e62c     libucrt:nlsdata.obj
 0002:00007634       ??_C@_17EGKACKIF@?$AAD?$AAe?$AAc@ 1013e634     libucrt:nlsdata.obj
 0002:0000763c       ??_C@_1BA@EFMEIEBA@?$AAJ?$AAa?$AAn?$AAu?$AAa?$AAr?$AAy@ 1013e63c     libucrt:nlsdata.obj
 0002:0000764c       ??_C@_1BC@JGDDFFAM@?$AAF?$AAe?$AAb?$AAr?$AAu?$AAa?$AAr?$AAy@ 1013e64c     libucrt:nlsdata.obj
 0002:00007660       ??_C@_1M@IKEENEDF@?$AAM?$AAa?$AAr?$AAc?$AAh@ 1013e660     libucrt:nlsdata.obj
 0002:0000766c       ??_C@_1M@GJNLMHFD@?$AAA?$AAp?$AAr?$AAi?$AAl@ 1013e66c     libucrt:nlsdata.obj
 0002:00007678       ??_C@_19EPFLPGAP@?$AAJ?$AAu?$AAn?$AAe@ 1013e678     libucrt:nlsdata.obj
 0002:00007684       ??_C@_19BIFMLPCD@?$AAJ?$AAu?$AAl?$AAy@ 1013e684     libucrt:nlsdata.obj
 0002:00007690       ??_C@_1O@PAHLKOAC@?$AAA?$AAu?$AAg?$AAu?$AAs?$AAt@ 1013e690     libucrt:nlsdata.obj
 0002:000076a0       ??_C@_1BE@DKAAMBJL@?$AAS?$AAe?$AAp?$AAt?$AAe?$AAm?$AAb?$AAe?$AAr@ 1013e6a0     libucrt:nlsdata.obj
 0002:000076b4       ??_C@_1BA@EPANDLNG@?$AAO?$AAc?$AAt?$AAo?$AAb?$AAe?$AAr@ 1013e6b4     libucrt:nlsdata.obj
 0002:000076c4       ??_C@_1BC@BGLIFPF@?$AAN?$AAo?$AAv?$AAe?$AAm?$AAb?$AAe?$AAr@ 1013e6c4     libucrt:nlsdata.obj
 0002:000076d8       ??_C@_1BC@FEMKIFH@?$AAD?$AAe?$AAc?$AAe?$AAm?$AAb?$AAe?$AAr@ 1013e6d8     libucrt:nlsdata.obj
 0002:000076ec       ??_C@_15ODEHAHHF@?$AAA?$AAM@ 1013e6ec     libucrt:nlsdata.obj
 0002:000076f4       ??_C@_15CLMNNGEL@?$AAP?$AAM@ 1013e6f4     libucrt:nlsdata.obj
 0002:000076fc       ??_C@_1BC@IEBCMHCM@?$AAM?$AAM?$AA?1?$AAd?$AAd?$AA?1?$AAy?$AAy@ 1013e6fc     libucrt:nlsdata.obj
 0002:00007710       ??_C@_1CI@KNAKOEBC@?$AAd?$AAd?$AAd?$AAd?$AA?0?$AA?5?$AAM?$AAM?$AAM?$AAM?$AA?5?$AAd?$AAd?$AA?0?$AA?5@ 1013e710     libucrt:nlsdata.obj
 0002:00007738       ??_C@_1BC@GDGBMEMK@?$AAH?$AAH?$AA?3?$AAm?$AAm?$AA?3?$AAs?$AAs@ 1013e738     libucrt:nlsdata.obj
 0002:0000774c       ??_C@_1M@BMHNFIME@?$AAe?$AAn?$AA?9?$AAU?$AAS@ 1013e74c     libucrt:nlsdata.obj
 0002:00007798       ??_C@_03OEIAHPBN@INF@      1013e798     libucrt:cvt.obj
 0002:0000779c       ??_C@_03OJHLLCGB@inf@      1013e79c     libucrt:cvt.obj
 0002:000077a0       ??_C@_03LKNCIKJB@NAN@      1013e7a0     libucrt:cvt.obj
 0002:000077a4       ??_C@_03LHCJEHON@nan@      1013e7a4     libucrt:cvt.obj
 0002:000077a8       ??_C@_09OFJJIMPC@NAN?$CISNAN?$CJ@ 1013e7a8     libucrt:cvt.obj
 0002:000077b4       ??_C@_09IPFBKMDL@nan?$CIsnan?$CJ@ 1013e7b4     libucrt:cvt.obj
 0002:000077c0       ??_C@_08IKHNHAJ@NAN?$CIIND?$CJ@ 1013e7c0     libucrt:cvt.obj
 0002:000077cc       ??_C@_08OFCDMILK@nan?$CIind?$CJ@ 1013e7cc     libucrt:cvt.obj
 0002:000077d8       ??_C@_05KLBDPFGC@e?$CL000@ 1013e7d8     libucrt:cvt.obj
 0002:000077e0       ___newctype                1013e7e0     libucrt:ctype.obj
 0002:00007ae0       ___newclmap                1013eae0     libucrt:ctype.obj
 0002:00007c60       ___newcumap                1013ec60     libucrt:ctype.obj
 0002:00008720       ??_C@_15EMKDOKLE@?$AAa?$AAr@ 1013f720     libucrt:lcidtoname_downlevel.obj
 0002:00008728       ??_C@_15KNPADPLH@?$AAb?$AAg@ 1013f728     libucrt:lcidtoname_downlevel.obj
 0002:00008730       ??_C@_15EDMHLDMO@?$AAc?$AAa@ 1013f730     libucrt:lcidtoname_downlevel.obj
 0002:00008738       ??_C@_1O@BPEAJADD@?$AAz?$AAh?$AA?9?$AAC?$AAH?$AAS@ 1013f738     libucrt:lcidtoname_downlevel.obj
 0002:00008748       ??_C@_15LJNHCMNK@?$AAc?$AAs@ 1013f748     libucrt:lcidtoname_downlevel.obj
 0002:00008750       ??_C@_15FOMCIDHG@?$AAd?$AAa@ 1013f750     libucrt:lcidtoname_downlevel.obj
 0002:00008758       ??_C@_15NBKABECB@?$AAd?$AAe@ 1013f758     libucrt:lcidtoname_downlevel.obj
 0002:00008760       ??_C@_15GHPEIIAO@?$AAe?$AAl@ 1013f760     libucrt:lcidtoname_downlevel.obj
 0002:00008768       ??_C@_15MNPNEAIF@?$AAe?$AAn@ 1013f768     libucrt:lcidtoname_downlevel.obj
 0002:00008770       ??_C@_15GPIOMPMH@?$AAe?$AAs@ 1013f770     libucrt:lcidtoname_downlevel.obj
 0002:00008778       ??_C@_15NGLOAKJC@?$AAf?$AAi@ 1013f778     libucrt:lcidtoname_downlevel.obj
 0002:00008780       ??_C@_15FBKGNKAM@?$AAf?$AAr@ 1013f780     libucrt:lcidtoname_downlevel.obj
 0002:00008788       ??_C@_15KGGCNEFK@?$AAh?$AAe@ 1013f788     libucrt:lcidtoname_downlevel.obj
 0002:00008790       ??_C@_15PGHLIDMF@?$AAh?$AAu@ 1013f790     libucrt:lcidtoname_downlevel.obj
 0002:00008798       ??_C@_15BIEMAPLM@?$AAi?$AAs@ 1013f798     libucrt:lcidtoname_downlevel.obj
 0002:000087a0       ??_C@_15IFJLDHAF@?$AAi?$AAt@ 1013f7a0     libucrt:lcidtoname_downlevel.obj
 0002:000087a8       ??_C@_15GEMIOCAG@?$AAj?$AAa@ 1013f7a8     libucrt:lcidtoname_downlevel.obj
 0002:000087b0       ??_C@_15EPELEGJA@?$AAk?$AAo@ 1013f7b0     libucrt:lcidtoname_downlevel.obj
 0002:000087b8       ??_C@_15NDDHIMN@?$AAn?$AAl@ 1013f7b8     libucrt:lcidtoname_downlevel.obj
 0002:000087c0       ??_C@_15BPIGNHCD@?$AAn?$AAo@ 1013f7c0     libucrt:lcidtoname_downlevel.obj
 0002:000087c8       ??_C@_15DEOPBLCG@?$AAp?$AAl@ 1013f7c8     libucrt:lcidtoname_downlevel.obj
 0002:000087d0       ??_C@_15KBECGEFG@?$AAp?$AAt@ 1013f7d0     libucrt:lcidtoname_downlevel.obj
 0002:000087d8       ??_C@_15GLJCBFMD@?$AAr?$AAo@ 1013f7d8     libucrt:lcidtoname_downlevel.obj
 0002:000087e0       ??_C@_15FEDGKCDI@?$AAr?$AAu@ 1013f7e0     libucrt:lcidtoname_downlevel.obj
 0002:000087e8       ??_C@_15GLKMLLHM@?$AAh?$AAr@ 1013f7e8     libucrt:lcidtoname_downlevel.obj
 0002:000087f0       ??_C@_15CPKMFBDB@?$AAs?$AAk@ 1013f7f0     libucrt:lcidtoname_downlevel.obj
 0002:000087f8       ??_C@_15BAAIOGMK@?$AAs?$AAq@ 1013f7f8     libucrt:lcidtoname_downlevel.obj
 0002:00008800       ??_C@_15INNPNOHD@?$AAs?$AAv@ 1013f800     libucrt:lcidtoname_downlevel.obj
 0002:00008808       ??_C@_15CABMMOGH@?$AAt?$AAh@ 1013f808     libucrt:lcidtoname_downlevel.obj
 0002:00008810       ??_C@_15BPLIHJJM@?$AAt?$AAr@ 1013f810     libucrt:lcidtoname_downlevel.obj
 0002:00008818       ??_C@_15NEOEKKDJ@?$AAu?$AAr@ 1013f818     libucrt:lcidtoname_downlevel.obj
 0002:00008820       ??_C@_15NFICGAJK@?$AAi?$AAd@ 1013f820     libucrt:lcidtoname_downlevel.obj
 0002:00008828       ??_C@_15PJPFLCCM@?$AAu?$AAk@ 1013f828     libucrt:lcidtoname_downlevel.obj
 0002:00008830       ??_C@_15HPJPHDM@?$AAb?$AAe@ 1013f830     libucrt:lcidtoname_downlevel.obj
 0002:00008838       ??_C@_15LCHLGJII@?$AAs?$AAl@ 1013f838     libucrt:lcidtoname_downlevel.obj
 0002:00008840       ??_C@_15PCFJPHHO@?$AAe?$AAt@ 1013f840     libucrt:lcidtoname_downlevel.obj
 0002:00008848       ??_C@_15HPFPGODN@?$AAl?$AAv@ 1013f848     libucrt:lcidtoname_downlevel.obj
 0002:00008850       ??_C@_15NFFGKGLG@?$AAl?$AAt@ 1013f850     libucrt:lcidtoname_downlevel.obj
 0002:00008858       ??_C@_15BDAKCCHN@?$AAf?$AAa@ 1013f858     libucrt:lcidtoname_downlevel.obj
 0002:00008860       ??_C@_15NFGIAIAJ@?$AAv?$AAi@ 1013f860     libucrt:lcidtoname_downlevel.obj
 0002:00008868       ??_C@_15LMKNDMHN@?$AAh?$AAy@ 1013f868     libucrt:lcidtoname_downlevel.obj
 0002:00008870       ??_C@_15IJBHMCFL@?$AAa?$AAz@ 1013f870     libucrt:lcidtoname_downlevel.obj
 0002:00008878       ??_C@_15EKOFJABL@?$AAe?$AAu@ 1013f878     libucrt:lcidtoname_downlevel.obj
 0002:00008880       ??_C@_15BGHADCNK@?$AAm?$AAk@ 1013f880     libucrt:lcidtoname_downlevel.obj
 0002:00008888       ??_C@_15JDNICKHM@?$AAa?$AAf@ 1013f888     libucrt:lcidtoname_downlevel.obj
 0002:00008890       ??_C@_15KPJEDBKD@?$AAk?$AAa@ 1013f890     libucrt:lcidtoname_downlevel.obj
 0002:00008898       ??_C@_15PDNFFFEO@?$AAf?$AAo@ 1013f898     libucrt:lcidtoname_downlevel.obj
 0002:000088a0       ??_C@_15OMLEGLOC@?$AAh?$AAi@ 1013f8a0     libucrt:lcidtoname_downlevel.obj
 0002:000088a8       ??_C@_15IDNNENKK@?$AAm?$AAs@ 1013f8a8     libucrt:lcidtoname_downlevel.obj
 0002:000088b0       ??_C@_15MACJNBMH@?$AAk?$AAk@ 1013f8b0     libucrt:lcidtoname_downlevel.obj
 0002:000088b8       ??_C@_15DKDJEOND@?$AAk?$AAy@ 1013f8b8     libucrt:lcidtoname_downlevel.obj
 0002:000088c0       ??_C@_15DFGDLJBG@?$AAs?$AAw@ 1013f8c0     libucrt:lcidtoname_downlevel.obj
 0002:000088c8       ??_C@_15BBFAICNG@?$AAu?$AAz@ 1013f8c8     libucrt:lcidtoname_downlevel.obj
 0002:000088d0       ??_C@_15DKNDCGEA@?$AAt?$AAt@ 1013f8d0     libucrt:lcidtoname_downlevel.obj
 0002:000088d8       ??_C@_15MGIFMDPL@?$AAp?$AAa@ 1013f8d8     libucrt:lcidtoname_downlevel.obj
 0002:000088e0       ??_C@_15HCNDBBA@?$AAg?$AAu@ 1013f8e0     libucrt:lcidtoname_downlevel.obj
 0002:000088e8       ??_C@_15FNBEIBON@?$AAt?$AAa@ 1013f8e8     libucrt:lcidtoname_downlevel.obj
 0002:000088f0       ??_C@_15NCHGBGLK@?$AAt?$AAe@ 1013f8f0     libucrt:lcidtoname_downlevel.obj
 0002:000088f8       ??_C@_15PHPHCBPF@?$AAk?$AAn@ 1013f8f8     libucrt:lcidtoname_downlevel.obj
 0002:00008900       ??_C@_15DLGBCKMP@?$AAm?$AAr@ 1013f900     libucrt:lcidtoname_downlevel.obj
 0002:00008908       ??_C@_15EABBLBFF@?$AAs?$AAa@ 1013f908     libucrt:lcidtoname_downlevel.obj
 0002:00008910       ??_C@_15CBKOMCOI@?$AAm?$AAn@ 1013f910     libucrt:lcidtoname_downlevel.obj
 0002:00008918       ??_C@_15CKDMCJAF@?$AAg?$AAl@ 1013f918     libucrt:lcidtoname_downlevel.obj
 0002:00008920       ??_C@_17CNJFBPG@?$AAk?$AAo?$AAk@ 1013f920     libucrt:lcidtoname_downlevel.obj
 0002:00008928       ??_C@_17FFBJICPL@?$AAs?$AAy?$AAr@ 1013f928     libucrt:lcidtoname_downlevel.obj
 0002:00008930       ??_C@_17KPNDCPAF@?$AAd?$AAi?$AAv@ 1013f930     libucrt:lcidtoname_downlevel.obj
 0002:00008938       ??_C@_11LOCGONAA@@         1013f938     libucrt:lcidtoname_downlevel.obj
 0002:0000893c       ??_C@_1M@OKAHONE@?$AAa?$AAr?$AA?9?$AAS?$AAA@ 1013f93c     libucrt:lcidtoname_downlevel.obj
 0002:00008948       ??_C@_1M@FFFIGIGK@?$AAb?$AAg?$AA?9?$AAB?$AAG@ 1013f948     libucrt:lcidtoname_downlevel.obj
 0002:00008954       ??_C@_1M@BJNKEDC@?$AAc?$AAa?$AA?9?$AAE?$AAS@ 1013f954     libucrt:lcidtoname_downlevel.obj
 0002:00008960       ??_C@_1M@IJJHFJHA@?$AAc?$AAs?$AA?9?$AAC?$AAZ@ 1013f960     libucrt:lcidtoname_downlevel.obj
 0002:0000896c       ??_C@_1M@CLPEOBGI@?$AAd?$AAa?$AA?9?$AAD?$AAK@ 1013f96c     libucrt:lcidtoname_downlevel.obj
 0002:00008978       ??_C@_1M@MCMADGCB@?$AAd?$AAe?$AA?9?$AAD?$AAE@ 1013f978     libucrt:lcidtoname_downlevel.obj
 0002:00008984       ??_C@_1M@OOCKEMAM@?$AAe?$AAl?$AA?9?$AAG?$AAR@ 1013f984     libucrt:lcidtoname_downlevel.obj
 0002:00008990       ??_C@_1M@DDNJFGID@?$AAf?$AAi?$AA?9?$AAF?$AAI@ 1013f990     libucrt:lcidtoname_downlevel.obj
 0002:0000899c       ??_C@_1M@GLIPPMAC@?$AAf?$AAr?$AA?9?$AAF?$AAR@ 1013f99c     libucrt:lcidtoname_downlevel.obj
 0002:000089a8       ??_C@_1M@GFMCHPE@?$AAh?$AAe?$AA?9?$AAI?$AAL@ 1013f9a8     libucrt:lcidtoname_downlevel.obj
 0002:000089b4       ??_C@_1M@MHLPGNKM@?$AAh?$AAu?$AA?9?$AAH?$AAU@ 1013f9b4     libucrt:lcidtoname_downlevel.obj
 0002:000089c0       ??_C@_1M@LPDDNNPN@?$AAi?$AAs?$AA?9?$AAI?$AAS@ 1013f9c0     libucrt:lcidtoname_downlevel.obj
 0002:000089cc       ??_C@_1M@MADIPODN@?$AAi?$AAt?$AA?9?$AAI?$AAT@ 1013f9cc     libucrt:lcidtoname_downlevel.obj
 0002:000089d8       ??_C@_1M@IHBJJGG@?$AAn?$AAl?$AA?9?$AAN?$AAL@ 1013f9d8     libucrt:lcidtoname_downlevel.obj
 0002:000089e4       ??_C@_1M@EANAGDL@?$AAn?$AAb?$AA?9?$AAN?$AAO@ 1013f9e4     libucrt:lcidtoname_downlevel.obj
 0002:000089f0       ??_C@_1M@NEIEMEGP@?$AAp?$AAl?$AA?9?$AAP?$AAL@ 1013f9f0     libucrt:lcidtoname_downlevel.obj
 0002:000089fc       ??_C@_1M@BOCFIGEP@?$AAp?$AAt?$AA?9?$AAB?$AAR@ 1013f9fc     libucrt:lcidtoname_downlevel.obj
 0002:00008a08       ??_C@_1M@IMPFOPBG@?$AAr?$AAo?$AA?9?$AAR?$AAO@ 1013fa08     libucrt:lcidtoname_downlevel.obj
 0002:00008a14       ??_C@_1M@IDNNEJMM@?$AAr?$AAu?$AA?9?$AAR?$AAU@ 1013fa14     libucrt:lcidtoname_downlevel.obj
 0002:00008a20       ??_C@_1M@LILEEOGM@?$AAh?$AAr?$AA?9?$AAH?$AAR@ 1013fa20     libucrt:lcidtoname_downlevel.obj
 0002:00008a2c       ??_C@_1M@FKIFEHPB@?$AAs?$AAk?$AA?9?$AAS?$AAK@ 1013fa2c     libucrt:lcidtoname_downlevel.obj
 0002:00008a38       ??_C@_1M@LJMAMNPJ@?$AAs?$AAq?$AA?9?$AAA?$AAL@ 1013fa38     libucrt:lcidtoname_downlevel.obj
 0002:00008a44       ??_C@_1M@GIAKDKJK@?$AAs?$AAv?$AA?9?$AAS?$AAE@ 1013fa44     libucrt:lcidtoname_downlevel.obj
 0002:00008a50       ??_C@_1M@MKJKIKCL@?$AAt?$AAh?$AA?9?$AAT?$AAH@ 1013fa50     libucrt:lcidtoname_downlevel.obj
 0002:00008a5c       ??_C@_1M@MFLCCMPB@?$AAt?$AAr?$AA?9?$AAT?$AAR@ 1013fa5c     libucrt:lcidtoname_downlevel.obj
 0002:00008a68       ??_C@_1M@OIJHDKJN@?$AAu?$AAr?$AA?9?$AAP?$AAK@ 1013fa68     libucrt:lcidtoname_downlevel.obj
 0002:00008a74       ??_C@_1M@LHIPCIEK@?$AAi?$AAd?$AA?9?$AAI?$AAD@ 1013fa74     libucrt:lcidtoname_downlevel.obj
 0002:00008a80       ??_C@_1M@MFMOBGI@?$AAu?$AAk?$AA?9?$AAU?$AAA@ 1013fa80     libucrt:lcidtoname_downlevel.obj
 0002:00008a8c       ??_C@_1M@OBGLJIPL@?$AAb?$AAe?$AA?9?$AAB?$AAY@ 1013fa8c     libucrt:lcidtoname_downlevel.obj
 0002:00008a98       ??_C@_1M@BCFAJEAD@?$AAs?$AAl?$AA?9?$AAS?$AAI@ 1013fa98     libucrt:lcidtoname_downlevel.obj
 0002:00008aa4       ??_C@_1M@FKFFEDDN@?$AAe?$AAt?$AA?9?$AAE?$AAE@ 1013faa4     libucrt:lcidtoname_downlevel.obj
 0002:00008ab0       ??_C@_1M@KGKKAACI@?$AAl?$AAv?$AA?9?$AAL?$AAV@ 1013fab0     libucrt:lcidtoname_downlevel.obj
 0002:00008abc       ??_C@_1M@IFGBIJO@?$AAl?$AAt?$AA?9?$AAL?$AAT@ 1013fabc     libucrt:lcidtoname_downlevel.obj
 0002:00008ac8       ??_C@_1M@FGEAHEDM@?$AAf?$AAa?$AA?9?$AAI?$AAR@ 1013fac8     libucrt:lcidtoname_downlevel.obj
 0002:00008ad4       ??_C@_1M@KBMAIBFN@?$AAv?$AAi?$AA?9?$AAV?$AAN@ 1013fad4     libucrt:lcidtoname_downlevel.obj
 0002:00008ae0       ??_C@_1M@GPCBKDJK@?$AAh?$AAy?$AA?9?$AAA?$AAM@ 1013fae0     libucrt:lcidtoname_downlevel.obj
 0002:00008aec       ??_C@_1BG@BECMDDJB@?$AAa?$AAz?$AA?9?$AAA?$AAZ?$AA?9?$AAL?$AAa?$AAt?$AAn@ 1013faec     libucrt:lcidtoname_downlevel.obj
 0002:00008b04       ??_C@_1M@MAOFCAEA@?$AAe?$AAu?$AA?9?$AAE?$AAS@ 1013fb04     libucrt:lcidtoname_downlevel.obj
 0002:00008b10       ??_C@_1M@IGHABKPI@?$AAm?$AAk?$AA?9?$AAM?$AAK@ 1013fb10     libucrt:lcidtoname_downlevel.obj
 0002:00008b1c       ??_C@_1M@IAIGNEJG@?$AAt?$AAn?$AA?9?$AAZ?$AAA@ 1013fb1c     libucrt:lcidtoname_downlevel.obj
 0002:00008b28       ??_C@_1M@IIJCOJFA@?$AAx?$AAh?$AA?9?$AAZ?$AAA@ 1013fb28     libucrt:lcidtoname_downlevel.obj
 0002:00008b34       ??_C@_1M@LGPJHNJH@?$AAz?$AAu?$AA?9?$AAZ?$AAA@ 1013fb34     libucrt:lcidtoname_downlevel.obj
 0002:00008b40       ??_C@_1M@HOKAOIO@?$AAa?$AAf?$AA?9?$AAZ?$AAA@ 1013fb40     libucrt:lcidtoname_downlevel.obj
 0002:00008b4c       ??_C@_1M@DPCLHLIE@?$AAk?$AAa?$AA?9?$AAG?$AAE@ 1013fb4c     libucrt:lcidtoname_downlevel.obj
 0002:00008b58       ??_C@_1M@BLKMHJBI@?$AAf?$AAo?$AA?9?$AAF?$AAO@ 1013fb58     libucrt:lcidtoname_downlevel.obj
 0002:00008b64       ??_C@_1M@LGGJAPPB@?$AAh?$AAi?$AA?9?$AAI?$AAN@ 1013fb64     libucrt:lcidtoname_downlevel.obj
 0002:00008b70       ??_C@_1M@FIKPIHFE@?$AAm?$AAt?$AA?9?$AAM?$AAT@ 1013fb70     libucrt:lcidtoname_downlevel.obj
 0002:00008b7c       ??_C@_1M@HEGGPBFA@?$AAs?$AAe?$AA?9?$AAN?$AAO@ 1013fb7c     libucrt:lcidtoname_downlevel.obj
 0002:00008b88       ??_C@_1M@EIBJEEPA@?$AAm?$AAs?$AA?9?$AAM?$AAY@ 1013fb88     libucrt:lcidtoname_downlevel.obj
 0002:00008b94       ??_C@_1M@FHLBGMPP@?$AAk?$AAk?$AA?9?$AAK?$AAZ@ 1013fb94     libucrt:lcidtoname_downlevel.obj
 0002:00008ba0       ??_C@_1M@NGJJLCGI@?$AAk?$AAy?$AA?9?$AAK?$AAG@ 1013fba0     libucrt:lcidtoname_downlevel.obj
 0002:00008bac       ??_C@_1M@GIENNBFC@?$AAs?$AAw?$AA?9?$AAK?$AAE@ 1013fbac     libucrt:lcidtoname_downlevel.obj
 0002:00008bb8       ??_C@_1BG@NDGMJIMJ@?$AAu?$AAz?$AA?9?$AAU?$AAZ?$AA?9?$AAL?$AAa?$AAt?$AAn@ 1013fbb8     libucrt:lcidtoname_downlevel.obj
 0002:00008bd0       ??_C@_1M@IDCCIHBC@?$AAt?$AAt?$AA?9?$AAR?$AAU@ 1013fbd0     libucrt:lcidtoname_downlevel.obj
 0002:00008bdc       ??_C@_1M@LOICPMOJ@?$AAb?$AAn?$AA?9?$AAI?$AAN@ 1013fbdc     libucrt:lcidtoname_downlevel.obj
 0002:00008be8       ??_C@_1M@KPKKNEAH@?$AAp?$AAa?$AA?9?$AAI?$AAN@ 1013fbe8     libucrt:lcidtoname_downlevel.obj
 0002:00008bf4       ??_C@_1M@PJGPPBOG@?$AAg?$AAu?$AA?9?$AAI?$AAN@ 1013fbf4     libucrt:lcidtoname_downlevel.obj
 0002:00008c00       ??_C@_1M@KMKMOPHI@?$AAt?$AAa?$AA?9?$AAI?$AAN@ 1013fc00     libucrt:lcidtoname_downlevel.obj
 0002:00008c0c       ??_C@_1M@KFEHEPAC@?$AAt?$AAe?$AA?9?$AAI?$AAN@ 1013fc0c     libucrt:lcidtoname_downlevel.obj
 0002:00008c18       ??_C@_1M@CDCLMGHI@?$AAk?$AAn?$AA?9?$AAI?$AAN@ 1013fc18     libucrt:lcidtoname_downlevel.obj
 0002:00008c24       ??_C@_1M@MIODLDKF@?$AAm?$AAl?$AA?9?$AAI?$AAN@ 1013fc24     libucrt:lcidtoname_downlevel.obj
 0002:00008c30       ??_C@_1M@PBIEACPO@?$AAm?$AAr?$AA?9?$AAI?$AAN@ 1013fc30     libucrt:lcidtoname_downlevel.obj
 0002:00008c3c       ??_C@_1M@NIDEAGPH@?$AAs?$AAa?$AA?9?$AAI?$AAN@ 1013fc3c     libucrt:lcidtoname_downlevel.obj
 0002:00008c48       ??_C@_1M@FHIHCBIO@?$AAm?$AAn?$AA?9?$AAM?$AAN@ 1013fc48     libucrt:lcidtoname_downlevel.obj
 0002:00008c54       ??_C@_1M@JAIJPENP@?$AAc?$AAy?$AA?9?$AAG?$AAB@ 1013fc54     libucrt:lcidtoname_downlevel.obj
 0002:00008c60       ??_C@_1M@PHGFBEPN@?$AAg?$AAl?$AA?9?$AAE?$AAS@ 1013fc60     libucrt:lcidtoname_downlevel.obj
 0002:00008c6c       ??_C@_1O@KPIPDNCP@?$AAk?$AAo?$AAk?$AA?9?$AAI?$AAN@ 1013fc6c     libucrt:lcidtoname_downlevel.obj
 0002:00008c7c       ??_C@_1O@KNHJLDJA@?$AAs?$AAy?$AAr?$AA?9?$AAS?$AAY@ 1013fc7c     libucrt:lcidtoname_downlevel.obj
 0002:00008c8c       ??_C@_1O@MKEKBLAH@?$AAd?$AAi?$AAv?$AA?9?$AAM?$AAV@ 1013fc8c     libucrt:lcidtoname_downlevel.obj
 0002:00008c9c       ??_C@_1O@OHDCKDDF@?$AAq?$AAu?$AAz?$AA?9?$AAB?$AAO@ 1013fc9c     libucrt:lcidtoname_downlevel.obj
 0002:00008cac       ??_C@_1M@LEPJNLFD@?$AAn?$AAs?$AA?9?$AAZ?$AAA@ 1013fcac     libucrt:lcidtoname_downlevel.obj
 0002:00008cb8       ??_C@_1M@OMLEIIJB@?$AAm?$AAi?$AA?9?$AAN?$AAZ@ 1013fcb8     libucrt:lcidtoname_downlevel.obj
 0002:00008cc4       ??_C@_1M@PMPEAILG@?$AAa?$AAr?$AA?9?$AAI?$AAQ@ 1013fcc4     libucrt:lcidtoname_downlevel.obj
 0002:00008cd0       ??_C@_1M@CNKPNOEE@?$AAd?$AAe?$AA?9?$AAC?$AAH@ 1013fcd0     libucrt:lcidtoname_downlevel.obj
 0002:00008cdc       ??_C@_1M@LKMGMLKO@?$AAe?$AAn?$AA?9?$AAG?$AAB@ 1013fcdc     libucrt:lcidtoname_downlevel.obj
 0002:00008ce8       ??_C@_1M@PGKJFFGL@?$AAe?$AAs?$AA?9?$AAM?$AAX@ 1013fce8     libucrt:lcidtoname_downlevel.obj
 0002:00008cf4       ??_C@_1M@DNNANBDC@?$AAf?$AAr?$AA?9?$AAB?$AAE@ 1013fcf4     libucrt:lcidtoname_downlevel.obj
 0002:00008d00       ??_C@_1M@HLGMDFHM@?$AAi?$AAt?$AA?9?$AAC?$AAH@ 1013fd00     libucrt:lcidtoname_downlevel.obj
 0002:00008d0c       ??_C@_1M@CLLBGJH@?$AAn?$AAl?$AA?9?$AAB?$AAE@ 1013fd0c     libucrt:lcidtoname_downlevel.obj
 0002:00008d18       ??_C@_1M@BODBOGLF@?$AAn?$AAn?$AA?9?$AAN?$AAO@ 1013fd18     libucrt:lcidtoname_downlevel.obj
 0002:00008d24       ??_C@_1M@HFFAHKAD@?$AAp?$AAt?$AA?9?$AAP?$AAT@ 1013fd24     libucrt:lcidtoname_downlevel.obj
 0002:00008d30       ??_C@_1BG@LNOAKHIE@?$AAs?$AAr?$AA?9?$AAS?$AAP?$AA?9?$AAL?$AAa?$AAt?$AAn@ 1013fd30     libucrt:lcidtoname_downlevel.obj
 0002:00008d48       ??_C@_1M@HBMHBGAK@?$AAs?$AAv?$AA?9?$AAF?$AAI@ 1013fd48     libucrt:lcidtoname_downlevel.obj
 0002:00008d54       ??_C@_1BG@DGCJGJBE@?$AAa?$AAz?$AA?9?$AAA?$AAZ?$AA?9?$AAC?$AAy?$AAr?$AAl@ 1013fd54     libucrt:lcidtoname_downlevel.obj
 0002:00008d6c       ??_C@_1M@KEJDAAHB@?$AAs?$AAe?$AA?9?$AAS?$AAE@ 1013fd6c     libucrt:lcidtoname_downlevel.obj
 0002:00008d78       ??_C@_1M@HEIBJJAD@?$AAm?$AAs?$AA?9?$AAB?$AAN@ 1013fd78     libucrt:lcidtoname_downlevel.obj
 0002:00008d84       ??_C@_1BG@PBGJMCEM@?$AAu?$AAz?$AA?9?$AAU?$AAZ?$AA?9?$AAC?$AAy?$AAr?$AAl@ 1013fd84     libucrt:lcidtoname_downlevel.obj
 0002:00008d9c       ??_C@_1O@LAOBCMDF@?$AAq?$AAu?$AAz?$AA?9?$AAE?$AAC@ 1013fd9c     libucrt:lcidtoname_downlevel.obj
 0002:00008dac       ??_C@_1M@POEEMAIO@?$AAa?$AAr?$AA?9?$AAE?$AAG@ 1013fdac     libucrt:lcidtoname_downlevel.obj
 0002:00008db8       ??_C@_1M@EFAKDEDL@?$AAz?$AAh?$AA?9?$AAH?$AAK@ 1013fdb8     libucrt:lcidtoname_downlevel.obj
 0002:00008dc4       ??_C@_1M@HKKIJHGI@?$AAd?$AAe?$AA?9?$AAA?$AAT@ 1013fdc4     libucrt:lcidtoname_downlevel.obj
 0002:00008dd0       ??_C@_1M@KBFBEHJF@?$AAe?$AAn?$AA?9?$AAA?$AAU@ 1013fdd0     libucrt:lcidtoname_downlevel.obj
 0002:00008ddc       ??_C@_1M@MNPLFAAH@?$AAe?$AAs?$AA?9?$AAE?$AAS@ 1013fddc     libucrt:lcidtoname_downlevel.obj
 0002:00008de8       ??_C@_1M@HJOOJFMA@?$AAf?$AAr?$AA?9?$AAC?$AAA@ 1013fde8     libucrt:lcidtoname_downlevel.obj
 0002:00008df4       ??_C@_1BG@JPOFPNAB@?$AAs?$AAr?$AA?9?$AAS?$AAP?$AA?9?$AAC?$AAy?$AAr?$AAl@ 1013fdf4     libucrt:lcidtoname_downlevel.obj
 0002:00008e0c       ??_C@_1M@LNFOCMOB@?$AAs?$AAe?$AA?9?$AAF?$AAI@ 1013fe0c     libucrt:lcidtoname_downlevel.obj
 0002:00008e18       ??_C@_1O@MGJBOAMB@?$AAq?$AAu?$AAz?$AA?9?$AAP?$AAE@ 1013fe18     libucrt:lcidtoname_downlevel.obj
 0002:00008e28       ??_C@_1M@GJINLBOK@?$AAa?$AAr?$AA?9?$AAL?$AAY@ 1013fe28     libucrt:lcidtoname_downlevel.obj
 0002:00008e34       ??_C@_1M@GGMNHJNL@?$AAz?$AAh?$AA?9?$AAS?$AAG@ 1013fe34     libucrt:lcidtoname_downlevel.obj
 0002:00008e40       ??_C@_1M@HOIKODND@?$AAd?$AAe?$AA?9?$AAL?$AAU@ 1013fe40     libucrt:lcidtoname_downlevel.obj
 0002:00008e4c       ??_C@_1M@DDOCCGFG@?$AAe?$AAn?$AA?9?$AAC?$AAA@ 1013fe4c     libucrt:lcidtoname_downlevel.obj
 0002:00008e58       ??_C@_1M@BNOEMJLF@?$AAe?$AAs?$AA?9?$AAG?$AAT@ 1013fe58     libucrt:lcidtoname_downlevel.obj
 0002:00008e64       ??_C@_1M@EOGNKEK@?$AAf?$AAr?$AA?9?$AAC?$AAH@ 1013fe64     libucrt:lcidtoname_downlevel.obj
 0002:00008e70       ??_C@_1M@FLIDJFHL@?$AAh?$AAr?$AA?9?$AAB?$AAA@ 1013fe70     libucrt:lcidtoname_downlevel.obj
 0002:00008e7c       ??_C@_1O@FMCELNAJ@?$AAs?$AAm?$AAj?$AA?9?$AAN?$AAO@ 1013fe7c     libucrt:lcidtoname_downlevel.obj
 0002:00008e8c       ??_C@_1M@JHGLJMGJ@?$AAa?$AAr?$AA?9?$AAD?$AAZ@ 1013fe8c     libucrt:lcidtoname_downlevel.obj
 0002:00008e98       ??_C@_1M@JKKFDCNP@?$AAz?$AAh?$AA?9?$AAM?$AAO@ 1013fe98     libucrt:lcidtoname_downlevel.obj
 0002:00008ea4       ??_C@_1M@GEEFALPE@?$AAd?$AAe?$AA?9?$AAL?$AAI@ 1013fea4     libucrt:lcidtoname_downlevel.obj
 0002:00008eb0       ??_C@_1M@IGEOFBG@?$AAe?$AAn?$AA?9?$AAN?$AAZ@ 1013feb0     libucrt:lcidtoname_downlevel.obj
 0002:00008ebc       ??_C@_1M@KDBONEHP@?$AAe?$AAs?$AA?9?$AAC?$AAR@ 1013febc     libucrt:lcidtoname_downlevel.obj
 0002:00008ec8       ??_C@_1M@FHMDOHNN@?$AAf?$AAr?$AA?9?$AAL?$AAU@ 1013fec8     libucrt:lcidtoname_downlevel.obj
 0002:00008ed4       ??_C@_1BG@NFKKMAFG@?$AAb?$AAs?$AA?9?$AAB?$AAA?$AA?9?$AAL?$AAa?$AAt?$AAn@ 1013fed4     libucrt:lcidtoname_downlevel.obj
 0002:00008eec       ??_C@_1O@IMNBEMCI@?$AAs?$AAm?$AAj?$AA?9?$AAS?$AAE@ 1013feec     libucrt:lcidtoname_downlevel.obj
 0002:00008efc       ??_C@_1M@DHHMBNDP@?$AAa?$AAr?$AA?9?$AAM?$AAA@ 1013fefc     libucrt:lcidtoname_downlevel.obj
 0002:00008f08       ??_C@_1M@BNBLJCGH@?$AAe?$AAn?$AA?9?$AAI?$AAE@ 1013ff08     libucrt:lcidtoname_downlevel.obj
 0002:00008f14       ??_C@_1M@GEPAFMDL@?$AAe?$AAs?$AA?9?$AAP?$AAA@ 1013ff14     libucrt:lcidtoname_downlevel.obj
 0002:00008f20       ??_C@_1M@OJONDMDL@?$AAf?$AAr?$AA?9?$AAM?$AAC@ 1013ff20     libucrt:lcidtoname_downlevel.obj
 0002:00008f2c       ??_C@_1BG@OBCNFJB@?$AAs?$AAr?$AA?9?$AAB?$AAA?$AA?9?$AAL?$AAa?$AAt?$AAn@ 1013ff2c     libucrt:lcidtoname_downlevel.obj
 0002:00008f44       ??_C@_1O@KEMEEGPO@?$AAs?$AAm?$AAa?$AA?9?$AAN?$AAO@ 1013ff44     libucrt:lcidtoname_downlevel.obj
 0002:00008f54       ??_C@_1M@ELMGFODK@?$AAa?$AAr?$AA?9?$AAT?$AAN@ 1013ff54     libucrt:lcidtoname_downlevel.obj
 0002:00008f60       ??_C@_1M@BHDLHFAF@?$AAe?$AAn?$AA?9?$AAZ?$AAA@ 1013ff60     libucrt:lcidtoname_downlevel.obj
 0002:00008f6c       ??_C@_1M@BMGIGLIF@?$AAe?$AAs?$AA?9?$AAD?$AAO@ 1013ff6c     libucrt:lcidtoname_downlevel.obj
 0002:00008f78       ??_C@_1BG@CMBHIPBE@?$AAs?$AAr?$AA?9?$AAB?$AAA?$AA?9?$AAC?$AAy?$AAr?$AAl@ 1013ff78     libucrt:lcidtoname_downlevel.obj
 0002:00008f90       ??_C@_1O@HEDBLHNP@?$AAs?$AAm?$AAa?$AA?9?$AAS?$AAE@ 1013ff90     libucrt:lcidtoname_downlevel.obj
 0002:00008fa0       ??_C@_1M@DAGCADIM@?$AAa?$AAr?$AA?9?$AAO?$AAM@ 1013ffa0     libucrt:lcidtoname_downlevel.obj
 0002:00008fac       ??_C@_1M@FODLMICG@?$AAe?$AAn?$AA?9?$AAJ?$AAM@ 1013ffac     libucrt:lcidtoname_downlevel.obj
 0002:00008fb8       ??_C@_1M@DNMLCIHB@?$AAe?$AAs?$AA?9?$AAV?$AAE@ 1013ffb8     libucrt:lcidtoname_downlevel.obj
 0002:00008fc4       ??_C@_1O@EOKHMKJK@?$AAs?$AAm?$AAs?$AA?9?$AAF?$AAI@ 1013ffc4     libucrt:lcidtoname_downlevel.obj
 0002:00008fd4       ??_C@_1M@CAFJMKOF@?$AAa?$AAr?$AA?9?$AAY?$AAE@ 1013ffd4     libucrt:lcidtoname_downlevel.obj
 0002:00008fe0       ??_C@_1M@CBFHIJLI@?$AAe?$AAn?$AA?9?$AAC?$AAB@ 1013ffe0     libucrt:lcidtoname_downlevel.obj
 0002:00008fec       ??_C@_1M@BGNFLDN@?$AAe?$AAs?$AA?9?$AAC?$AAO@ 1013ffec     libucrt:lcidtoname_downlevel.obj
 0002:00008ff8       ??_C@_1O@JMPHMAMC@?$AAs?$AAm?$AAn?$AA?9?$AAF?$AAI@ 1013fff8     libucrt:lcidtoname_downlevel.obj
 0002:00009008       ??_C@_1M@JLANABKE@?$AAa?$AAr?$AA?9?$AAS?$AAY@ 10140008     libucrt:lcidtoname_downlevel.obj
 0002:00009014       ??_C@_1M@HPKGCFGN@?$AAe?$AAn?$AA?9?$AAB?$AAZ@ 10140014     libucrt:lcidtoname_downlevel.obj
 0002:00009020       ??_C@_1M@OLJCMLGM@?$AAe?$AAs?$AA?9?$AAP?$AAE@ 10140020     libucrt:lcidtoname_downlevel.obj
 0002:0000902c       ??_C@_1M@MKKGFKLE@?$AAa?$AAr?$AA?9?$AAJ?$AAO@ 1014002c     libucrt:lcidtoname_downlevel.obj
 0002:00009038       ??_C@_1M@EKPGLDNI@?$AAe?$AAn?$AA?9?$AAT?$AAT@ 10140038     libucrt:lcidtoname_downlevel.obj
 0002:00009044       ??_C@_1M@OONGHFHE@?$AAe?$AAs?$AA?9?$AAA?$AAR@ 10140044     libucrt:lcidtoname_downlevel.obj
 0002:00009050       ??_C@_1M@OOJFGBHE@?$AAa?$AAr?$AA?9?$AAL?$AAB@ 10140050     libucrt:lcidtoname_downlevel.obj
 0002:0000905c       ??_C@_1M@GCEJHNEG@?$AAe?$AAn?$AA?9?$AAZ?$AAW@ 1014005c     libucrt:lcidtoname_downlevel.obj
 0002:00009068       ??_C@_1M@JNOCAHJI@?$AAe?$AAs?$AA?9?$AAE?$AAC@ 10140068     libucrt:lcidtoname_downlevel.obj
 0002:00009074       ??_C@_1M@JEFHPGGB@?$AAa?$AAr?$AA?9?$AAK?$AAW@ 10140074     libucrt:lcidtoname_downlevel.obj
 0002:00009080       ??_C@_1M@MLKIBJOJ@?$AAe?$AAn?$AA?9?$AAP?$AAH@ 10140080     libucrt:lcidtoname_downlevel.obj
 0002:0000908c       ??_C@_1M@BDNIPEND@?$AAe?$AAs?$AA?9?$AAC?$AAL@ 1014008c     libucrt:lcidtoname_downlevel.obj
 0002:00009098       ??_C@_1M@MPNMEKBD@?$AAa?$AAr?$AA?9?$AAA?$AAE@ 10140098     libucrt:lcidtoname_downlevel.obj
 0002:000090a4       ??_C@_1M@KBJALCPI@?$AAe?$AAs?$AA?9?$AAU?$AAY@ 101400a4     libucrt:lcidtoname_downlevel.obj
 0002:000090b0       ??_C@_1M@LLCCOAGA@?$AAa?$AAr?$AA?9?$AAB?$AAH@ 101400b0     libucrt:lcidtoname_downlevel.obj
 0002:000090bc       ??_C@_1M@PBFNCDEL@?$AAe?$AAs?$AA?9?$AAP?$AAY@ 101400bc     libucrt:lcidtoname_downlevel.obj
 0002:000090c8       ??_C@_1M@EDGINPNP@?$AAa?$AAr?$AA?9?$AAQ?$AAA@ 101400c8     libucrt:lcidtoname_downlevel.obj
 0002:000090d4       ??_C@_1M@MKDBIIJI@?$AAe?$AAs?$AA?9?$AAB?$AAO@ 101400d4     libucrt:lcidtoname_downlevel.obj
 0002:000090e0       ??_C@_1M@CPKKEBLD@?$AAe?$AAs?$AA?9?$AAS?$AAV@ 101400e0     libucrt:lcidtoname_downlevel.obj
 0002:000090ec       ??_C@_1M@NDBGMMJL@?$AAe?$AAs?$AA?9?$AAH?$AAN@ 101400ec     libucrt:lcidtoname_downlevel.obj
 0002:000090f8       ??_C@_1M@JIJIBHDP@?$AAe?$AAs?$AA?9?$AAN?$AAI@ 101400f8     libucrt:lcidtoname_downlevel.obj
 0002:00009104       ??_C@_1M@CGFMKEEK@?$AAe?$AAs?$AA?9?$AAP?$AAR@ 10140104     libucrt:lcidtoname_downlevel.obj
 0002:00009110       ??_C@_1O@ICJHKIIK@?$AAz?$AAh?$AA?9?$AAC?$AAH?$AAT@ 10140110     libucrt:lcidtoname_downlevel.obj
 0002:00009120       ??_C@_15CLNEJCE@?$AAs?$AAr@ 10140120     libucrt:lcidtoname_downlevel.obj
 0002:00009848       ??_C@_1M@KAHEKEIG@?$AAa?$AAf?$AA?9?$AAz?$AAa@ 10140848     libucrt:lcidtoname_downlevel.obj
 0002:00009854       ??_C@_1M@GIECOABL@?$AAa?$AAr?$AA?9?$AAa?$AAe@ 10140854     libucrt:lcidtoname_downlevel.obj
 0002:00009860       ??_C@_1M@BMLMEKGI@?$AAa?$AAr?$AA?9?$AAb?$AAh@ 10140860     libucrt:lcidtoname_downlevel.obj
 0002:0000986c       ??_C@_1M@DAPFDGGB@?$AAa?$AAr?$AA?9?$AAd?$AAz@ 1014086c     libucrt:lcidtoname_downlevel.obj
 0002:00009878       ??_C@_1M@FJNKGKIG@?$AAa?$AAr?$AA?9?$AAe?$AAg@ 10140878     libucrt:lcidtoname_downlevel.obj
 0002:00009884       ??_C@_1M@FLGKKCLO@?$AAa?$AAr?$AA?9?$AAi?$AAq@ 10140884     libucrt:lcidtoname_downlevel.obj
 0002:00009890       ??_C@_1M@GNDIPALM@?$AAa?$AAr?$AA?9?$AAj?$AAo@ 10140890     libucrt:lcidtoname_downlevel.obj
 0002:0000989c       ??_C@_1M@DDMJFMGJ@?$AAa?$AAr?$AA?9?$AAk?$AAw@ 1014089c     libucrt:lcidtoname_downlevel.obj
 0002:000098a8       ??_C@_1M@EJALMLHM@?$AAa?$AAr?$AA?9?$AAl?$AAb@ 101408a8     libucrt:lcidtoname_downlevel.obj
 0002:000098b4       ??_C@_1M@MOBDBLOC@?$AAa?$AAr?$AA?9?$AAl?$AAy@ 101408b4     libucrt:lcidtoname_downlevel.obj
 0002:000098c0       ??_C@_1M@JAOCLHDH@?$AAa?$AAr?$AA?9?$AAm?$AAa@ 101408c0     libucrt:lcidtoname_downlevel.obj
 0002:000098cc       ??_C@_1M@JHPMKJIE@?$AAa?$AAr?$AA?9?$AAo?$AAm@ 101408cc     libucrt:lcidtoname_downlevel.obj
 0002:000098d8       ??_C@_1M@OEPGHFNH@?$AAa?$AAr?$AA?9?$AAq?$AAa@ 101408d8     libucrt:lcidtoname_downlevel.obj
 0002:000098e4       ??_C@_1M@KJDONENM@?$AAa?$AAr?$AA?9?$AAs?$AAa@ 101408e4     libucrt:lcidtoname_downlevel.obj
 0002:000098f0       ??_C@_1M@DMJDKLKM@?$AAa?$AAr?$AA?9?$AAs?$AAy@ 101408f0     libucrt:lcidtoname_downlevel.obj
 0002:000098fc       ??_C@_1M@OMFIPEDC@?$AAa?$AAr?$AA?9?$AAt?$AAn@ 101408fc     libucrt:lcidtoname_downlevel.obj
 0002:00009908       ??_C@_1M@IHMHGAON@?$AAa?$AAr?$AA?9?$AAy?$AAe@ 10140908     libucrt:lcidtoname_downlevel.obj
 0002:00009914       ??_C@_1BG@KDCPGJGB@?$AAa?$AAz?$AA?9?$AAa?$AAz?$AA?9?$AAc?$AAy?$AAr?$AAl@ 10140914     libucrt:lcidtoname_downlevel.obj
 0002:0000992c       ??_C@_1BG@IBCKDDOE@?$AAa?$AAz?$AA?9?$AAa?$AAz?$AA?9?$AAl?$AAa?$AAt?$AAn@ 1014092c     libucrt:lcidtoname_downlevel.obj
 0002:00009944       ??_C@_1M@EGPFDCPD@?$AAb?$AAe?$AA?9?$AAb?$AAy@ 10140944     libucrt:lcidtoname_downlevel.obj
 0002:00009950       ??_C@_1M@PCMGMCGC@?$AAb?$AAg?$AA?9?$AAb?$AAg@ 10140950     libucrt:lcidtoname_downlevel.obj
 0002:0000995c       ??_C@_1M@BJBMFGOB@?$AAb?$AAn?$AA?9?$AAi?$AAn@ 1014095c     libucrt:lcidtoname_downlevel.obj
 0002:00009968       ??_C@_1BG@EAKMMACD@?$AAb?$AAs?$AA?9?$AAb?$AAa?$AA?9?$AAl?$AAa?$AAt?$AAn@ 10140968     libucrt:lcidtoname_downlevel.obj
 0002:00009980       ??_C@_1M@KGADAODK@?$AAc?$AAa?$AA?9?$AAe?$AAs@ 10140980     libucrt:lcidtoname_downlevel.obj
 0002:0000998c       ??_C@_1M@COAJPDHI@?$AAc?$AAs?$AA?9?$AAc?$AAz@ 1014098c     libucrt:lcidtoname_downlevel.obj
 0002:00009998       ??_C@_1M@DHBHFONH@?$AAc?$AAy?$AA?9?$AAg?$AAb@ 10140998     libucrt:lcidtoname_downlevel.obj
 0002:000099a4       ??_C@_1M@IMGKELGA@?$AAd?$AAa?$AA?9?$AAd?$AAk@ 101409a4     libucrt:lcidtoname_downlevel.obj
 0002:000099b0       ??_C@_1M@NNDGDNGA@?$AAd?$AAe?$AA?9?$AAa?$AAt@ 101409b0     libucrt:lcidtoname_downlevel.obj
 0002:000099bc       ??_C@_1M@IKDBHEEM@?$AAd?$AAe?$AA?9?$AAc?$AAh@ 101409bc     libucrt:lcidtoname_downlevel.obj
 0002:000099c8       ??_C@_1M@GFFOJMCJ@?$AAd?$AAe?$AA?9?$AAd?$AAe@ 101409c8     libucrt:lcidtoname_downlevel.obj
 0002:000099d4       ??_C@_1M@MDNLKBPM@?$AAd?$AAe?$AA?9?$AAl?$AAi@ 101409d4     libucrt:lcidtoname_downlevel.obj
 0002:000099e0       ??_C@_1M@NJBEEJNL@?$AAd?$AAe?$AA?9?$AAl?$AAu@ 101409e0     libucrt:lcidtoname_downlevel.obj
 0002:000099ec       ??_C@_1O@GNNELBAP@?$AAd?$AAi?$AAv?$AA?9?$AAm?$AAv@ 101409ec     libucrt:lcidtoname_downlevel.obj
 0002:000099fc       ??_C@_1M@EJLEOGAE@?$AAe?$AAl?$AA?9?$AAg?$AAr@ 101409fc     libucrt:lcidtoname_downlevel.obj
 0002:00009a08       ??_C@_1M@GMPONJN@?$AAe?$AAn?$AA?9?$AAa?$AAu@ 10140a08     libucrt:lcidtoname_downlevel.obj
 0002:00009a14       ??_C@_1M@NIDIIPGF@?$AAe?$AAn?$AA?9?$AAb?$AAz@ 10140a14     libucrt:lcidtoname_downlevel.obj
 0002:00009a20       ??_C@_1M@JEHMIMFO@?$AAe?$AAn?$AA?9?$AAc?$AAa@ 10140a20     libucrt:lcidtoname_downlevel.obj
 0002:00009a2c       ??_C@_1M@IGMJCDLA@?$AAe?$AAn?$AA?9?$AAc?$AAb@ 10140a2c     libucrt:lcidtoname_downlevel.obj
 0002:00009a38       ??_C@_1M@BNFIGBKG@?$AAe?$AAn?$AA?9?$AAg?$AAb@ 10140a38     libucrt:lcidtoname_downlevel.obj
 0002:00009a44       ??_C@_1M@LKIFDIGP@?$AAe?$AAn?$AA?9?$AAi?$AAe@ 10140a44     libucrt:lcidtoname_downlevel.obj
 0002:00009a50       ??_C@_1M@PJKFGCCO@?$AAe?$AAn?$AA?9?$AAj?$AAm@ 10140a50     libucrt:lcidtoname_downlevel.obj
 0002:00009a5c       ??_C@_1M@KPPKEPBO@?$AAe?$AAn?$AA?9?$AAn?$AAz@ 10140a5c     libucrt:lcidtoname_downlevel.obj
 0002:00009a68       ??_C@_1M@GMDGLDOB@?$AAe?$AAn?$AA?9?$AAp?$AAh@ 10140a68     libucrt:lcidtoname_downlevel.obj
 0002:00009a74       ??_C@_1M@ONGIBJNA@?$AAe?$AAn?$AA?9?$AAt?$AAt@ 10140a74     libucrt:lcidtoname_downlevel.obj
 0002:00009a80       ??_C@_1M@LLODPCMM@?$AAe?$AAn?$AA?9?$AAu?$AAs@ 10140a80     libucrt:lcidtoname_downlevel.obj
 0002:00009a8c       ??_C@_1M@LAKFNPAN@?$AAe?$AAn?$AA?9?$AAz?$AAa@ 10140a8c     libucrt:lcidtoname_downlevel.obj
 0002:00009a98       ??_C@_1M@MFNHNHEO@?$AAe?$AAn?$AA?9?$AAz?$AAw@ 10140a98     libucrt:lcidtoname_downlevel.obj
 0002:00009aa4       ??_C@_1M@EJEINPHM@?$AAe?$AAs?$AA?9?$AAa?$AAr@ 10140aa4     libucrt:lcidtoname_downlevel.obj
 0002:00009ab0       ??_C@_1M@GNKPCCJA@?$AAe?$AAs?$AA?9?$AAb?$AAo@ 10140ab0     libucrt:lcidtoname_downlevel.obj
 0002:00009abc       ??_C@_1M@LEEGFONL@?$AAe?$AAs?$AA?9?$AAc?$AAl@ 10140abc     libucrt:lcidtoname_downlevel.obj
 0002:00009ac8       ??_C@_1M@KGPDPBDF@?$AAe?$AAs?$AA?9?$AAc?$AAo@ 10140ac8     libucrt:lcidtoname_downlevel.obj
 0002:00009ad4       ??_C@_1M@EIAHOHH@?$AAe?$AAs?$AA?9?$AAc?$AAr@ 10140ad4     libucrt:lcidtoname_downlevel.obj
 0002:00009ae0       ??_C@_1M@LLPGMBIN@?$AAe?$AAs?$AA?9?$AAd?$AAo@ 10140ae0     libucrt:lcidtoname_downlevel.obj
 0002:00009aec       ??_C@_1M@DKHMKNJA@?$AAe?$AAs?$AA?9?$AAe?$AAc@ 10140aec     libucrt:lcidtoname_downlevel.obj
 0002:00009af8       ??_C@_1M@GKGFPKAP@?$AAe?$AAs?$AA?9?$AAe?$AAs@ 10140af8     libucrt:lcidtoname_downlevel.obj
 0002:00009b04       ??_C@_1M@LKHKGDLN@?$AAe?$AAs?$AA?9?$AAg?$AAt@ 10140b04     libucrt:lcidtoname_downlevel.obj
 0002:00009b10       ??_C@_1M@HEIIGGJD@?$AAe?$AAs?$AA?9?$AAh?$AAn@ 10140b10     libucrt:lcidtoname_downlevel.obj
 0002:00009b1c       ??_C@_1M@FBDHPPGD@?$AAe?$AAs?$AA?9?$AAm?$AAx@ 10140b1c     libucrt:lcidtoname_downlevel.obj
 0002:00009b28       ??_C@_1M@DPAGLNDH@?$AAe?$AAs?$AA?9?$AAn?$AAi@ 10140b28     libucrt:lcidtoname_downlevel.obj
 0002:00009b34       ??_C@_1M@MDGOPGDD@?$AAe?$AAs?$AA?9?$AAp?$AAa@ 10140b34     libucrt:lcidtoname_downlevel.obj
 0002:00009b40       ??_C@_1M@EMAMGBGE@?$AAe?$AAs?$AA?9?$AAp?$AAe@ 10140b40     libucrt:lcidtoname_downlevel.obj
 0002:00009b4c       ??_C@_1M@IBMCAOEC@?$AAe?$AAs?$AA?9?$AAp?$AAr@ 10140b4c     libucrt:lcidtoname_downlevel.obj
 0002:00009b58       ??_C@_1M@FGMDIJED@?$AAe?$AAs?$AA?9?$AAp?$AAy@ 10140b58     libucrt:lcidtoname_downlevel.obj
 0002:00009b64       ??_C@_1M@IIDEOLLL@?$AAe?$AAs?$AA?9?$AAs?$AAv@ 10140b64     libucrt:lcidtoname_downlevel.obj
 0002:00009b70       ??_C@_1M@GAOBIPA@?$AAe?$AAs?$AA?9?$AAu?$AAy@ 10140b70     libucrt:lcidtoname_downlevel.obj
 0002:00009b7c       ??_C@_1M@JKFFICHJ@?$AAe?$AAs?$AA?9?$AAv?$AAe@ 10140b7c     libucrt:lcidtoname_downlevel.obj
 0002:00009b88       ??_C@_1M@PNMLOJDF@?$AAe?$AAt?$AA?9?$AAe?$AAe@ 10140b88     libucrt:lcidtoname_downlevel.obj
 0002:00009b94       ??_C@_1M@GHHLIKEI@?$AAe?$AAu?$AA?9?$AAe?$AAs@ 10140b94     libucrt:lcidtoname_downlevel.obj
 0002:00009ba0       ??_C@_1M@PBNONODE@?$AAf?$AAa?$AA?9?$AAi?$AAr@ 10140ba0     libucrt:lcidtoname_downlevel.obj
 0002:00009bac       ??_C@_1M@JEEHPMIL@?$AAf?$AAi?$AA?9?$AAf?$AAi@ 10140bac     libucrt:lcidtoname_downlevel.obj
 0002:00009bb8       ??_C@_1M@LMDCNDBA@?$AAf?$AAo?$AA?9?$AAf?$AAo@ 10140bb8     libucrt:lcidtoname_downlevel.obj
 0002:00009bc4       ??_C@_1M@JKEOHLDK@?$AAf?$AAr?$AA?9?$AAb?$AAe@ 10140bc4     libucrt:lcidtoname_downlevel.obj
 0002:00009bd0       ??_C@_1M@NOHADPMI@?$AAf?$AAr?$AA?9?$AAc?$AAa@ 10140bd0     libucrt:lcidtoname_downlevel.obj
 0002:00009bdc       ??_C@_1M@KDHIHAEC@?$AAf?$AAr?$AA?9?$AAc?$AAh@ 10140bdc     libucrt:lcidtoname_downlevel.obj
 0002:00009be8       ??_C@_1M@MMBBFGAK@?$AAf?$AAr?$AA?9?$AAf?$AAr@ 10140be8     libucrt:lcidtoname_downlevel.obj
 0002:00009bf4       ??_C@_1M@PAFNENNF@?$AAf?$AAr?$AA?9?$AAl?$AAu@ 10140bf4     libucrt:lcidtoname_downlevel.obj
 0002:00009c00       ??_C@_1M@EOHDJGDD@?$AAf?$AAr?$AA?9?$AAm?$AAc@ 10140c00     libucrt:lcidtoname_downlevel.obj
 0002:00009c0c       ??_C@_1M@FAPLLOPF@?$AAg?$AAl?$AA?9?$AAe?$AAs@ 10140c0c     libucrt:lcidtoname_downlevel.obj
 0002:00009c18       ??_C@_1M@FOPBFLOO@?$AAg?$AAu?$AA?9?$AAi?$AAn@ 10140c18     libucrt:lcidtoname_downlevel.obj
 0002:00009c24       ??_C@_1M@KBMCINPM@?$AAh?$AAe?$AA?9?$AAi?$AAl@ 10140c24     libucrt:lcidtoname_downlevel.obj
 0002:00009c30       ??_C@_1M@BBPHKFPJ@?$AAh?$AAi?$AA?9?$AAi?$AAn@ 10140c30     libucrt:lcidtoname_downlevel.obj
 0002:00009c3c       ??_C@_1M@PMBNDPHD@?$AAh?$AAr?$AA?9?$AAb?$AAa@ 10140c3c     libucrt:lcidtoname_downlevel.obj
 0002:00009c48       ??_C@_1M@BPCKOEGE@?$AAh?$AAr?$AA?9?$AAh?$AAr@ 10140c48     libucrt:lcidtoname_downlevel.obj
 0002:00009c54       ??_C@_1M@GACBMHKE@?$AAh?$AAu?$AA?9?$AAh?$AAu@ 10140c54     libucrt:lcidtoname_downlevel.obj
 0002:00009c60       ??_C@_1M@MILPAJJC@?$AAh?$AAy?$AA?9?$AAa?$AAm@ 10140c60     libucrt:lcidtoname_downlevel.obj
 0002:00009c6c       ??_C@_1M@BABBICEC@?$AAi?$AAd?$AA?9?$AAi?$AAd@ 10140c6c     libucrt:lcidtoname_downlevel.obj
 0002:00009c78       ??_C@_1M@BIKNHHPF@?$AAi?$AAs?$AA?9?$AAi?$AAs@ 10140c78     libucrt:lcidtoname_downlevel.obj
 0002:00009c84       ??_C@_1M@NMPCJPHE@?$AAi?$AAt?$AA?9?$AAc?$AAh@ 10140c84     libucrt:lcidtoname_downlevel.obj
 0002:00009c90       ??_C@_1M@GHKGFEDF@?$AAi?$AAt?$AA?9?$AAi?$AAt@ 10140c90     libucrt:lcidtoname_downlevel.obj
 0002:00009c9c       ??_C@_1M@NIEJCJJA@?$AAj?$AAa?$AA?9?$AAj?$AAp@ 10140c9c     libucrt:lcidtoname_downlevel.obj
 0002:00009ca8       ??_C@_1M@JILFNBIM@?$AAk?$AAa?$AA?9?$AAg?$AAe@ 10140ca8     libucrt:lcidtoname_downlevel.obj
 0002:00009cb4       ??_C@_1M@PACPMGPH@?$AAk?$AAk?$AA?9?$AAk?$AAz@ 10140cb4     libucrt:lcidtoname_downlevel.obj
 0002:00009cc0       ??_C@_1M@IELFGMHA@?$AAk?$AAn?$AA?9?$AAi?$AAn@ 10140cc0     libucrt:lcidtoname_downlevel.obj
 0002:00009ccc       ??_C@_1O@IBBJHCH@?$AAk?$AAo?$AAk?$AA?9?$AAi?$AAn@ 10140ccc     libucrt:lcidtoname_downlevel.obj
 0002:00009cdc       ??_C@_1M@DMHAEOGC@?$AAk?$AAo?$AA?9?$AAk?$AAr@ 10140cdc     libucrt:lcidtoname_downlevel.obj
 0002:00009ce8       ??_C@_1M@HBAHBIGA@?$AAk?$AAy?$AA?9?$AAk?$AAg@ 10140ce8     libucrt:lcidtoname_downlevel.obj
 0002:00009cf4       ??_C@_1M@KPMILCJG@?$AAl?$AAt?$AA?9?$AAl?$AAt@ 10140cf4     libucrt:lcidtoname_downlevel.obj
 0002:00009d00       ??_C@_1M@BDEKKCA@?$AAl?$AAv?$AA?9?$AAl?$AAv@ 10140d00     libucrt:lcidtoname_downlevel.obj
 0002:00009d0c       ??_C@_1M@ELCKCCJJ@?$AAm?$AAi?$AA?9?$AAn?$AAz@ 10140d0c     libucrt:lcidtoname_downlevel.obj
 0002:00009d18       ??_C@_1M@CBOOLAPA@?$AAm?$AAk?$AA?9?$AAm?$AAk@ 10140d18     libucrt:lcidtoname_downlevel.obj
 0002:00009d24       ??_C@_1M@GPHNBJKN@?$AAm?$AAl?$AA?9?$AAi?$AAn@ 10140d24     libucrt:lcidtoname_downlevel.obj
 0002:00009d30       ??_C@_1M@PABJILIG@?$AAm?$AAn?$AA?9?$AAm?$AAn@ 10140d30     libucrt:lcidtoname_downlevel.obj
 0002:00009d3c       ??_C@_1M@FGBKKIPG@?$AAm?$AAr?$AA?9?$AAi?$AAn@ 10140d3c     libucrt:lcidtoname_downlevel.obj
 0002:00009d48       ??_C@_1M@NDBPDDAL@?$AAm?$AAs?$AA?9?$AAb?$AAn@ 10140d48     libucrt:lcidtoname_downlevel.obj
 0002:00009d54       ??_C@_1M@OPIHOOPI@?$AAm?$AAs?$AA?9?$AAm?$AAy@ 10140d54     libucrt:lcidtoname_downlevel.obj
 0002:00009d60       ??_C@_1M@PPDBCNFM@?$AAm?$AAt?$AA?9?$AAm?$AAt@ 10140d60     libucrt:lcidtoname_downlevel.obj
 0002:00009d6c       ??_C@_1M@KDJDKMDD@?$AAn?$AAb?$AA?9?$AAn?$AAo@ 10140d6c     libucrt:lcidtoname_downlevel.obj
 0002:00009d78       ??_C@_1M@KFCFLMJP@?$AAn?$AAl?$AA?9?$AAb?$AAe@ 10140d78     libucrt:lcidtoname_downlevel.obj
 0002:00009d84       ??_C@_1M@KPOPDDGO@?$AAn?$AAl?$AA?9?$AAn?$AAl@ 10140d84     libucrt:lcidtoname_downlevel.obj
 0002:00009d90       ??_C@_1M@LJKPEMLN@?$AAn?$AAn?$AA?9?$AAn?$AAo@ 10140d90     libucrt:lcidtoname_downlevel.obj
 0002:00009d9c       ??_C@_1M@BDGHHBFL@?$AAn?$AAs?$AA?9?$AAz?$AAa@ 10140d9c     libucrt:lcidtoname_downlevel.obj
 0002:00009da8       ??_C@_1M@IDEHOAP@?$AAp?$AAa?$AA?9?$AAi?$AAn@ 10140da8     libucrt:lcidtoname_downlevel.obj
 0002:00009db4       ??_C@_1M@HDBKGOGH@?$AAp?$AAl?$AA?9?$AAp?$AAl@ 10140db4     libucrt:lcidtoname_downlevel.obj
 0002:00009dc0       ??_C@_1M@LJLLCMEH@?$AAp?$AAt?$AA?9?$AAb?$AAr@ 10140dc0     libucrt:lcidtoname_downlevel.obj
 0002:00009dcc       ??_C@_1M@NCMONAAL@?$AAp?$AAt?$AA?9?$AAp?$AAt@ 10140dcc     libucrt:lcidtoname_downlevel.obj
 0002:00009dd8       ??_C@_1O@EAKMAJDN@?$AAq?$AAu?$AAz?$AA?9?$AAb?$AAo@ 10140dd8     libucrt:lcidtoname_downlevel.obj
 0002:00009de8       ??_C@_1O@BHHPIGDN@?$AAq?$AAu?$AAz?$AA?9?$AAe?$AAc@ 10140de8     libucrt:lcidtoname_downlevel.obj
 0002:00009df8       ??_C@_1O@GBAPEKMJ@?$AAq?$AAu?$AAz?$AA?9?$AAp?$AAe@ 10140df8     libucrt:lcidtoname_downlevel.obj
 0002:00009e08       ??_C@_1M@CLGLEFBO@?$AAr?$AAo?$AA?9?$AAr?$AAo@ 10140e08     libucrt:lcidtoname_downlevel.obj
 0002:00009e14       ??_C@_1M@CEEDODME@?$AAr?$AAu?$AA?9?$AAr?$AAu@ 10140e14     libucrt:lcidtoname_downlevel.obj
 0002:00009e20       ??_C@_1M@HPKKKMPP@?$AAs?$AAa?$AA?9?$AAi?$AAn@ 10140e20     libucrt:lcidtoname_downlevel.obj
 0002:00009e2c       ??_C@_1M@BKMAIGOJ@?$AAs?$AAe?$AA?9?$AAf?$AAi@ 10140e2c     libucrt:lcidtoname_downlevel.obj
 0002:00009e38       ??_C@_1M@NDPIFLFI@?$AAs?$AAe?$AA?9?$AAn?$AAo@ 10140e38     libucrt:lcidtoname_downlevel.obj
 0002:00009e44       ??_C@_1M@DANKKHJ@?$AAs?$AAe?$AA?9?$AAs?$AAe@ 10140e44     libucrt:lcidtoname_downlevel.obj
 0002:00009e50       ??_C@_1M@PNBLONPJ@?$AAs?$AAk?$AA?9?$AAs?$AAk@ 10140e50     libucrt:lcidtoname_downlevel.obj
 0002:00009e5c       ??_C@_1M@LFMODOAL@?$AAs?$AAl?$AA?9?$AAs?$AAi@ 10140e5c     libucrt:lcidtoname_downlevel.obj
 0002:00009e68       ??_C@_1O@DFKOMPG@?$AAs?$AAm?$AAa?$AA?9?$AAn?$AAo@ 10140e68     libucrt:lcidtoname_downlevel.obj
 0002:00009e78       ??_C@_1O@NDKPBNNH@?$AAs?$AAm?$AAa?$AA?9?$AAs?$AAe@ 10140e78     libucrt:lcidtoname_downlevel.obj
 0002:00009e88       ??_C@_1O@PLLKBHAB@?$AAs?$AAm?$AAj?$AA?9?$AAn?$AAo@ 10140e88     libucrt:lcidtoname_downlevel.obj
 0002:00009e98       ??_C@_1O@CLEPOGCA@?$AAs?$AAm?$AAj?$AA?9?$AAs?$AAe@ 10140e98     libucrt:lcidtoname_downlevel.obj
 0002:00009ea8       ??_C@_1O@DLGJGKMK@?$AAs?$AAm?$AAn?$AA?9?$AAf?$AAi@ 10140ea8     libucrt:lcidtoname_downlevel.obj
 0002:00009eb8       ??_C@_1O@OJDJGAJC@?$AAs?$AAm?$AAs?$AA?9?$AAf?$AAi@ 10140eb8     libucrt:lcidtoname_downlevel.obj
 0002:00009ec8       ??_C@_1M@BOFOGHPB@?$AAs?$AAq?$AA?9?$AAa?$AAl@ 10140ec8     libucrt:lcidtoname_downlevel.obj
 0002:00009ed4       ??_C@_1BG@LJBBIPGB@?$AAs?$AAr?$AA?9?$AAb?$AAa?$AA?9?$AAc?$AAy?$AAr?$AAl@ 10140ed4     libucrt:lcidtoname_downlevel.obj
 0002:00009eec       ??_C@_1BG@JLBENFOE@?$AAs?$AAr?$AA?9?$AAb?$AAa?$AA?9?$AAl?$AAa?$AAt?$AAn@ 10140eec     libucrt:lcidtoname_downlevel.obj
 0002:00009f04       ??_C@_1BG@KODPNHE@?$AAs?$AAr?$AA?9?$AAs?$AAp?$AA?9?$AAc?$AAy?$AAr?$AAl@ 10140f04     libucrt:lcidtoname_downlevel.obj
 0002:00009f1c       ??_C@_1BG@CIOGKHPB@?$AAs?$AAr?$AA?9?$AAs?$AAp?$AA?9?$AAl?$AAa?$AAt?$AAn@ 10140f1c     libucrt:lcidtoname_downlevel.obj
 0002:00009f34       ??_C@_1M@NGFJLMAC@?$AAs?$AAv?$AA?9?$AAf?$AAi@ 10140f34     libucrt:lcidtoname_downlevel.obj
 0002:00009f40       ??_C@_1M@MPJEJAJC@?$AAs?$AAv?$AA?9?$AAs?$AAe@ 10140f40     libucrt:lcidtoname_downlevel.obj
 0002:00009f4c       ??_C@_1M@MPNDHLFK@?$AAs?$AAw?$AA?9?$AAk?$AAe@ 10140f4c     libucrt:lcidtoname_downlevel.obj
 0002:00009f58       ??_C@_1O@KOHBJJI@?$AAs?$AAy?$AAr?$AA?9?$AAs?$AAy@ 10140f58     libucrt:lcidtoname_downlevel.obj
 0002:00009f68       ??_C@_1M@LDCEFHA@?$AAt?$AAa?$AA?9?$AAi?$AAn@ 10140f68     libucrt:lcidtoname_downlevel.obj
 0002:00009f74       ??_C@_1M@CNJOFAK@?$AAt?$AAe?$AA?9?$AAi?$AAn@ 10140f74     libucrt:lcidtoname_downlevel.obj
 0002:00009f80       ??_C@_1M@GNAECACD@?$AAt?$AAh?$AA?9?$AAt?$AAh@ 10140f80     libucrt:lcidtoname_downlevel.obj
 0002:00009f8c       ??_C@_1M@CHBIHOJO@?$AAt?$AAn?$AA?9?$AAz?$AAa@ 10140f8c     libucrt:lcidtoname_downlevel.obj
 0002:00009f98       ??_C@_1M@GCCMIGPJ@?$AAt?$AAr?$AA?9?$AAt?$AAr@ 10140f98     libucrt:lcidtoname_downlevel.obj
 0002:00009fa4       ??_C@_1M@CELMCNBK@?$AAt?$AAt?$AA?9?$AAr?$AAu@ 10140fa4     libucrt:lcidtoname_downlevel.obj
 0002:00009fb0       ??_C@_1M@KLMCELGA@?$AAu?$AAk?$AA?9?$AAu?$AAa@ 10140fb0     libucrt:lcidtoname_downlevel.obj
 0002:00009fbc       ??_C@_1M@EPAJJAJF@?$AAu?$AAr?$AA?9?$AAp?$AAk@ 10140fbc     libucrt:lcidtoname_downlevel.obj
 0002:00009fc8       ??_C@_1BG@GEGPMCDJ@?$AAu?$AAz?$AA?9?$AAu?$AAz?$AA?9?$AAc?$AAy?$AAr?$AAl@ 10140fc8     libucrt:lcidtoname_downlevel.obj
 0002:00009fe0       ??_C@_1BG@EGGKJILM@?$AAu?$AAz?$AA?9?$AAu?$AAz?$AA?9?$AAl?$AAa?$AAt?$AAn@ 10140fe0     libucrt:lcidtoname_downlevel.obj
 0002:00009ff8       ??_C@_1M@GFOCLFF@?$AAv?$AAi?$AA?9?$AAv?$AAn@ 10140ff8     libucrt:lcidtoname_downlevel.obj
 0002:0000a004       ??_C@_1M@CPAMEDFI@?$AAx?$AAh?$AA?9?$AAz?$AAa@ 10141004     libucrt:lcidtoname_downlevel.obj
 0002:0000a010       ??_C@_1O@EBKIFIGN@?$AAz?$AAh?$AA?9?$AAc?$AAh?$AAs@ 10141010     libucrt:lcidtoname_downlevel.obj
 0002:0000a020       ??_C@_1O@NMHPGANE@?$AAz?$AAh?$AA?9?$AAc?$AAh?$AAt@ 10141020     libucrt:lcidtoname_downlevel.obj
 0002:0000a030       ??_C@_1M@LPINJOMC@?$AAz?$AAh?$AA?9?$AAc?$AAn@ 10141030     libucrt:lcidtoname_downlevel.obj
 0002:0000a03c       ??_C@_1M@OCJEJODD@?$AAz?$AAh?$AA?9?$AAh?$AAk@ 1014103c     libucrt:lcidtoname_downlevel.obj
 0002:0000a048       ??_C@_1M@DNDLJINH@?$AAz?$AAh?$AA?9?$AAm?$AAo@ 10141048     libucrt:lcidtoname_downlevel.obj
 0002:0000a054       ??_C@_1M@MBFDNDND@?$AAz?$AAh?$AA?9?$AAs?$AAg@ 10141054     libucrt:lcidtoname_downlevel.obj
 0002:0000a060       ??_C@_1M@IMEPLEPE@?$AAz?$AAh?$AA?9?$AAt?$AAw@ 10141060     libucrt:lcidtoname_downlevel.obj
 0002:0000a06c       ??_C@_1M@BBGHNHJP@?$AAz?$AAu?$AA?9?$AAz?$AAa@ 1014106c     libucrt:lcidtoname_downlevel.obj
 0002:0000a078       ?large_power_data@?1??multiply_by_power_of_ten@__crt_strtox@@YA_NAAUbig_integer@2@I@Z@4QBIB 10141078     libucrt:cfout.obj
 0002:0000a980       ?large_power_indices@?1??multiply_by_power_of_ten@__crt_strtox@@YA_NAAUbig_integer@2@I@Z@4QBUunpack_index@?1??12@YA_N0I@Z@B 10141980     libucrt:cfout.obj
 0002:0000aa18       ?small_powers_of_ten@?1??multiply_by_power_of_ten@__crt_strtox@@YA_NAAUbig_integer@2@I@Z@4QBIB 10141a18     libucrt:cfout.obj
 0002:0000aa3c       ??_C@_01GBGANLPD@0@        10141a3c     libucrt:cfout.obj
 0002:0000aa40       ??_C@_05DNEBIAHO@1?$CDINF@ 10141a40     libucrt:cfout.obj
 0002:0000aa48       ??_C@_06IMKFLFPG@1?$CDQNAN@ 10141a48     libucrt:cfout.obj
 0002:0000aa50       ??_C@_06PGGFOGJG@1?$CDSNAN@ 10141a50     libucrt:cfout.obj
 0002:0000aa58       ??_C@_05PHHOCPM@1?$CDIND@  10141a58     libucrt:cfout.obj
 0002:0000aa60       __indefinite               10141a60     libucrt:87disp.obj
 0002:0000aa6a       __piby2                    10141a6a     libucrt:87disp.obj
 0002:0000aa74       __piby4                    10141a74     libucrt:87disp.obj
 0002:0000aaa8       __DEFAULT_CW_in_mem        10141aa8     libucrt:common.obj
 0002:0000aaaa       __pi_by_2_to_61            10141aaa     libucrt:common.obj
 0002:0000aaf0       ___acrt_cos_sin_ctable     10141af0     libucrt:cos_sin_ctable.obj
 0002:0000b2f0       ___acrt_tan_ctable         101422f0     libucrt:tan_tables.obj
 0002:0000c8f8       ??_C@_1BA@BALFACEM@?$AAC?$AAO?$AAN?$AAO?$AAU?$AAT?$AA$@ 101438f8     libucrt:initcon.obj
 0002:0000ca10       __infinity                 10143a10     libucrt:87tran.obj
 0002:0000ca1a       __minfinity                10143a1a     libucrt:87tran.obj
 0002:0000ca24       __logemax                  10143a24     libucrt:87tran.obj
 0002:0000ca4a       __OP_EXPjmptab             10143a4a     libucrt:87tran.obj
 0002:0000ca70       ___acrt_log10_table_t      10143a70     libucrt:log10_tables.obj
 0002:0000ce80       ___acrt_log10_table_cb     10143e80     libucrt:log10_tables.obj
 0002:0000d290       __real@3fe0000000000000    10144290     libucrt:powhlp.obj
 0002:0000d300       ??_R4type_info@@6B@        10144300     LIBCMT:std_type_info_static.obj
 0002:0000d314       ??_R3type_info@@8          10144314     LIBCMT:std_type_info_static.obj
 0002:0000d324       ??_R2type_info@@8          10144324     LIBCMT:std_type_info_static.obj
 0002:0000d32c       ??_R1A@?0A@EA@type_info@@8 1014432c     LIBCMT:std_type_info_static.obj
 0002:0000d348       ??_R3DNameNode@@8          10144348     libvcruntime:undname.obj
 0002:0000d358       ??_R2DNameNode@@8          10144358     libvcruntime:undname.obj
 0002:0000d360       ??_R1A@?0A@EA@DNameNode@@8 10144360     libvcruntime:undname.obj
 0002:0000d37c       ??_R4charNode@@6B@         1014437c     libvcruntime:undname.obj
 0002:0000d390       ??_R3charNode@@8           10144390     libvcruntime:undname.obj
 0002:0000d3a0       ??_R2charNode@@8           101443a0     libvcruntime:undname.obj
 0002:0000d3ac       ??_R1A@?0A@EA@charNode@@8  101443ac     libvcruntime:undname.obj
 0002:0000d3c8       ??_R4pcharNode@@6B@        101443c8     libvcruntime:undname.obj
 0002:0000d3dc       ??_R3pcharNode@@8          101443dc     libvcruntime:undname.obj
 0002:0000d3ec       ??_R2pcharNode@@8          101443ec     libvcruntime:undname.obj
 0002:0000d3f8       ??_R1A@?0A@EA@pcharNode@@8 101443f8     libvcruntime:undname.obj
 0002:0000d414       ??_R4pDNameNode@@6B@       10144414     libvcruntime:undname.obj
 0002:0000d428       ??_R3pDNameNode@@8         10144428     libvcruntime:undname.obj
 0002:0000d438       ??_R2pDNameNode@@8         10144438     libvcruntime:undname.obj
 0002:0000d444       ??_R1A@?0A@EA@pDNameNode@@8 10144444     libvcruntime:undname.obj
 0002:0000d460       ??_R4DNameStatusNode@@6B@  10144460     libvcruntime:undname.obj
 0002:0000d474       ??_R3DNameStatusNode@@8    10144474     libvcruntime:undname.obj
 0002:0000d484       ??_R2DNameStatusNode@@8    10144484     libvcruntime:undname.obj
 0002:0000d490       ??_R1A@?0A@EA@DNameStatusNode@@8 10144490     libvcruntime:undname.obj
 0002:0000d4ac       ??_R4pairNode@@6B@         101444ac     libvcruntime:undname.obj
 0002:0000d4c0       ??_R3pairNode@@8           101444c0     libvcruntime:undname.obj
 0002:0000d4d0       ??_R2pairNode@@8           101444d0     libvcruntime:undname.obj
 0002:0000d4dc       ??_R1A@?0A@EA@pairNode@@8  101444dc     libvcruntime:undname.obj
 0002:0000d4f8       ??_R4exception@std@@6B@    101444f8     libvcruntime:frame.obj
 0002:0000d50c       ??_R3exception@std@@8      1014450c     libvcruntime:frame.obj
 0002:0000d51c       ??_R2exception@std@@8      1014451c     libvcruntime:frame.obj
 0002:0000d524       ??_R1A@?0A@EA@exception@std@@8 10144524     libvcruntime:frame.obj
 0002:0000d540       ??_R4bad_exception@std@@6B@ 10144540     libvcruntime:frame.obj
 0002:0000d554       ??_R3bad_exception@std@@8  10144554     libvcruntime:frame.obj
 0002:0000d564       ??_R2bad_exception@std@@8  10144564     libvcruntime:frame.obj
 0002:0000d570       ??_R1A@?0A@EA@bad_exception@std@@8 10144570     libvcruntime:frame.obj
 0002:0000d58c       ___safe_se_handler_table   1014458c     <linker-defined>
 0002:0000d5b8       ___volatile_metadata       101445b8     <linker-defined>
 0002:0000d9f4       ___rtc_iaa                 101449f4     LIBCMT:initsect.obj
 0002:0000d9f8       ___rtc_izz                 101449f8     LIBCMT:initsect.obj
 0002:0000d9fc       ___rtc_taa                 101449fc     LIBCMT:initsect.obj
 0002:0000da00       ___rtc_tzz                 10144a00     LIBCMT:initsect.obj
 0002:0000dbdc       __TI2?AVbad_exception@std@@ 10144bdc     libvcruntime:frame.obj
 0002:0000dbec       __CTA2?AVbad_exception@std@@ 10144bec     libvcruntime:frame.obj
 0002:0000dbf8       __CT??_R0?AVbad_exception@std@@@8??0bad_exception@std@@QAE@ABV01@@Z12 10144bf8     libvcruntime:frame.obj
 0002:0000dc14       __CT??_R0?AVexception@std@@@8??0exception@std@@QAE@ABV01@@Z12 10144c14     libvcruntime:frame.obj
 0002:0000e01c       __DELAY_IMPORT_DESCRIPTOR_physxfoundation_32_dll 1014501c     PhysXFoundation_32:PhysXFoundation_32.dll
 0002:0000e03c       __NULL_DELAY_IMPORT_DESCRIPTOR 1014503c     PhysXFoundation_32:PhysXFoundation_32.dll
 0002:0000e09c       \177PhysXFoundation_32_NULL_THUNK_DATA_DLN 1014509c     PhysXFoundation_32:PhysXFoundation_32.dll
 0002:0000e3a4       \177PhysXFoundation_32_NULL_THUNK_DATA_DLB 101453a4     PhysXFoundation_32:PhysXFoundation_32.dll
 0002:00018020       __IMPORT_DESCRIPTOR_KERNEL32 1014f020     kernel32:KERNEL32.dll
 0002:00018034       __NULL_IMPORT_DESCRIPTOR   1014f034     kernel32:KERNEL32.dll
 0003:00000000       ___pfnDliNotifyHook2       10150000     CmWindowsDelayLoadHook.obj
 0003:00000020       ?gGeomMTDMethodTable@@3PAY06P6A_NAAVPxVec3@physx@@AAMABVPxGeometry@2@ABVPxTransform@2@23@ZA 10150020     GuMTD.obj
 0003:000000e8       ?gGeomOverlapMethodTable@@3PAY06P6A_NABVPxGeometry@physx@@ABVPxTransform@2@01PAUTriggerCache@Gu@2@@ZA 101500e8     GuOverlapTests.obj
 0003:000001ac       ?gRaycastMap@@3PAP6AIABVPxGeometry@physx@@ABVPxTransform@2@ABVPxVec3@2@2MV?$PxFlags@W4Enum@PxHitFlag@physx@@G@2@IPIAUPxRaycastHit@2@@ZA 101501ac     GuRaycastTests.obj
 0003:000001c8       ?gGeomSweepFuncs@@3UGeomSweepFuncs@Gu@physx@@A 101501c8     GuSweepTests.obj
 0003:00000258       ?g_SweepMethodTable@Gu@physx@@3PAY06P6AMABUCCDShape@12@0ABVPxTransform@2@111MAAVPxVec3@2@2MAAIM@ZA 10150258     GuCCDSweepPrimitives.obj
 0003:0000031c       ?g_TriangleSweepMethodTable@Gu@physx@@3PAP6AMABVGeometryUnion@12@0ABVPxTransform@2@111MAAVPxVec3@2@2ABVFastVertex2ShapeScaling@Cm@2@AAVTriangleV@12@M@ZA 1015031c     GuCCDSweepPrimitives.obj
 0003:00000750       __fltused                  10150750     LIBCMT:fltused.obj
 0003:00000760       ___isa_enabled             10150760     LIBCMT:cpu_disp.obj
 0003:00000770       ___scrt_native_dllmain_reason 10150770     LIBCMT:utility.obj
 0003:00000780       ___security_cookie_complement 10150780     LIBCMT:gs_cookie.obj
 0003:00000784       ___security_cookie         10150784     LIBCMT:gs_cookie.obj
 0003:000007b0       __NLG_Destination          101507b0     libvcruntime:exsup.obj
 0003:000007c0       ___abort_behavior          101507c0     libucrt:abort.obj
 0003:000007e0       ___acrt_initial_multibyte_data 101507e0     libucrt:mbctype.obj
 0003:00000d00       ___acrt_initial_locale_data 10150d00     libucrt:nlsdata.obj
 0003:00000db8       ___acrt_initial_locale_pointers 10150db8     libucrt:nlsdata.obj
 0003:00000dc0       ___acrt_wide_c_locale_string 10150dc0     libucrt:nlsdata.obj
 0003:00000dc8       __iob                      10150dc8     libucrt:_file.obj
 0003:00000e70       ___globallocalestatus      10150e70     libucrt:glstatus.obj
 0003:00000e78       ___acrt_lconv_c            10150e78     libucrt:localeconv.obj
 0003:00000ec8       ___acrt_lconv_static_decimal 10150ec8     libucrt:localeconv.obj
 0003:00000ecc       ___acrt_lconv_static_W_decimal 10150ecc     libucrt:localeconv.obj
 0003:00000ed0       __lookuptrailbytes         10150ed0     libucrt:read.obj
 0003:00000fe0       ??_R0?AVCollection@Cm@physx@@@8 10150fe0     CmCollection.obj
 0003:00001004       ??_R0D@8                   10151004     CmRenderOutput.obj
 0003:00001010       ??_R0?AUPxDebugText@physx@@@8 10151010     CmRenderOutput.obj
 0003:00001030       ??_R0?AUPxDebugTriangle@physx@@@8 10151030     CmRenderOutput.obj
 0003:00001054       ??_R0?AUPxDebugLine@physx@@@8 10151054     CmRenderOutput.obj
 0003:00001074       ??_R0?AUPxDebugPoint@physx@@@8 10151074     CmRenderOutput.obj
 0003:00001098       ??_R0?AVMutexImpl@shdfnd@physx@@@8 10151098     GuMeshFactory.obj
 0003:000010c0       ??_R0?AVBVHStructure@Gu@physx@@@8 101510c0     GuMeshFactory.obj
 0003:000010e4       ??_R0?AVHeightField@Gu@physx@@@8 101510e4     GuMeshFactory.obj
 0003:00001108       ??_R0?AVConvexMesh@Gu@physx@@@8 10151108     GuMeshFactory.obj
 0003:0000112c       ??_R0?AVBV32Tree@Gu@physx@@@8 1015112c     GuMeshFactory.obj
 0003:0000114c       ??_R0?AVBV4TriangleData@Gu@physx@@@8 1015114c     GuMeshFactory.obj
 0003:00001174       ??_R0?AVRTreeTriangleData@Gu@physx@@@8 10151174     GuMeshFactory.obj
 0003:000011a0       ??_R0?AVBV4TriangleMesh@Gu@physx@@@8 101511a0     GuMeshFactory.obj
 0003:000011c8       ??_R0?AVRTreeTriangleMesh@Gu@physx@@@8 101511c8     GuMeshFactory.obj
 0003:000011f4       ??_R0E@8                   101511f4     GuMeshFactory.obj
 0003:00001200       ??_R0G@8                   10151200     GuMeshFactory.obj
 0003:0000120c       ??_R0I@8                   1015120c     GuMeshFactory.obj
 0003:00001218       ??_R0PAVGuMeshFactoryListener@physx@@@8 10151218     GuMeshFactory.obj
 0003:00001244       ??_R0?AVAABBTreeBuildNode@Gu@physx@@@8 10151244     GuAABBTreeBuild.obj
 0003:00001270       ??_R0?AUSlab@NodeAllocator@Gu@physx@@@8 10151270     GuAABBTreeBuild.obj
 0003:0000129c       ??_R0PBUBVHNode@Gu@physx@@@8 1015129c     GuBVHStructure.obj
 0003:000012bc       ??_R0?AVBigConvexData@physx@@@8 101512bc     GuConvexMesh.obj
 0003:000012e0       ??_R0?AVIndTri16@Gu@physx@@@8 101512e0     GuBV4.obj
 0003:00001300       ??_R0?AVIndTri32@Gu@physx@@@8 10151300     GuBV4.obj
 0003:00001320       ??_R0?AU?$BVDataPackedT@VQuantizedAABB@Gu@physx@@@Gu@physx@@@8 10151320     GuBV4Build.obj
 0003:00001364       ??_R0?AUSlab@BV4BuildParams@@@8 10151364     GuBV4Build.obj
 0003:00001388       ??_R0?AVAABBTreeNode@Gu@physx@@@8 10151388     GuBV4Build.obj
 0003:000013ac       ??_R0?AUBV32Data@Gu@physx@@@8 101513ac     GuBV32Build.obj
 0003:000013cc       ??_R0?AUBV32Node@@@8       101513cc     GuBV32Build.obj
 0003:000013e4       ??_R0?AUSortedTriangle@Gu@physx@@@8 101513e4     GuPCMContactConvexCommon.obj
 0003:0000140c       ??_R0?AVbad_exception@std@@@8 1015140c     libvcruntime:frame.obj
 0003:0000142c       ??_R0?AVexception@std@@@8  1015142c     libvcruntime:frame.obj
 0003:00001448       ??_R0?AVtype_info@@@8      10151448     LIBCMT:std_type_info_static.obj
 0003:00001460       ??_R0?AVDNameNode@@@8      10151460     libvcruntime:undname.obj
 0003:00001478       ??_R0?AVcharNode@@@8       10151478     libvcruntime:undname.obj
 0003:00001490       ??_R0?AVpcharNode@@@8      10151490     libvcruntime:undname.obj
 0003:000014a8       ??_R0?AVpDNameNode@@@8     101514a8     libvcruntime:undname.obj
 0003:000014c4       ??_R0?AVDNameStatusNode@@@8 101514c4     libvcruntime:undname.obj
 0003:000014e4       ??_R0?AVpairNode@@@8       101514e4     libvcruntime:undname.obj
 0003:000014fc       __imp__PxGetFoundation     101514fc     PhysXFoundation_32:PhysXFoundation_32.dll
 0003:00001500       __imp_?deallocate@TempAllocator@shdfnd@physx@@QAEXPAX@Z 10151500     PhysXFoundation_32:PhysXFoundation_32.dll
 0003:00001504       __imp_?getAllocator@shdfnd@physx@@YAAAVPxAllocatorCallback@2@XZ 10151504     PhysXFoundation_32:PhysXFoundation_32.dll
 0003:00001508       __imp_?getInstance@Foundation@shdfnd@physx@@SAAAV123@XZ 10151508     PhysXFoundation_32:PhysXFoundation_32.dll
 0003:0000150c       __imp_?error@Foundation@shdfnd@physx@@QAAXW4Enum@PxErrorCode@3@PBDH1ZZ 1015150c     PhysXFoundation_32:PhysXFoundation_32.dll
 0003:00001510       __imp_?vsnprintf@shdfnd@physx@@YAHPADIPBD0@Z 10151510     PhysXFoundation_32:PhysXFoundation_32.dll
 0003:00001514       __imp_??0MutexImpl@shdfnd@physx@@QAE@XZ 10151514     PhysXFoundation_32:PhysXFoundation_32.dll
 0003:00001518       __imp_??1MutexImpl@shdfnd@physx@@QAE@XZ 10151518     PhysXFoundation_32:PhysXFoundation_32.dll
 0003:0000151c       __imp_?lock@MutexImpl@shdfnd@physx@@QAEXXZ 1015151c     PhysXFoundation_32:PhysXFoundation_32.dll
 0003:00001520       __imp_?unlock@MutexImpl@shdfnd@physx@@QAEXXZ 10151520     PhysXFoundation_32:PhysXFoundation_32.dll
 0003:00001524       __imp_?getSize@MutexImpl@shdfnd@physx@@SAIXZ 10151524     PhysXFoundation_32:PhysXFoundation_32.dll
 0003:00001528       __imp_?atomicDecrement@shdfnd@physx@@YAHPCH@Z 10151528     PhysXFoundation_32:PhysXFoundation_32.dll
 0003:0000152c       __imp_?PxTransformFromSegment@physx@@YA?AVPxTransform@1@ABVPxVec3@1@0PAM@Z 1015152c     PhysXFoundation_32:PhysXFoundation_32.dll
 0003:00001530       __imp_?optimizeBoundingBox@shdfnd@physx@@YA?AVPxVec3@2@AAVPxMat33@2@@Z 10151530     PhysXFoundation_32:PhysXFoundation_32.dll
 0003:00001534       __imp_?allocate@TempAllocator@shdfnd@physx@@QAEPAXIPBDH@Z 10151534     PhysXFoundation_32:PhysXFoundation_32.dll
 0003:00001538       __imp_?atomicIncrement@shdfnd@physx@@YAHPCH@Z 10151538     PhysXFoundation_32:PhysXFoundation_32.dll
 0003:0000153c       \177PhysXFoundation_32_NULL_THUNK_DATA_DLA 1015153c     PhysXFoundation_32:PhysXFoundation_32.dll
 0003:000022d0       ?boxVertexTable@physx@@3QBT__m128@@B 101522d0     GuConvexSupportTable.obj
 0003:00003dc0       __hmod__PhysXFoundation_32_dll 10153dc0     PhysXFoundation_32:PhysXFoundation_32.dll
 0003:00003dc4       ?DloadKernel32@@3PAUHINSTANCE__@@A 10153dc4     Delayimp:delayhlp.obj
 0003:00003dc8       ?DloadAcquireSRWLockExclusive@@3P6GXPAK@ZA 10153dc8     Delayimp:delayhlp.obj
 0003:00003dcc       ?DloadReleaseSRWLockExclusive@@3P6GXPAK@ZA 10153dcc     Delayimp:delayhlp.obj
 0003:00003dd0       ?DloadSrwLock@@3KA         10153dd0     Delayimp:delayhlp.obj
 0003:00003dd4       ?DloadSectionLockCount@@3KA 10153dd4     Delayimp:delayhlp.obj
 0003:00003dd8       ?DloadSectionOldProtection@@3KA 10153dd8     Delayimp:delayhlp.obj
 0003:00003ddc       ?DloadSectionCommitPermanent@@3KA 10153ddc     Delayimp:delayhlp.obj
 0003:00003de0       ?__type_info_root_node@@3U__type_info_node@@A 10153de0     LIBCMT:tncleanup.obj
 0003:00003dec       ___castguard_check_failure_os_handled_fptr 10153dec     LIBCMT:guard_support.obj
 0003:00003df0       ___isa_available           10153df0     LIBCMT:cpu_disp.obj
 0003:00003df4       ___favor                   10153df4     LIBCMT:cpu_disp.obj
 0003:00003df8       ?_OptionsStorage@?1??__local_stdio_printf_options@@9@4_KA 10153df8     LIBCMT:default_local_stdio_options.obj
 0003:00003e00       ?_OptionsStorage@?1??__local_stdio_scanf_options@@9@4_KA 10153e00     LIBCMT:default_local_stdio_options.obj
 0003:00003e08       ___scrt_current_native_startup_state 10153e08     LIBCMT:utility.obj
 0003:00003e0c       ___scrt_native_startup_lock 10153e0c     LIBCMT:utility.obj
 0003:00003e2c       ___scrt_debugger_hook_flag 10153e2c     LIBCMT:utility_desktop.obj
 0003:0000414c       ?__WinRTOutOfMemoryExceptionCallback@@3P6GPAXXZA 1015414c     libvcruntime:ehhelpers.obj
 0003:00004150       ___pPurecall               10154150     libvcruntime:purevirt_data.obj
 0003:00004154       ?pArgList@UnDecorator@@0PAVReplicator@@A 10154154     libvcruntime:undname.obj
 0003:00004158       ?pZNameList@UnDecorator@@0PAVReplicator@@A 10154158     libvcruntime:undname.obj
 0003:0000415c       ?pTemplateArgList@UnDecorator@@0PAVReplicator@@A 1015415c     libvcruntime:undname.obj
 0003:00004160       ?gName@UnDecorator@@0PBDB  10154160     libvcruntime:undname.obj
 0003:00004164       ?name@UnDecorator@@0PBDB   10154164     libvcruntime:undname.obj
 0003:00004168       ?disableFlags@UnDecorator@@0KA 10154168     libvcruntime:undname.obj
 0003:0000416c       ?fExplicitTemplateParams@UnDecorator@@0_NA 1015416c     libvcruntime:undname.obj
 0003:0000416d       ?fGetTemplateArgumentList@UnDecorator@@0_NA 1015416d     libvcruntime:undname.obj
 0003:00004170       ?m_pGetParameter@UnDecorator@@0P6APADJ@ZA 10154170     libvcruntime:undname.obj
 0003:00004174       ?m_CHPENameOffset@UnDecorator@@0KA 10154174     libvcruntime:undname.obj
 0003:00004178       ?m_recursionLevel@UnDecorator@@0KA 10154178     libvcruntime:undname.obj
 0003:000041fc       ?c_exit_complete@?1???R<lambda_6e4b09c48022b2350581041d5f6b0c4c>@@QBE@XZ@4_NA 101541fc     libucrt:exit.obj
 0003:00004308       __environ_table            10154308     libucrt:environment_initialization.obj
 0003:0000430c       __wenviron_table           1015430c     libucrt:environment_initialization.obj
 0003:00004310       ___dcrt_initial_wide_environment 10154310     libucrt:environment_initialization.obj
 0003:00004314       ___dcrt_initial_narrow_environment 10154314     libucrt:environment_initialization.obj
 0003:00004318       ___acrt_atexit_table       10154318     libucrt:onexit.obj
 0003:00004324       ___acrt_at_quick_exit_table 10154324     libucrt:onexit.obj
 0003:00004490       __mbctype                  10154490     libucrt:mbctype.obj
 0003:00004494       __mbcasemap                10154494     libucrt:mbctype.obj
 0003:00004498       ___acrt_current_multibyte_data 10154498     libucrt:mbctype.obj
 0003:000044a4       __pgmptr                   101544a4     libucrt:argv_data.obj
 0003:000044a8       ___argc                    101544a8     libucrt:argv_data.obj
 0003:000044ac       ___argv                    101544ac     libucrt:argv_data.obj
 0003:000044b0       ___wargv                   101544b0     libucrt:argv_data.obj
 0003:000044b4       __acmdln                   101544b4     libucrt:argv_data.obj
 0003:000044b8       __wcmdln                   101544b8     libucrt:argv_data.obj
 0003:00004598       ___acrt_heap               10154598     libucrt:heap_handle.obj
 0003:000045a0       ___pioinfo                 101545a0     libucrt:ioinit.obj
 0003:000047a0       __nhandle                  101547a0     libucrt:ioinit.obj
 0003:000047b8       ___acrt_current_locale_data 101547b8     libucrt:nlsdata.obj
 0003:000047bc       __nstream                  101547bc     libucrt:_file.obj
 0003:000047c0       ___piob                    101547c0     libucrt:_file.obj
 0003:000047c4       ___acrt_stdout_buffer      101547c4     libucrt:_sftbuf.obj
 0003:000047c8       ___acrt_stderr_buffer      101547c8     libucrt:_sftbuf.obj
 0003:000047d8       ___acrt_locale_changed_data 101547d8     libucrt:wsetlocale.obj
 0003:000047e0       ___acrt_lconv_static_null  101547e0     libucrt:localeconv.obj
 0003:000047e4       ___acrt_lconv_static_W_null 101547e4     libucrt:localeconv.obj
 0003:000047e8       ___fastflag                101547e8     libucrt:fp_flags.obj
 0003:000047f8       ___scrt_ucrt_dll_is_in_use 101547f8     <common>
 0003:000047fc       ___dyn_tls_init_callback   101547fc     <common>
 0003:00004800       ___use_sse2_mathfcns       10154800     <common>
 0003:00004804       __pmatherr                 10154804     <common>
 0004:00000500       ___common_ssin_reduction_data 10155500     LIBCMT:svml_s_sin_data.obj
 0004:00001100       ___common_ssin_data        10156100     LIBCMT:svml_s_sin_data.obj

 entry point at        0001:0011bcfc

 Static symbols

 0000:ffea0000       .debug$S                   10000000     PhysXCommon_32.exp
 0000:ffea0000       .debug$S                   10000000     kernel32:KERNEL32.dll
 0000:ffea0000       .debug$S                   10000000     kernel32:KERNEL32.dll
 0000:ffea0000       .debug$S                   10000000     kernel32:KERNEL32.dll
 0000:ffea0000       .debug$S                   10000000     kernel32:KERNEL32.dll
 0000:ffea0000       .debug$S                   10000000     kernel32:KERNEL32.dll
 0000:ffea0000       .debug$S                   10000000     kernel32:KERNEL32.dll
 0000:ffea0000       .debug$S                   10000000     kernel32:KERNEL32.dll
 0000:ffea0000       .debug$S                   10000000     kernel32:KERNEL32.dll
 0000:ffea0000       .debug$S                   10000000     kernel32:KERNEL32.dll
 0000:ffea0000       .debug$S                   10000000     kernel32:KERNEL32.dll
 0000:ffea0000       .debug$S                   10000000     kernel32:KERNEL32.dll
 0000:ffea0000       .debug$S                   10000000     kernel32:KERNEL32.dll
 0000:ffea0000       .debug$S                   10000000     kernel32:KERNEL32.dll
 0000:ffea0000       .debug$S                   10000000     kernel32:KERNEL32.dll
 0000:ffea0000       .debug$S                   10000000     kernel32:KERNEL32.dll
 0000:ffea0000       .debug$S                   10000000     kernel32:KERNEL32.dll
 0000:ffea0000       .debug$S                   10000000     kernel32:KERNEL32.dll
 0000:ffea0000       .debug$S                   10000000     kernel32:KERNEL32.dll
 0000:ffea0000       .debug$S                   10000000     kernel32:KERNEL32.dll
 0000:ffea0000       .debug$S                   10000000     kernel32:KERNEL32.dll
 0000:ffea0000       .debug$S                   10000000     kernel32:KERNEL32.dll
 0000:ffea0000       .debug$S                   10000000     kernel32:KERNEL32.dll
 0000:ffea0000       .debug$S                   10000000     kernel32:KERNEL32.dll
 0000:ffea0000       .debug$S                   10000000     kernel32:KERNEL32.dll
 0000:ffea0000       .debug$S                   10000000     kernel32:KERNEL32.dll
 0000:ffea0000       .debug$S                   10000000     kernel32:KERNEL32.dll
 0000:ffea0000       .debug$S                   10000000     kernel32:KERNEL32.dll
 0000:ffea0000       .debug$S                   10000000     kernel32:KERNEL32.dll
 0000:ffea0000       .debug$S                   10000000     kernel32:KERNEL32.dll
 0000:ffea0000       .debug$S                   10000000     kernel32:KERNEL32.dll
 0000:ffea0000       .debug$S                   10000000     kernel32:KERNEL32.dll
 0000:ffea0000       .debug$S                   10000000     kernel32:KERNEL32.dll
 0000:ffea0000       .debug$S                   10000000     kernel32:KERNEL32.dll
 0000:ffea0000       .debug$S                   10000000     kernel32:KERNEL32.dll
 0000:ffea0000       .debug$S                   10000000     kernel32:KERNEL32.dll
 0000:ffea0000       .debug$S                   10000000     kernel32:KERNEL32.dll
 0000:ffea0000       .debug$S                   10000000     kernel32:KERNEL32.dll
 0000:ffea0000       .debug$S                   10000000     kernel32:KERNEL32.dll
 0000:ffea0000       .debug$S                   10000000     kernel32:KERNEL32.dll
 0000:ffea0000       .debug$S                   10000000     kernel32:KERNEL32.dll
 0000:ffea0000       .debug$S                   10000000     kernel32:KERNEL32.dll
 0000:ffea0000       .debug$S                   10000000     kernel32:KERNEL32.dll
 0000:ffea0000       .debug$S                   10000000     kernel32:KERNEL32.dll
 0000:ffea0000       .debug$S                   10000000     kernel32:KERNEL32.dll
 0000:ffea0000       .debug$S                   10000000     kernel32:KERNEL32.dll
 0000:ffea0000       .debug$S                   10000000     kernel32:KERNEL32.dll
 0000:ffea0000       .debug$S                   10000000     kernel32:KERNEL32.dll
 0000:ffea0000       .debug$S                   10000000     kernel32:KERNEL32.dll
 0000:ffea0000       .debug$S                   10000000     kernel32:KERNEL32.dll
 0000:ffea0000       .debug$S                   10000000     kernel32:KERNEL32.dll
 0000:ffea0000       .debug$S                   10000000     kernel32:KERNEL32.dll
 0000:ffea0000       .debug$S                   10000000     kernel32:KERNEL32.dll
 0000:ffea0000       .debug$S                   10000000     kernel32:KERNEL32.dll
 0000:ffea0000       .debug$S                   10000000     kernel32:KERNEL32.dll
 0000:ffea0000       .debug$S                   10000000     kernel32:KERNEL32.dll
 0000:ffea0000       .debug$S                   10000000     kernel32:KERNEL32.dll
 0000:ffea0000       .debug$S                   10000000     kernel32:KERNEL32.dll
 0000:ffea0000       .debug$S                   10000000     kernel32:KERNEL32.dll
 0000:ffea0000       .debug$S                   10000000     kernel32:KERNEL32.dll
 0000:ffea0000       .debug$S                   10000000     kernel32:KERNEL32.dll
 0000:ffea0000       .debug$S                   10000000     kernel32:KERNEL32.dll
 0000:ffea0000       .debug$S                   10000000     kernel32:KERNEL32.dll
 0000:ffea0000       .debug$S                   10000000     kernel32:KERNEL32.dll
 0000:ffea0000       .debug$S                   10000000     kernel32:KERNEL32.dll
 0000:ffea0000       .debug$S                   10000000     kernel32:KERNEL32.dll
 0000:ffea0000       .debug$S                   10000000     kernel32:KERNEL32.dll
 0000:ffea0000       .debug$S                   10000000     kernel32:KERNEL32.dll
 0000:ffea0000       .debug$S                   10000000     kernel32:KERNEL32.dll
 0000:ffea0000       .debug$S                   10000000     kernel32:KERNEL32.dll
 0000:ffea0000       .debug$S                   10000000     kernel32:KERNEL32.dll
 0000:ffea0000       .debug$S                   10000000     kernel32:KERNEL32.dll
 0000:ffea0000       .debug$S                   10000000     kernel32:KERNEL32.dll
 0000:ffea0000       .debug$S                   10000000     kernel32:KERNEL32.dll
 0000:ffea0000       .debug$S                   10000000     kernel32:KERNEL32.dll
 0000:ffea0000       .debug$S                   10000000     kernel32:KERNEL32.dll
 0000:ffea0000       .debug$S                   10000000     kernel32:KERNEL32.dll
 0000:ffea0000       .debug$S                   10000000     kernel32:KERNEL32.dll
 0000:ffea0000       .debug$S                   10000000     kernel32:KERNEL32.dll
 0000:ffea0000       .debug$S                   10000000     kernel32:KERNEL32.dll
 0000:ffea0000       .debug$S                   10000000     kernel32:KERNEL32.dll
 0000:ffea0000       .debug$S                   10000000     kernel32:KERNEL32.dll
 0000:ffea0000       .debug$S                   10000000     kernel32:KERNEL32.dll
 0000:ffea0000       .debug$S                   10000000     kernel32:KERNEL32.dll
 0000:ffea0000       .debug$S                   10000000     kernel32:KERNEL32.dll
 0000:ffea0000       .debug$S                   10000000     kernel32:KERNEL32.dll
 0000:ffea0000       .debug$S                   10000000     PhysXFoundation_32:PhysXFoundation_32.dll
 0000:ffea0000       .debug$S                   10000000     PhysXFoundation_32:PhysXFoundation_32.dll
 0000:ffea0000       .debug$S                   10000000     PhysXFoundation_32:PhysXFoundation_32.dll
 0000:ffea0000       .debug$S                   10000000     PhysXFoundation_32:PhysXFoundation_32.dll
 0000:ffea0000       .debug$S                   10000000     PhysXFoundation_32:PhysXFoundation_32.dll
 0000:ffea0000       .debug$S                   10000000     PhysXFoundation_32:PhysXFoundation_32.dll
 0000:ffea0000       .debug$S                   10000000     PhysXFoundation_32:PhysXFoundation_32.dll
 0000:ffea0000       .debug$S                   10000000     PhysXFoundation_32:PhysXFoundation_32.dll
 0000:ffea0000       .debug$S                   10000000     PhysXFoundation_32:PhysXFoundation_32.dll
 0000:ffea0000       .debug$S                   10000000     PhysXFoundation_32:PhysXFoundation_32.dll
 0000:ffea0000       .debug$S                   10000000     PhysXFoundation_32:PhysXFoundation_32.dll
 0000:ffea0000       .debug$S                   10000000     PhysXFoundation_32:PhysXFoundation_32.dll
 0000:ffea0000       .debug$S                   10000000     PhysXFoundation_32:PhysXFoundation_32.dll
 0000:ffea0000       .debug$S                   10000000     PhysXFoundation_32:PhysXFoundation_32.dll
 0000:ffea0000       .debug$S                   10000000     PhysXFoundation_32:PhysXFoundation_32.dll
 0000:ffea0000       .debug$S                   10000000     PhysXFoundation_32:PhysXFoundation_32.dll
 0001:00000000       ??__EmaxFError@_VecMathTests@aos@shdfnd@physx@@YAXXZ 10001000 f   GuBounds.obj
 0001:00000020       ??__EmaxV3Error@_VecMathTests@aos@shdfnd@physx@@YAXXZ 10001020 f   GuBounds.obj
 0001:00000030       ??__EmaxV4Error@_VecMathTests@aos@shdfnd@physx@@YAXXZ 10001030 f   GuBounds.obj
 0001:00000050       ??__EminFError@_VecMathTests@aos@shdfnd@physx@@YAXXZ 10001050 f   GuBounds.obj
 0001:00000070       ??__EminV3Error@_VecMathTests@aos@shdfnd@physx@@YAXXZ 10001070 f   GuBounds.obj
 0001:00000080       ??__EminV4Error@_VecMathTests@aos@shdfnd@physx@@YAXXZ 10001080 f   GuBounds.obj
 0001:000000a0       ??__EmaxFError@_VecMathTests@aos@shdfnd@physx@@YAXXZ 100010a0 f   GuBox.obj
 0001:000000c0       ??__EmaxV3Error@_VecMathTests@aos@shdfnd@physx@@YAXXZ 100010c0 f   GuBox.obj
 0001:000000d0       ??__EmaxV4Error@_VecMathTests@aos@shdfnd@physx@@YAXXZ 100010d0 f   GuBox.obj
 0001:000000f0       ??__EminFError@_VecMathTests@aos@shdfnd@physx@@YAXXZ 100010f0 f   GuBox.obj
 0001:00000110       ??__EminV3Error@_VecMathTests@aos@shdfnd@physx@@YAXXZ 10001110 f   GuBox.obj
 0001:00000120       ??__EminV4Error@_VecMathTests@aos@shdfnd@physx@@YAXXZ 10001120 f   GuBox.obj
 0001:00000140       ??__EmaxFError@_VecMathTests@aos@shdfnd@physx@@YAXXZ 10001140 f   GuCCTSweepTests.obj
 0001:00000160       ??__EmaxV3Error@_VecMathTests@aos@shdfnd@physx@@YAXXZ 10001160 f   GuCCTSweepTests.obj
 0001:00000170       ??__EmaxV4Error@_VecMathTests@aos@shdfnd@physx@@YAXXZ 10001170 f   GuCCTSweepTests.obj
 0001:00000190       ??__EminFError@_VecMathTests@aos@shdfnd@physx@@YAXXZ 10001190 f   GuCCTSweepTests.obj
 0001:000001b0       ??__EminV3Error@_VecMathTests@aos@shdfnd@physx@@YAXXZ 100011b0 f   GuCCTSweepTests.obj
 0001:000001c0       ??__EminV4Error@_VecMathTests@aos@shdfnd@physx@@YAXXZ 100011c0 f   GuCCTSweepTests.obj
 0001:000001e0       ??__EmaxFError@_VecMathTests@aos@shdfnd@physx@@YAXXZ 100011e0 f   GuGeometryQuery.obj
 0001:00000200       ??__EmaxV3Error@_VecMathTests@aos@shdfnd@physx@@YAXXZ 10001200 f   GuGeometryQuery.obj
 0001:00000210       ??__EmaxV4Error@_VecMathTests@aos@shdfnd@physx@@YAXXZ 10001210 f   GuGeometryQuery.obj
 0001:00000230       ??__EminFError@_VecMathTests@aos@shdfnd@physx@@YAXXZ 10001230 f   GuGeometryQuery.obj
 0001:00000250       ??__EminV3Error@_VecMathTests@aos@shdfnd@physx@@YAXXZ 10001250 f   GuGeometryQuery.obj
 0001:00000260       ??__EminV4Error@_VecMathTests@aos@shdfnd@physx@@YAXXZ 10001260 f   GuGeometryQuery.obj
 0001:00000280       ??__EmaxFError@_VecMathTests@aos@shdfnd@physx@@YAXXZ 10001280 f   GuGeometryUnion.obj
 0001:000002a0       ??__EmaxV3Error@_VecMathTests@aos@shdfnd@physx@@YAXXZ 100012a0 f   GuGeometryUnion.obj
 0001:000002b0       ??__EmaxV4Error@_VecMathTests@aos@shdfnd@physx@@YAXXZ 100012b0 f   GuGeometryUnion.obj
 0001:000002d0       ??__EminFError@_VecMathTests@aos@shdfnd@physx@@YAXXZ 100012d0 f   GuGeometryUnion.obj
 0001:000002f0       ??__EminV3Error@_VecMathTests@aos@shdfnd@physx@@YAXXZ 100012f0 f   GuGeometryUnion.obj
 0001:00000300       ??__EminV4Error@_VecMathTests@aos@shdfnd@physx@@YAXXZ 10001300 f   GuGeometryUnion.obj
 0001:00000320       ??__EmaxFError@_VecMathTests@aos@shdfnd@physx@@YAXXZ 10001320 f   GuInternal.obj
 0001:00000340       ??__EmaxV3Error@_VecMathTests@aos@shdfnd@physx@@YAXXZ 10001340 f   GuInternal.obj
 0001:00000350       ??__EmaxV4Error@_VecMathTests@aos@shdfnd@physx@@YAXXZ 10001350 f   GuInternal.obj
 0001:00000370       ??__EminFError@_VecMathTests@aos@shdfnd@physx@@YAXXZ 10001370 f   GuInternal.obj
 0001:00000390       ??__EminV3Error@_VecMathTests@aos@shdfnd@physx@@YAXXZ 10001390 f   GuInternal.obj
 0001:000003a0       ??__EminV4Error@_VecMathTests@aos@shdfnd@physx@@YAXXZ 100013a0 f   GuInternal.obj
 0001:000003c0       ??__EmaxFError@_VecMathTests@aos@shdfnd@physx@@YAXXZ 100013c0 f   GuMeshFactory.obj
 0001:000003e0       ??__EmaxV3Error@_VecMathTests@aos@shdfnd@physx@@YAXXZ 100013e0 f   GuMeshFactory.obj
 0001:000003f0       ??__EmaxV4Error@_VecMathTests@aos@shdfnd@physx@@YAXXZ 100013f0 f   GuMeshFactory.obj
 0001:00000410       ??__EminFError@_VecMathTests@aos@shdfnd@physx@@YAXXZ 10001410 f   GuMeshFactory.obj
 0001:00000430       ??__EminV3Error@_VecMathTests@aos@shdfnd@physx@@YAXXZ 10001430 f   GuMeshFactory.obj
 0001:00000440       ??__EminV4Error@_VecMathTests@aos@shdfnd@physx@@YAXXZ 10001440 f   GuMeshFactory.obj
 0001:00000460       ??__EmaxFError@_VecMathTests@aos@shdfnd@physx@@YAXXZ 10001460 f   GuMetaData.obj
 0001:00000480       ??__EmaxV3Error@_VecMathTests@aos@shdfnd@physx@@YAXXZ 10001480 f   GuMetaData.obj
 0001:00000490       ??__EmaxV4Error@_VecMathTests@aos@shdfnd@physx@@YAXXZ 10001490 f   GuMetaData.obj
 0001:000004b0       ??__EminFError@_VecMathTests@aos@shdfnd@physx@@YAXXZ 100014b0 f   GuMetaData.obj
 0001:000004d0       ??__EminV3Error@_VecMathTests@aos@shdfnd@physx@@YAXXZ 100014d0 f   GuMetaData.obj
 0001:000004e0       ??__EminV4Error@_VecMathTests@aos@shdfnd@physx@@YAXXZ 100014e0 f   GuMetaData.obj
 0001:00000500       ??__EmaxFError@_VecMathTests@aos@shdfnd@physx@@YAXXZ 10001500 f   GuMTD.obj
 0001:00000520       ??__EmaxV3Error@_VecMathTests@aos@shdfnd@physx@@YAXXZ 10001520 f   GuMTD.obj
 0001:00000530       ??__EmaxV4Error@_VecMathTests@aos@shdfnd@physx@@YAXXZ 10001530 f   GuMTD.obj
 0001:00000550       ??__EminFError@_VecMathTests@aos@shdfnd@physx@@YAXXZ 10001550 f   GuMTD.obj
 0001:00000570       ??__EminV3Error@_VecMathTests@aos@shdfnd@physx@@YAXXZ 10001570 f   GuMTD.obj
 0001:00000580       ??__EminV4Error@_VecMathTests@aos@shdfnd@physx@@YAXXZ 10001580 f   GuMTD.obj
 0001:000005a0       ??__EmaxFError@_VecMathTests@aos@shdfnd@physx@@YAXXZ 100015a0 f   GuOverlapTests.obj
 0001:000005c0       ??__EmaxV3Error@_VecMathTests@aos@shdfnd@physx@@YAXXZ 100015c0 f   GuOverlapTests.obj
 0001:000005d0       ??__EmaxV4Error@_VecMathTests@aos@shdfnd@physx@@YAXXZ 100015d0 f   GuOverlapTests.obj
 0001:000005f0       ??__EminFError@_VecMathTests@aos@shdfnd@physx@@YAXXZ 100015f0 f   GuOverlapTests.obj
 0001:00000610       ??__EminV3Error@_VecMathTests@aos@shdfnd@physx@@YAXXZ 10001610 f   GuOverlapTests.obj
 0001:00000620       ??__EminV4Error@_VecMathTests@aos@shdfnd@physx@@YAXXZ 10001620 f   GuOverlapTests.obj
 0001:00000640       ??__EmaxFError@_VecMathTests@aos@shdfnd@physx@@YAXXZ 10001640 f   GuRaycastTests.obj
 0001:00000660       ??__EmaxV3Error@_VecMathTests@aos@shdfnd@physx@@YAXXZ 10001660 f   GuRaycastTests.obj
 0001:00000670       ??__EmaxV4Error@_VecMathTests@aos@shdfnd@physx@@YAXXZ 10001670 f   GuRaycastTests.obj
 0001:00000690       ??__EminFError@_VecMathTests@aos@shdfnd@physx@@YAXXZ 10001690 f   GuRaycastTests.obj
 0001:000006b0       ??__EminV3Error@_VecMathTests@aos@shdfnd@physx@@YAXXZ 100016b0 f   GuRaycastTests.obj
 0001:000006c0       ??__EminV4Error@_VecMathTests@aos@shdfnd@physx@@YAXXZ 100016c0 f   GuRaycastTests.obj
 0001:000006e0       ??__EmaxFError@_VecMathTests@aos@shdfnd@physx@@YAXXZ 100016e0 f   GuSweepMTD.obj
 0001:00000700       ??__EmaxV3Error@_VecMathTests@aos@shdfnd@physx@@YAXXZ 10001700 f   GuSweepMTD.obj
 0001:00000710       ??__EmaxV4Error@_VecMathTests@aos@shdfnd@physx@@YAXXZ 10001710 f   GuSweepMTD.obj
 0001:00000730       ??__EminFError@_VecMathTests@aos@shdfnd@physx@@YAXXZ 10001730 f   GuSweepMTD.obj
 0001:00000750       ??__EminV3Error@_VecMathTests@aos@shdfnd@physx@@YAXXZ 10001750 f   GuSweepMTD.obj
 0001:00000760       ??__EminV4Error@_VecMathTests@aos@shdfnd@physx@@YAXXZ 10001760 f   GuSweepMTD.obj
 0001:00000780       ??__EmaxFError@_VecMathTests@aos@shdfnd@physx@@YAXXZ 10001780 f   GuSweepSharedTests.obj
 0001:000007a0       ??__EmaxV3Error@_VecMathTests@aos@shdfnd@physx@@YAXXZ 100017a0 f   GuSweepSharedTests.obj
 0001:000007b0       ??__EmaxV4Error@_VecMathTests@aos@shdfnd@physx@@YAXXZ 100017b0 f   GuSweepSharedTests.obj
 0001:000007d0       ??__EminFError@_VecMathTests@aos@shdfnd@physx@@YAXXZ 100017d0 f   GuSweepSharedTests.obj
 0001:000007f0       ??__EminV3Error@_VecMathTests@aos@shdfnd@physx@@YAXXZ 100017f0 f   GuSweepSharedTests.obj
 0001:00000800       ??__EminV4Error@_VecMathTests@aos@shdfnd@physx@@YAXXZ 10001800 f   GuSweepSharedTests.obj
 0001:00000820       ??__EmaxFError@_VecMathTests@aos@shdfnd@physx@@YAXXZ 10001820 f   GuSweepTests.obj
 0001:00000840       ??__EmaxV3Error@_VecMathTests@aos@shdfnd@physx@@YAXXZ 10001840 f   GuSweepTests.obj
 0001:00000850       ??__EmaxV4Error@_VecMathTests@aos@shdfnd@physx@@YAXXZ 10001850 f   GuSweepTests.obj
 0001:00000870       ??__EminFError@_VecMathTests@aos@shdfnd@physx@@YAXXZ 10001870 f   GuSweepTests.obj
 0001:00000890       ??__EminV3Error@_VecMathTests@aos@shdfnd@physx@@YAXXZ 10001890 f   GuSweepTests.obj
 0001:000008a0       ??__EminV4Error@_VecMathTests@aos@shdfnd@physx@@YAXXZ 100018a0 f   GuSweepTests.obj
 0001:000008c0       ??__EmaxFError@_VecMathTests@aos@shdfnd@physx@@YAXXZ 100018c0 f   GuAABBTreeBuild.obj
 0001:000008e0       ??__EmaxV3Error@_VecMathTests@aos@shdfnd@physx@@YAXXZ 100018e0 f   GuAABBTreeBuild.obj
 0001:000008f0       ??__EmaxV4Error@_VecMathTests@aos@shdfnd@physx@@YAXXZ 100018f0 f   GuAABBTreeBuild.obj
 0001:00000910       ??__EminFError@_VecMathTests@aos@shdfnd@physx@@YAXXZ 10001910 f   GuAABBTreeBuild.obj
 0001:00000930       ??__EminV3Error@_VecMathTests@aos@shdfnd@physx@@YAXXZ 10001930 f   GuAABBTreeBuild.obj
 0001:00000940       ??__EminV4Error@_VecMathTests@aos@shdfnd@physx@@YAXXZ 10001940 f   GuAABBTreeBuild.obj
 0001:00000960       ??__EmaxFError@_VecMathTests@aos@shdfnd@physx@@YAXXZ 10001960 f   GuBVHStructure.obj
 0001:00000980       ??__EmaxV3Error@_VecMathTests@aos@shdfnd@physx@@YAXXZ 10001980 f   GuBVHStructure.obj
 0001:00000990       ??__EmaxV4Error@_VecMathTests@aos@shdfnd@physx@@YAXXZ 10001990 f   GuBVHStructure.obj
 0001:000009b0       ??__EminFError@_VecMathTests@aos@shdfnd@physx@@YAXXZ 100019b0 f   GuBVHStructure.obj
 0001:000009d0       ??__EminV3Error@_VecMathTests@aos@shdfnd@physx@@YAXXZ 100019d0 f   GuBVHStructure.obj
 0001:000009e0       ??__EminV4Error@_VecMathTests@aos@shdfnd@physx@@YAXXZ 100019e0 f   GuBVHStructure.obj
 0001:00000a00       ??__EmaxFError@_VecMathTests@aos@shdfnd@physx@@YAXXZ 10001a00 f   GuCCDSweepConvexMesh.obj
 0001:00000a20       ??__EmaxV3Error@_VecMathTests@aos@shdfnd@physx@@YAXXZ 10001a20 f   GuCCDSweepConvexMesh.obj
 0001:00000a30       ??__EmaxV4Error@_VecMathTests@aos@shdfnd@physx@@YAXXZ 10001a30 f   GuCCDSweepConvexMesh.obj
 0001:00000a50       ??__EminFError@_VecMathTests@aos@shdfnd@physx@@YAXXZ 10001a50 f   GuCCDSweepConvexMesh.obj
 0001:00000a70       ??__EminV3Error@_VecMathTests@aos@shdfnd@physx@@YAXXZ 10001a70 f   GuCCDSweepConvexMesh.obj
 0001:00000a80       ??__EminV4Error@_VecMathTests@aos@shdfnd@physx@@YAXXZ 10001a80 f   GuCCDSweepConvexMesh.obj
 0001:00000aa0       ??__EmaxFError@_VecMathTests@aos@shdfnd@physx@@YAXXZ 10001aa0 f   GuCCDSweepPrimitives.obj
 0001:00000ac0       ??__EmaxV3Error@_VecMathTests@aos@shdfnd@physx@@YAXXZ 10001ac0 f   GuCCDSweepPrimitives.obj
 0001:00000ad0       ??__EmaxV4Error@_VecMathTests@aos@shdfnd@physx@@YAXXZ 10001ad0 f   GuCCDSweepPrimitives.obj
 0001:00000af0       ??__EminFError@_VecMathTests@aos@shdfnd@physx@@YAXXZ 10001af0 f   GuCCDSweepPrimitives.obj
 0001:00000b10       ??__EminV3Error@_VecMathTests@aos@shdfnd@physx@@YAXXZ 10001b10 f   GuCCDSweepPrimitives.obj
 0001:00000b20       ??__EminV4Error@_VecMathTests@aos@shdfnd@physx@@YAXXZ 10001b20 f   GuCCDSweepPrimitives.obj
 0001:00000b40       ??__EmaxFError@_VecMathTests@aos@shdfnd@physx@@YAXXZ 10001b40 f   GuBarycentricCoordinates.obj
 0001:00000b60       ??__EmaxV3Error@_VecMathTests@aos@shdfnd@physx@@YAXXZ 10001b60 f   GuBarycentricCoordinates.obj
 0001:00000b70       ??__EmaxV4Error@_VecMathTests@aos@shdfnd@physx@@YAXXZ 10001b70 f   GuBarycentricCoordinates.obj
 0001:00000b90       ??__EminFError@_VecMathTests@aos@shdfnd@physx@@YAXXZ 10001b90 f   GuBarycentricCoordinates.obj
 0001:00000bb0       ??__EminV3Error@_VecMathTests@aos@shdfnd@physx@@YAXXZ 10001bb0 f   GuBarycentricCoordinates.obj
 0001:00000bc0       ??__EminV4Error@_VecMathTests@aos@shdfnd@physx@@YAXXZ 10001bc0 f   GuBarycentricCoordinates.obj
 0001:00000be0       ??__EmaxFError@_VecMathTests@aos@shdfnd@physx@@YAXXZ 10001be0 f   GuContactBoxBox.obj
 0001:00000c00       ??__EmaxV3Error@_VecMathTests@aos@shdfnd@physx@@YAXXZ 10001c00 f   GuContactBoxBox.obj
 0001:00000c10       ??__EmaxV4Error@_VecMathTests@aos@shdfnd@physx@@YAXXZ 10001c10 f   GuContactBoxBox.obj
 0001:00000c30       ??__EminFError@_VecMathTests@aos@shdfnd@physx@@YAXXZ 10001c30 f   GuContactBoxBox.obj
 0001:00000c50       ??__EminV3Error@_VecMathTests@aos@shdfnd@physx@@YAXXZ 10001c50 f   GuContactBoxBox.obj
 0001:00000c60       ??__EminV4Error@_VecMathTests@aos@shdfnd@physx@@YAXXZ 10001c60 f   GuContactBoxBox.obj
 0001:00000c80       ??__EmaxFError@_VecMathTests@aos@shdfnd@physx@@YAXXZ 10001c80 f   GuContactCapsuleBox.obj
 0001:00000ca0       ??__EmaxV3Error@_VecMathTests@aos@shdfnd@physx@@YAXXZ 10001ca0 f   GuContactCapsuleBox.obj
 0001:00000cb0       ??__EmaxV4Error@_VecMathTests@aos@shdfnd@physx@@YAXXZ 10001cb0 f   GuContactCapsuleBox.obj
 0001:00000cd0       ??__EminFError@_VecMathTests@aos@shdfnd@physx@@YAXXZ 10001cd0 f   GuContactCapsuleBox.obj
 0001:00000cf0       ??__EminV3Error@_VecMathTests@aos@shdfnd@physx@@YAXXZ 10001cf0 f   GuContactCapsuleBox.obj
 0001:00000d00       ??__EminV4Error@_VecMathTests@aos@shdfnd@physx@@YAXXZ 10001d00 f   GuContactCapsuleBox.obj
 0001:00000d20       ??__EmaxFError@_VecMathTests@aos@shdfnd@physx@@YAXXZ 10001d20 f   GuContactCapsuleCapsule.obj
 0001:00000d40       ??__EmaxV3Error@_VecMathTests@aos@shdfnd@physx@@YAXXZ 10001d40 f   GuContactCapsuleCapsule.obj
 0001:00000d50       ??__EmaxV4Error@_VecMathTests@aos@shdfnd@physx@@YAXXZ 10001d50 f   GuContactCapsuleCapsule.obj
 0001:00000d70       ??__EminFError@_VecMathTests@aos@shdfnd@physx@@YAXXZ 10001d70 f   GuContactCapsuleCapsule.obj
 0001:00000d90       ??__EminV3Error@_VecMathTests@aos@shdfnd@physx@@YAXXZ 10001d90 f   GuContactCapsuleCapsule.obj
 0001:00000da0       ??__EminV4Error@_VecMathTests@aos@shdfnd@physx@@YAXXZ 10001da0 f   GuContactCapsuleCapsule.obj
 0001:00000dc0       ??__EmaxFError@_VecMathTests@aos@shdfnd@physx@@YAXXZ 10001dc0 f   GuContactCapsuleConvex.obj
 0001:00000de0       ??__EmaxV3Error@_VecMathTests@aos@shdfnd@physx@@YAXXZ 10001de0 f   GuContactCapsuleConvex.obj
 0001:00000df0       ??__EmaxV4Error@_VecMathTests@aos@shdfnd@physx@@YAXXZ 10001df0 f   GuContactCapsuleConvex.obj
 0001:00000e10       ??__EminFError@_VecMathTests@aos@shdfnd@physx@@YAXXZ 10001e10 f   GuContactCapsuleConvex.obj
 0001:00000e30       ??__EminV3Error@_VecMathTests@aos@shdfnd@physx@@YAXXZ 10001e30 f   GuContactCapsuleConvex.obj
 0001:00000e40       ??__EminV4Error@_VecMathTests@aos@shdfnd@physx@@YAXXZ 10001e40 f   GuContactCapsuleConvex.obj
 0001:00000e60       ??__EmaxFError@_VecMathTests@aos@shdfnd@physx@@YAXXZ 10001e60 f   GuContactCapsuleMesh.obj
 0001:00000e80       ??__EmaxV3Error@_VecMathTests@aos@shdfnd@physx@@YAXXZ 10001e80 f   GuContactCapsuleMesh.obj
 0001:00000e90       ??__EmaxV4Error@_VecMathTests@aos@shdfnd@physx@@YAXXZ 10001e90 f   GuContactCapsuleMesh.obj
 0001:00000eb0       ??__EminFError@_VecMathTests@aos@shdfnd@physx@@YAXXZ 10001eb0 f   GuContactCapsuleMesh.obj
 0001:00000ed0       ??__EminV3Error@_VecMathTests@aos@shdfnd@physx@@YAXXZ 10001ed0 f   GuContactCapsuleMesh.obj
 0001:00000ee0       ??__EminV4Error@_VecMathTests@aos@shdfnd@physx@@YAXXZ 10001ee0 f   GuContactCapsuleMesh.obj
 0001:00000f00       ??__EmaxFError@_VecMathTests@aos@shdfnd@physx@@YAXXZ 10001f00 f   GuContactConvexConvex.obj
 0001:00000f20       ??__EmaxV3Error@_VecMathTests@aos@shdfnd@physx@@YAXXZ 10001f20 f   GuContactConvexConvex.obj
 0001:00000f30       ??__EmaxV4Error@_VecMathTests@aos@shdfnd@physx@@YAXXZ 10001f30 f   GuContactConvexConvex.obj
 0001:00000f50       ??__EminFError@_VecMathTests@aos@shdfnd@physx@@YAXXZ 10001f50 f   GuContactConvexConvex.obj
 0001:00000f70       ??__EminV3Error@_VecMathTests@aos@shdfnd@physx@@YAXXZ 10001f70 f   GuContactConvexConvex.obj
 0001:00000f80       ??__EminV4Error@_VecMathTests@aos@shdfnd@physx@@YAXXZ 10001f80 f   GuContactConvexConvex.obj
 0001:00000fa0       ??__EmaxFError@_VecMathTests@aos@shdfnd@physx@@YAXXZ 10001fa0 f   GuContactConvexMesh.obj
 0001:00000fc0       ??__EmaxV3Error@_VecMathTests@aos@shdfnd@physx@@YAXXZ 10001fc0 f   GuContactConvexMesh.obj
 0001:00000fd0       ??__EmaxV4Error@_VecMathTests@aos@shdfnd@physx@@YAXXZ 10001fd0 f   GuContactConvexMesh.obj
 0001:00001000       ??__EminFError@_VecMathTests@aos@shdfnd@physx@@YAXXZ 10002000 f   GuContactConvexMesh.obj
 0001:00001020       ??__EminV3Error@_VecMathTests@aos@shdfnd@physx@@YAXXZ 10002020 f   GuContactConvexMesh.obj
 0001:00001030       ??__EminV4Error@_VecMathTests@aos@shdfnd@physx@@YAXXZ 10002030 f   GuContactConvexMesh.obj
 0001:00001050       ??__EmaxFError@_VecMathTests@aos@shdfnd@physx@@YAXXZ 10002050 f   GuContactPlaneBox.obj
 0001:00001070       ??__EmaxV3Error@_VecMathTests@aos@shdfnd@physx@@YAXXZ 10002070 f   GuContactPlaneBox.obj
 0001:00001080       ??__EmaxV4Error@_VecMathTests@aos@shdfnd@physx@@YAXXZ 10002080 f   GuContactPlaneBox.obj
 0001:000010a0       ??__EminFError@_VecMathTests@aos@shdfnd@physx@@YAXXZ 100020a0 f   GuContactPlaneBox.obj
 0001:000010c0       ??__EminV3Error@_VecMathTests@aos@shdfnd@physx@@YAXXZ 100020c0 f   GuContactPlaneBox.obj
 0001:000010d0       ??__EminV4Error@_VecMathTests@aos@shdfnd@physx@@YAXXZ 100020d0 f   GuContactPlaneBox.obj
 0001:000010f0       ??__EmaxFError@_VecMathTests@aos@shdfnd@physx@@YAXXZ 100020f0 f   GuContactPlaneCapsule.obj
 0001:00001110       ??__EmaxV3Error@_VecMathTests@aos@shdfnd@physx@@YAXXZ 10002110 f   GuContactPlaneCapsule.obj
 0001:00001120       ??__EmaxV4Error@_VecMathTests@aos@shdfnd@physx@@YAXXZ 10002120 f   GuContactPlaneCapsule.obj
 0001:00001140       ??__EminFError@_VecMathTests@aos@shdfnd@physx@@YAXXZ 10002140 f   GuContactPlaneCapsule.obj
 0001:00001160       ??__EminV3Error@_VecMathTests@aos@shdfnd@physx@@YAXXZ 10002160 f   GuContactPlaneCapsule.obj
 0001:00001170       ??__EminV4Error@_VecMathTests@aos@shdfnd@physx@@YAXXZ 10002170 f   GuContactPlaneCapsule.obj
 0001:00001190       ??__EmaxFError@_VecMathTests@aos@shdfnd@physx@@YAXXZ 10002190 f   GuContactPlaneConvex.obj
 0001:000011b0       ??__EmaxV3Error@_VecMathTests@aos@shdfnd@physx@@YAXXZ 100021b0 f   GuContactPlaneConvex.obj
 0001:000011c0       ??__EmaxV4Error@_VecMathTests@aos@shdfnd@physx@@YAXXZ 100021c0 f   GuContactPlaneConvex.obj
 0001:000011e0       ??__EminFError@_VecMathTests@aos@shdfnd@physx@@YAXXZ 100021e0 f   GuContactPlaneConvex.obj
 0001:00001200       ??__EminV3Error@_VecMathTests@aos@shdfnd@physx@@YAXXZ 10002200 f   GuContactPlaneConvex.obj
 0001:00001210       ??__EminV4Error@_VecMathTests@aos@shdfnd@physx@@YAXXZ 10002210 f   GuContactPlaneConvex.obj
 0001:00001230       ??__EmaxFError@_VecMathTests@aos@shdfnd@physx@@YAXXZ 10002230 f   GuContactSphereBox.obj
 0001:00001250       ??__EmaxV3Error@_VecMathTests@aos@shdfnd@physx@@YAXXZ 10002250 f   GuContactSphereBox.obj
 0001:00001260       ??__EmaxV4Error@_VecMathTests@aos@shdfnd@physx@@YAXXZ 10002260 f   GuContactSphereBox.obj
 0001:00001280       ??__EminFError@_VecMathTests@aos@shdfnd@physx@@YAXXZ 10002280 f   GuContactSphereBox.obj
 0001:000012a0       ??__EminV3Error@_VecMathTests@aos@shdfnd@physx@@YAXXZ 100022a0 f   GuContactSphereBox.obj
 0001:000012b0       ??__EminV4Error@_VecMathTests@aos@shdfnd@physx@@YAXXZ 100022b0 f   GuContactSphereBox.obj
 0001:000012d0       ??__EmaxFError@_VecMathTests@aos@shdfnd@physx@@YAXXZ 100022d0 f   GuContactSphereCapsule.obj
 0001:000012f0       ??__EmaxV3Error@_VecMathTests@aos@shdfnd@physx@@YAXXZ 100022f0 f   GuContactSphereCapsule.obj
 0001:00001300       ??__EmaxV4Error@_VecMathTests@aos@shdfnd@physx@@YAXXZ 10002300 f   GuContactSphereCapsule.obj
 0001:00001320       ??__EminFError@_VecMathTests@aos@shdfnd@physx@@YAXXZ 10002320 f   GuContactSphereCapsule.obj
 0001:00001340       ??__EminV3Error@_VecMathTests@aos@shdfnd@physx@@YAXXZ 10002340 f   GuContactSphereCapsule.obj
 0001:00001350       ??__EminV4Error@_VecMathTests@aos@shdfnd@physx@@YAXXZ 10002350 f   GuContactSphereCapsule.obj
 0001:00001370       ??__EmaxFError@_VecMathTests@aos@shdfnd@physx@@YAXXZ 10002370 f   GuContactSphereMesh.obj
 0001:00001390       ??__EmaxV3Error@_VecMathTests@aos@shdfnd@physx@@YAXXZ 10002390 f   GuContactSphereMesh.obj
 0001:000013a0       ??__EmaxV4Error@_VecMathTests@aos@shdfnd@physx@@YAXXZ 100023a0 f   GuContactSphereMesh.obj
 0001:000013c0       ??__EminFError@_VecMathTests@aos@shdfnd@physx@@YAXXZ 100023c0 f   GuContactSphereMesh.obj
 0001:000013e0       ??__EminV3Error@_VecMathTests@aos@shdfnd@physx@@YAXXZ 100023e0 f   GuContactSphereMesh.obj
 0001:000013f0       ??__EminV4Error@_VecMathTests@aos@shdfnd@physx@@YAXXZ 100023f0 f   GuContactSphereMesh.obj
 0001:00001410       ??__EmaxFError@_VecMathTests@aos@shdfnd@physx@@YAXXZ 10002410 f   GuContactSpherePlane.obj
 0001:00001430       ??__EmaxV3Error@_VecMathTests@aos@shdfnd@physx@@YAXXZ 10002430 f   GuContactSpherePlane.obj
 0001:00001440       ??__EmaxV4Error@_VecMathTests@aos@shdfnd@physx@@YAXXZ 10002440 f   GuContactSpherePlane.obj
 0001:00001460       ??__EminFError@_VecMathTests@aos@shdfnd@physx@@YAXXZ 10002460 f   GuContactSpherePlane.obj
 0001:00001480       ??__EminV3Error@_VecMathTests@aos@shdfnd@physx@@YAXXZ 10002480 f   GuContactSpherePlane.obj
 0001:00001490       ??__EminV4Error@_VecMathTests@aos@shdfnd@physx@@YAXXZ 10002490 f   GuContactSpherePlane.obj
 0001:000014b0       ??__EmaxFError@_VecMathTests@aos@shdfnd@physx@@YAXXZ 100024b0 f   GuContactSphereSphere.obj
 0001:000014d0       ??__EmaxV3Error@_VecMathTests@aos@shdfnd@physx@@YAXXZ 100024d0 f   GuContactSphereSphere.obj
 0001:000014e0       ??__EmaxV4Error@_VecMathTests@aos@shdfnd@physx@@YAXXZ 100024e0 f   GuContactSphereSphere.obj
 0001:00001500       ??__EminFError@_VecMathTests@aos@shdfnd@physx@@YAXXZ 10002500 f   GuContactSphereSphere.obj
 0001:00001520       ??__EminV3Error@_VecMathTests@aos@shdfnd@physx@@YAXXZ 10002520 f   GuContactSphereSphere.obj
 0001:00001530       ??__EminV4Error@_VecMathTests@aos@shdfnd@physx@@YAXXZ 10002530 f   GuContactSphereSphere.obj
 0001:00001550       ??__EmaxFError@_VecMathTests@aos@shdfnd@physx@@YAXXZ 10002550 f   GuConvexHelper.obj
 0001:00001570       ??__EmaxV3Error@_VecMathTests@aos@shdfnd@physx@@YAXXZ 10002570 f   GuConvexHelper.obj
 0001:00001580       ??__EmaxV4Error@_VecMathTests@aos@shdfnd@physx@@YAXXZ 10002580 f   GuConvexHelper.obj
 0001:000015a0       ??__EminFError@_VecMathTests@aos@shdfnd@physx@@YAXXZ 100025a0 f   GuConvexHelper.obj
 0001:000015c0       ??__EminV3Error@_VecMathTests@aos@shdfnd@physx@@YAXXZ 100025c0 f   GuConvexHelper.obj
 0001:000015d0       ??__EminV4Error@_VecMathTests@aos@shdfnd@physx@@YAXXZ 100025d0 f   GuConvexHelper.obj
 0001:000015f0       ??__EboxVertexTable@physx@@YAXXZ 100025f0 f   GuConvexSupportTable.obj
 0001:00001660       ??__EmaxFError@_VecMathTests@aos@shdfnd@physx@@YAXXZ 10002660 f   GuConvexSupportTable.obj
 0001:00001680       ??__EmaxV3Error@_VecMathTests@aos@shdfnd@physx@@YAXXZ 10002680 f   GuConvexSupportTable.obj
 0001:00001690       ??__EmaxV4Error@_VecMathTests@aos@shdfnd@physx@@YAXXZ 10002690 f   GuConvexSupportTable.obj
 0001:000016b0       ??__EminFError@_VecMathTests@aos@shdfnd@physx@@YAXXZ 100026b0 f   GuConvexSupportTable.obj
 0001:000016d0       ??__EminV3Error@_VecMathTests@aos@shdfnd@physx@@YAXXZ 100026d0 f   GuConvexSupportTable.obj
 0001:000016e0       ??__EminV4Error@_VecMathTests@aos@shdfnd@physx@@YAXXZ 100026e0 f   GuConvexSupportTable.obj
 0001:00001700       ??__EmaxFError@_VecMathTests@aos@shdfnd@physx@@YAXXZ 10002700 f   GuConvexUtilsInternal.obj
 0001:00001720       ??__EmaxV3Error@_VecMathTests@aos@shdfnd@physx@@YAXXZ 10002720 f   GuConvexUtilsInternal.obj
 0001:00001730       ??__EmaxV4Error@_VecMathTests@aos@shdfnd@physx@@YAXXZ 10002730 f   GuConvexUtilsInternal.obj
 0001:00001750       ??__EminFError@_VecMathTests@aos@shdfnd@physx@@YAXXZ 10002750 f   GuConvexUtilsInternal.obj
 0001:00001770       ??__EminV3Error@_VecMathTests@aos@shdfnd@physx@@YAXXZ 10002770 f   GuConvexUtilsInternal.obj
 0001:00001780       ??__EminV4Error@_VecMathTests@aos@shdfnd@physx@@YAXXZ 10002780 f   GuConvexUtilsInternal.obj
 0001:000017a0       ??__EmaxFError@_VecMathTests@aos@shdfnd@physx@@YAXXZ 100027a0 f   GuDistancePointTriangle.obj
 0001:000017c0       ??__EmaxV3Error@_VecMathTests@aos@shdfnd@physx@@YAXXZ 100027c0 f   GuDistancePointTriangle.obj
 0001:000017d0       ??__EmaxV4Error@_VecMathTests@aos@shdfnd@physx@@YAXXZ 100027d0 f   GuDistancePointTriangle.obj
 0001:000017f0       ??__EminFError@_VecMathTests@aos@shdfnd@physx@@YAXXZ 100027f0 f   GuDistancePointTriangle.obj
 0001:00001810       ??__EminV3Error@_VecMathTests@aos@shdfnd@physx@@YAXXZ 10002810 f   GuDistancePointTriangle.obj
 0001:00001820       ??__EminV4Error@_VecMathTests@aos@shdfnd@physx@@YAXXZ 10002820 f   GuDistancePointTriangle.obj
 0001:00001840       ??__EmaxFError@_VecMathTests@aos@shdfnd@physx@@YAXXZ 10002840 f   GuDistanceSegmentSegment.obj
 0001:00001860       ??__EmaxV3Error@_VecMathTests@aos@shdfnd@physx@@YAXXZ 10002860 f   GuDistanceSegmentSegment.obj
 0001:00001870       ??__EmaxV4Error@_VecMathTests@aos@shdfnd@physx@@YAXXZ 10002870 f   GuDistanceSegmentSegment.obj
 0001:00001890       ??__EminFError@_VecMathTests@aos@shdfnd@physx@@YAXXZ 10002890 f   GuDistanceSegmentSegment.obj
 0001:000018b0       ??__EminV3Error@_VecMathTests@aos@shdfnd@physx@@YAXXZ 100028b0 f   GuDistanceSegmentSegment.obj
 0001:000018c0       ??__EminV4Error@_VecMathTests@aos@shdfnd@physx@@YAXXZ 100028c0 f   GuDistanceSegmentSegment.obj
 0001:000018e0       ??__EmaxFError@_VecMathTests@aos@shdfnd@physx@@YAXXZ 100028e0 f   GuDistanceSegmentTriangle.obj
 0001:00001900       ??__EmaxV3Error@_VecMathTests@aos@shdfnd@physx@@YAXXZ 10002900 f   GuDistanceSegmentTriangle.obj
 0001:00001910       ??__EmaxV4Error@_VecMathTests@aos@shdfnd@physx@@YAXXZ 10002910 f   GuDistanceSegmentTriangle.obj
 0001:00001930       ??__EminFError@_VecMathTests@aos@shdfnd@physx@@YAXXZ 10002930 f   GuDistanceSegmentTriangle.obj
 0001:00001950       ??__EminV3Error@_VecMathTests@aos@shdfnd@physx@@YAXXZ 10002950 f   GuDistanceSegmentTriangle.obj
 0001:00001960       ??__EminV4Error@_VecMathTests@aos@shdfnd@physx@@YAXXZ 10002960 f   GuDistanceSegmentTriangle.obj
 0001:00001980       ??__EmaxFError@_VecMathTests@aos@shdfnd@physx@@YAXXZ 10002980 f   GuEPA.obj
 0001:000019a0       ??__EmaxV3Error@_VecMathTests@aos@shdfnd@physx@@YAXXZ 100029a0 f   GuEPA.obj
 0001:000019b0       ??__EmaxV4Error@_VecMathTests@aos@shdfnd@physx@@YAXXZ 100029b0 f   GuEPA.obj
 0001:000019d0       ??__EminFError@_VecMathTests@aos@shdfnd@physx@@YAXXZ 100029d0 f   GuEPA.obj
 0001:000019f0       ??__EminV3Error@_VecMathTests@aos@shdfnd@physx@@YAXXZ 100029f0 f   GuEPA.obj
 0001:00001a00       ??__EminV4Error@_VecMathTests@aos@shdfnd@physx@@YAXXZ 10002a00 f   GuEPA.obj
 0001:00001a20       ??__EmaxFError@_VecMathTests@aos@shdfnd@physx@@YAXXZ 10002a20 f   GuGJKSimplex.obj
 0001:00001a40       ??__EmaxV3Error@_VecMathTests@aos@shdfnd@physx@@YAXXZ 10002a40 f   GuGJKSimplex.obj
 0001:00001a50       ??__EmaxV4Error@_VecMathTests@aos@shdfnd@physx@@YAXXZ 10002a50 f   GuGJKSimplex.obj
 0001:00001a70       ??__EminFError@_VecMathTests@aos@shdfnd@physx@@YAXXZ 10002a70 f   GuGJKSimplex.obj
 0001:00001a90       ??__EminV3Error@_VecMathTests@aos@shdfnd@physx@@YAXXZ 10002a90 f   GuGJKSimplex.obj
 0001:00001aa0       ??__EminV4Error@_VecMathTests@aos@shdfnd@physx@@YAXXZ 10002aa0 f   GuGJKSimplex.obj
 0001:00001ac0       ??__EmaxFError@_VecMathTests@aos@shdfnd@physx@@YAXXZ 10002ac0 f   GuGJKTest.obj
 0001:00001ae0       ??__EmaxV3Error@_VecMathTests@aos@shdfnd@physx@@YAXXZ 10002ae0 f   GuGJKTest.obj
 0001:00001af0       ??__EmaxV4Error@_VecMathTests@aos@shdfnd@physx@@YAXXZ 10002af0 f   GuGJKTest.obj
 0001:00001b10       ??__EminFError@_VecMathTests@aos@shdfnd@physx@@YAXXZ 10002b10 f   GuGJKTest.obj
 0001:00001b30       ??__EminV3Error@_VecMathTests@aos@shdfnd@physx@@YAXXZ 10002b30 f   GuGJKTest.obj
 0001:00001b40       ??__EminV4Error@_VecMathTests@aos@shdfnd@physx@@YAXXZ 10002b40 f   GuGJKTest.obj
 0001:00001b60       ??__EmaxFError@_VecMathTests@aos@shdfnd@physx@@YAXXZ 10002b60 f   GuHeightFieldUtil.obj
 0001:00001b80       ??__EmaxV3Error@_VecMathTests@aos@shdfnd@physx@@YAXXZ 10002b80 f   GuHeightFieldUtil.obj
 0001:00001b90       ??__EmaxV4Error@_VecMathTests@aos@shdfnd@physx@@YAXXZ 10002b90 f   GuHeightFieldUtil.obj
 0001:00001bb0       ??__EminFError@_VecMathTests@aos@shdfnd@physx@@YAXXZ 10002bb0 f   GuHeightFieldUtil.obj
 0001:00001bd0       ??__EminV3Error@_VecMathTests@aos@shdfnd@physx@@YAXXZ 10002bd0 f   GuHeightFieldUtil.obj
 0001:00001be0       ??__EminV4Error@_VecMathTests@aos@shdfnd@physx@@YAXXZ 10002be0 f   GuHeightFieldUtil.obj
 0001:00001c00       ??__EmaxFError@_VecMathTests@aos@shdfnd@physx@@YAXXZ 10002c00 f   GuOverlapTestsHF.obj
 0001:00001c20       ??__EmaxV3Error@_VecMathTests@aos@shdfnd@physx@@YAXXZ 10002c20 f   GuOverlapTestsHF.obj
 0001:00001c30       ??__EmaxV4Error@_VecMathTests@aos@shdfnd@physx@@YAXXZ 10002c30 f   GuOverlapTestsHF.obj
 0001:00001c50       ??__EminFError@_VecMathTests@aos@shdfnd@physx@@YAXXZ 10002c50 f   GuOverlapTestsHF.obj
 0001:00001c70       ??__EminV3Error@_VecMathTests@aos@shdfnd@physx@@YAXXZ 10002c70 f   GuOverlapTestsHF.obj
 0001:00001c80       ??__EminV4Error@_VecMathTests@aos@shdfnd@physx@@YAXXZ 10002c80 f   GuOverlapTestsHF.obj
 0001:00001ca0       ??__EmaxFError@_VecMathTests@aos@shdfnd@physx@@YAXXZ 10002ca0 f   GuSweepsHF.obj
 0001:00001cc0       ??__EmaxV3Error@_VecMathTests@aos@shdfnd@physx@@YAXXZ 10002cc0 f   GuSweepsHF.obj
 0001:00001cd0       ??__EmaxV4Error@_VecMathTests@aos@shdfnd@physx@@YAXXZ 10002cd0 f   GuSweepsHF.obj
 0001:00001cf0       ??__EminFError@_VecMathTests@aos@shdfnd@physx@@YAXXZ 10002cf0 f   GuSweepsHF.obj
 0001:00001d10       ??__EminV3Error@_VecMathTests@aos@shdfnd@physx@@YAXXZ 10002d10 f   GuSweepsHF.obj
 0001:00001d20       ??__EminV4Error@_VecMathTests@aos@shdfnd@physx@@YAXXZ 10002d20 f   GuSweepsHF.obj
 0001:00001d40       ??__EmaxFError@_VecMathTests@aos@shdfnd@physx@@YAXXZ 10002d40 f   GuIntersectionRayBox.obj
 0001:00001d60       ??__EmaxV3Error@_VecMathTests@aos@shdfnd@physx@@YAXXZ 10002d60 f   GuIntersectionRayBox.obj
 0001:00001d70       ??__EmaxV4Error@_VecMathTests@aos@shdfnd@physx@@YAXXZ 10002d70 f   GuIntersectionRayBox.obj
 0001:00001d90       ??__EminFError@_VecMathTests@aos@shdfnd@physx@@YAXXZ 10002d90 f   GuIntersectionRayBox.obj
 0001:00001db0       ??__EminV3Error@_VecMathTests@aos@shdfnd@physx@@YAXXZ 10002db0 f   GuIntersectionRayBox.obj
 0001:00001dc0       ??__EminV4Error@_VecMathTests@aos@shdfnd@physx@@YAXXZ 10002dc0 f   GuIntersectionRayBox.obj
 0001:00001de0       ??__EmaxFError@_VecMathTests@aos@shdfnd@physx@@YAXXZ 10002de0 f   GuIntersectionTriangleBox.obj
 0001:00001e00       ??__EmaxV3Error@_VecMathTests@aos@shdfnd@physx@@YAXXZ 10002e00 f   GuIntersectionTriangleBox.obj
 0001:00001e10       ??__EmaxV4Error@_VecMathTests@aos@shdfnd@physx@@YAXXZ 10002e10 f   GuIntersectionTriangleBox.obj
 0001:00001e30       ??__EminFError@_VecMathTests@aos@shdfnd@physx@@YAXXZ 10002e30 f   GuIntersectionTriangleBox.obj
 0001:00001e50       ??__EminV3Error@_VecMathTests@aos@shdfnd@physx@@YAXXZ 10002e50 f   GuIntersectionTriangleBox.obj
 0001:00001e60       ??__EminV4Error@_VecMathTests@aos@shdfnd@physx@@YAXXZ 10002e60 f   GuIntersectionTriangleBox.obj
 0001:00001e80       ??__EmaxFError@_VecMathTests@aos@shdfnd@physx@@YAXXZ 10002e80 f   GuBV4.obj
 0001:00001ea0       ??__EmaxV3Error@_VecMathTests@aos@shdfnd@physx@@YAXXZ 10002ea0 f   GuBV4.obj
 0001:00001eb0       ??__EmaxV4Error@_VecMathTests@aos@shdfnd@physx@@YAXXZ 10002eb0 f   GuBV4.obj
 0001:00001ed0       ??__EminFError@_VecMathTests@aos@shdfnd@physx@@YAXXZ 10002ed0 f   GuBV4.obj
 0001:00001ef0       ??__EminV3Error@_VecMathTests@aos@shdfnd@physx@@YAXXZ 10002ef0 f   GuBV4.obj
 0001:00001f00       ??__EminV4Error@_VecMathTests@aos@shdfnd@physx@@YAXXZ 10002f00 f   GuBV4.obj
 0001:00001f20       ??__EmaxFError@_VecMathTests@aos@shdfnd@physx@@YAXXZ 10002f20 f   GuBV4Build.obj
 0001:00001f40       ??__EmaxV3Error@_VecMathTests@aos@shdfnd@physx@@YAXXZ 10002f40 f   GuBV4Build.obj
 0001:00001f50       ??__EmaxV4Error@_VecMathTests@aos@shdfnd@physx@@YAXXZ 10002f50 f   GuBV4Build.obj
 0001:00001f70       ??__EminFError@_VecMathTests@aos@shdfnd@physx@@YAXXZ 10002f70 f   GuBV4Build.obj
 0001:00001f90       ??__EminV3Error@_VecMathTests@aos@shdfnd@physx@@YAXXZ 10002f90 f   GuBV4Build.obj
 0001:00001fa0       ??__EminV4Error@_VecMathTests@aos@shdfnd@physx@@YAXXZ 10002fa0 f   GuBV4Build.obj
 0001:00001fc0       ??__EepsFloat4@?A0xae90c113@@YAXXZ 10002fc0 f   GuBV4_AABBSweep.obj
 0001:00001fe0       ??__EepsInflateFloat4@?A0xae90c113@@YAXXZ 10002fe0 f   GuBV4_AABBSweep.obj
 0001:00002000       ??__EmaxFError@_VecMathTests@aos@shdfnd@physx@@YAXXZ 10003000 f   GuBV4_AABBSweep.obj
 0001:00002020       ??__EmaxV3Error@_VecMathTests@aos@shdfnd@physx@@YAXXZ 10003020 f   GuBV4_AABBSweep.obj
 0001:00002030       ??__EmaxV4Error@_VecMathTests@aos@shdfnd@physx@@YAXXZ 10003030 f   GuBV4_AABBSweep.obj
 0001:00002050       ??__EminFError@_VecMathTests@aos@shdfnd@physx@@YAXXZ 10003050 f   GuBV4_AABBSweep.obj
 0001:00002070       ??__EminV3Error@_VecMathTests@aos@shdfnd@physx@@YAXXZ 10003070 f   GuBV4_AABBSweep.obj
 0001:00002080       ??__EminV4Error@_VecMathTests@aos@shdfnd@physx@@YAXXZ 10003080 f   GuBV4_AABBSweep.obj
 0001:000020a0       ??__Etwos@?A0xae90c113@@YAXXZ 100030a0 f   GuBV4_AABBSweep.obj
 0001:000020c0       ??__Ezeroes@?A0xae90c113@@YAXXZ 100030c0 f   GuBV4_AABBSweep.obj
 0001:000020d0       ??__EmaxFError@_VecMathTests@aos@shdfnd@physx@@YAXXZ 100030d0 f   GuBV4_BoxOverlap.obj
 0001:000020f0       ??__EmaxV3Error@_VecMathTests@aos@shdfnd@physx@@YAXXZ 100030f0 f   GuBV4_BoxOverlap.obj
 0001:00002100       ??__EmaxV4Error@_VecMathTests@aos@shdfnd@physx@@YAXXZ 10003100 f   GuBV4_BoxOverlap.obj
 0001:00002120       ??__EminFError@_VecMathTests@aos@shdfnd@physx@@YAXXZ 10003120 f   GuBV4_BoxOverlap.obj
 0001:00002140       ??__EminV3Error@_VecMathTests@aos@shdfnd@physx@@YAXXZ 10003140 f   GuBV4_BoxOverlap.obj
 0001:00002150       ??__EminV4Error@_VecMathTests@aos@shdfnd@physx@@YAXXZ 10003150 f   GuBV4_BoxOverlap.obj
 0001:00002170       ??__EmaxFError@_VecMathTests@aos@shdfnd@physx@@YAXXZ 10003170 f   GuBV4_CapsuleSweep.obj
 0001:00002190       ??__EmaxV3Error@_VecMathTests@aos@shdfnd@physx@@YAXXZ 10003190 f   GuBV4_CapsuleSweep.obj
 0001:000021a0       ??__EmaxV4Error@_VecMathTests@aos@shdfnd@physx@@YAXXZ 100031a0 f   GuBV4_CapsuleSweep.obj
 0001:000021c0       ??__EminFError@_VecMathTests@aos@shdfnd@physx@@YAXXZ 100031c0 f   GuBV4_CapsuleSweep.obj
 0001:000021e0       ??__EminV3Error@_VecMathTests@aos@shdfnd@physx@@YAXXZ 100031e0 f   GuBV4_CapsuleSweep.obj
 0001:000021f0       ??__EminV4Error@_VecMathTests@aos@shdfnd@physx@@YAXXZ 100031f0 f   GuBV4_CapsuleSweep.obj
 0001:00002210       ??__EepsFloat4@?A0x21337578@@YAXXZ 10003210 f   GuBV4_CapsuleSweepAA.obj
 0001:00002230       ??__EepsInflateFloat4@?A0x21337578@@YAXXZ 10003230 f   GuBV4_CapsuleSweepAA.obj
 0001:00002250       ??__EmaxFError@_VecMathTests@aos@shdfnd@physx@@YAXXZ 10003250 f   GuBV4_CapsuleSweepAA.obj
 0001:00002270       ??__EmaxV3Error@_VecMathTests@aos@shdfnd@physx@@YAXXZ 10003270 f   GuBV4_CapsuleSweepAA.obj
 0001:00002280       ??__EmaxV4Error@_VecMathTests@aos@shdfnd@physx@@YAXXZ 10003280 f   GuBV4_CapsuleSweepAA.obj
 0001:000022a0       ??__EminFError@_VecMathTests@aos@shdfnd@physx@@YAXXZ 100032a0 f   GuBV4_CapsuleSweepAA.obj
 0001:000022c0       ??__EminV3Error@_VecMathTests@aos@shdfnd@physx@@YAXXZ 100032c0 f   GuBV4_CapsuleSweepAA.obj
 0001:000022d0       ??__EminV4Error@_VecMathTests@aos@shdfnd@physx@@YAXXZ 100032d0 f   GuBV4_CapsuleSweepAA.obj
 0001:000022f0       ??__Etwos@?A0x21337578@@YAXXZ 100032f0 f   GuBV4_CapsuleSweepAA.obj
 0001:00002310       ??__Ezeroes@?A0x21337578@@YAXXZ 10003310 f   GuBV4_CapsuleSweepAA.obj
 0001:00002320       ??__EmaxFError@_VecMathTests@aos@shdfnd@physx@@YAXXZ 10003320 f   GuBV4_OBBSweep.obj
 0001:00002340       ??__EmaxV3Error@_VecMathTests@aos@shdfnd@physx@@YAXXZ 10003340 f   GuBV4_OBBSweep.obj
 0001:00002350       ??__EmaxV4Error@_VecMathTests@aos@shdfnd@physx@@YAXXZ 10003350 f   GuBV4_OBBSweep.obj
 0001:00002370       ??__EminFError@_VecMathTests@aos@shdfnd@physx@@YAXXZ 10003370 f   GuBV4_OBBSweep.obj
 0001:00002390       ??__EminV3Error@_VecMathTests@aos@shdfnd@physx@@YAXXZ 10003390 f   GuBV4_OBBSweep.obj
 0001:000023a0       ??__EminV4Error@_VecMathTests@aos@shdfnd@physx@@YAXXZ 100033a0 f   GuBV4_OBBSweep.obj
 0001:000023c0       ??__EepsFloat4@?A0x248cb8cd@@YAXXZ 100033c0 f   GuBV4_Raycast.obj
 0001:000023e0       ??__EepsInflateFloat4@?A0x248cb8cd@@YAXXZ 100033e0 f   GuBV4_Raycast.obj
 0001:00002400       ??__EmaxFError@_VecMathTests@aos@shdfnd@physx@@YAXXZ 10003400 f   GuBV4_Raycast.obj
 0001:00002420       ??__EmaxV3Error@_VecMathTests@aos@shdfnd@physx@@YAXXZ 10003420 f   GuBV4_Raycast.obj
 0001:00002430       ??__EmaxV4Error@_VecMathTests@aos@shdfnd@physx@@YAXXZ 10003430 f   GuBV4_Raycast.obj
 0001:00002450       ??__EminFError@_VecMathTests@aos@shdfnd@physx@@YAXXZ 10003450 f   GuBV4_Raycast.obj
 0001:00002470       ??__EminV3Error@_VecMathTests@aos@shdfnd@physx@@YAXXZ 10003470 f   GuBV4_Raycast.obj
 0001:00002480       ??__EminV4Error@_VecMathTests@aos@shdfnd@physx@@YAXXZ 10003480 f   GuBV4_Raycast.obj
 0001:000024a0       ??__Etwos@?A0x248cb8cd@@YAXXZ 100034a0 f   GuBV4_Raycast.obj
 0001:000024c0       ??__Ezeroes@?A0x248cb8cd@@YAXXZ 100034c0 f   GuBV4_Raycast.obj
 0001:000024d0       ??__EmaxFError@_VecMathTests@aos@shdfnd@physx@@YAXXZ 100034d0 f   GuBV4_SphereOverlap.obj
 0001:000024f0       ??__EmaxV3Error@_VecMathTests@aos@shdfnd@physx@@YAXXZ 100034f0 f   GuBV4_SphereOverlap.obj
 0001:00002500       ??__EmaxV4Error@_VecMathTests@aos@shdfnd@physx@@YAXXZ 10003500 f   GuBV4_SphereOverlap.obj
 0001:00002520       ??__EminFError@_VecMathTests@aos@shdfnd@physx@@YAXXZ 10003520 f   GuBV4_SphereOverlap.obj
 0001:00002540       ??__EminV3Error@_VecMathTests@aos@shdfnd@physx@@YAXXZ 10003540 f   GuBV4_SphereOverlap.obj
 0001:00002550       ??__EminV4Error@_VecMathTests@aos@shdfnd@physx@@YAXXZ 10003550 f   GuBV4_SphereOverlap.obj
 0001:00002570       ??__EepsFloat4@?A0x323bc204@@YAXXZ 10003570 f   GuBV4_SphereSweep.obj
 0001:00002590       ??__EepsInflateFloat4@?A0x323bc204@@YAXXZ 10003590 f   GuBV4_SphereSweep.obj
 0001:000025b0       ??__EmaxFError@_VecMathTests@aos@shdfnd@physx@@YAXXZ 100035b0 f   GuBV4_SphereSweep.obj
 0001:000025d0       ??__EmaxV3Error@_VecMathTests@aos@shdfnd@physx@@YAXXZ 100035d0 f   GuBV4_SphereSweep.obj
 0001:000025e0       ??__EmaxV4Error@_VecMathTests@aos@shdfnd@physx@@YAXXZ 100035e0 f   GuBV4_SphereSweep.obj
 0001:00002600       ??__EminFError@_VecMathTests@aos@shdfnd@physx@@YAXXZ 10003600 f   GuBV4_SphereSweep.obj
 0001:00002620       ??__EminV3Error@_VecMathTests@aos@shdfnd@physx@@YAXXZ 10003620 f   GuBV4_SphereSweep.obj
 0001:00002630       ??__EminV4Error@_VecMathTests@aos@shdfnd@physx@@YAXXZ 10003630 f   GuBV4_SphereSweep.obj
 0001:00002650       ??__Etwos@?A0x323bc204@@YAXXZ 10003650 f   GuBV4_SphereSweep.obj
 0001:00002670       ??__Ezeroes@?A0x323bc204@@YAXXZ 10003670 f   GuBV4_SphereSweep.obj
 0001:00002680       ??__EmaxFError@_VecMathTests@aos@shdfnd@physx@@YAXXZ 10003680 f   GuMidphaseBV4.obj
 0001:000026a0       ??__EmaxV3Error@_VecMathTests@aos@shdfnd@physx@@YAXXZ 100036a0 f   GuMidphaseBV4.obj
 0001:000026b0       ??__EmaxV4Error@_VecMathTests@aos@shdfnd@physx@@YAXXZ 100036b0 f   GuMidphaseBV4.obj
 0001:000026d0       ??__EminFError@_VecMathTests@aos@shdfnd@physx@@YAXXZ 100036d0 f   GuMidphaseBV4.obj
 0001:000026f0       ??__EminV3Error@_VecMathTests@aos@shdfnd@physx@@YAXXZ 100036f0 f   GuMidphaseBV4.obj
 0001:00002700       ??__EminV4Error@_VecMathTests@aos@shdfnd@physx@@YAXXZ 10003700 f   GuMidphaseBV4.obj
 0001:00002720       ??__EmaxFError@_VecMathTests@aos@shdfnd@physx@@YAXXZ 10003720 f   GuMeshQuery.obj
 0001:00002740       ??__EmaxV3Error@_VecMathTests@aos@shdfnd@physx@@YAXXZ 10003740 f   GuMeshQuery.obj
 0001:00002750       ??__EmaxV4Error@_VecMathTests@aos@shdfnd@physx@@YAXXZ 10003750 f   GuMeshQuery.obj
 0001:00002770       ??__EminFError@_VecMathTests@aos@shdfnd@physx@@YAXXZ 10003770 f   GuMeshQuery.obj
 0001:00002790       ??__EminV3Error@_VecMathTests@aos@shdfnd@physx@@YAXXZ 10003790 f   GuMeshQuery.obj
 0001:000027a0       ??__EminV4Error@_VecMathTests@aos@shdfnd@physx@@YAXXZ 100037a0 f   GuMeshQuery.obj
 0001:000027c0       ??__EmaxFError@_VecMathTests@aos@shdfnd@physx@@YAXXZ 100037c0 f   GuMidphaseRTree.obj
 0001:000027e0       ??__EmaxV3Error@_VecMathTests@aos@shdfnd@physx@@YAXXZ 100037e0 f   GuMidphaseRTree.obj
 0001:000027f0       ??__EmaxV4Error@_VecMathTests@aos@shdfnd@physx@@YAXXZ 100037f0 f   GuMidphaseRTree.obj
 0001:00002810       ??__EminFError@_VecMathTests@aos@shdfnd@physx@@YAXXZ 10003810 f   GuMidphaseRTree.obj
 0001:00002830       ??__EminV3Error@_VecMathTests@aos@shdfnd@physx@@YAXXZ 10003830 f   GuMidphaseRTree.obj
 0001:00002840       ??__EminV4Error@_VecMathTests@aos@shdfnd@physx@@YAXXZ 10003840 f   GuMidphaseRTree.obj
 0001:00002860       ??__EmaxFError@_VecMathTests@aos@shdfnd@physx@@YAXXZ 10003860 f   GuOverlapTestsMesh.obj
 0001:00002880       ??__EmaxV3Error@_VecMathTests@aos@shdfnd@physx@@YAXXZ 10003880 f   GuOverlapTestsMesh.obj
 0001:00002890       ??__EmaxV4Error@_VecMathTests@aos@shdfnd@physx@@YAXXZ 10003890 f   GuOverlapTestsMesh.obj
 0001:000028b0       ??__EminFError@_VecMathTests@aos@shdfnd@physx@@YAXXZ 100038b0 f   GuOverlapTestsMesh.obj
 0001:000028d0       ??__EminV3Error@_VecMathTests@aos@shdfnd@physx@@YAXXZ 100038d0 f   GuOverlapTestsMesh.obj
 0001:000028e0       ??__EminV4Error@_VecMathTests@aos@shdfnd@physx@@YAXXZ 100038e0 f   GuOverlapTestsMesh.obj
 0001:00002900       ??__EmaxFError@_VecMathTests@aos@shdfnd@physx@@YAXXZ 10003900 f   GuRTree.obj
 0001:00002920       ??__EmaxV3Error@_VecMathTests@aos@shdfnd@physx@@YAXXZ 10003920 f   GuRTree.obj
 0001:00002930       ??__EmaxV4Error@_VecMathTests@aos@shdfnd@physx@@YAXXZ 10003930 f   GuRTree.obj
 0001:00002950       ??__EminFError@_VecMathTests@aos@shdfnd@physx@@YAXXZ 10003950 f   GuRTree.obj
 0001:00002970       ??__EminV3Error@_VecMathTests@aos@shdfnd@physx@@YAXXZ 10003970 f   GuRTree.obj
 0001:00002980       ??__EminV4Error@_VecMathTests@aos@shdfnd@physx@@YAXXZ 10003980 f   GuRTree.obj
 0001:000029a0       ??__EepsFloat4@?A0xe2f7d28e@@YAXXZ 100039a0 f   GuRTreeQueries.obj
 0001:000029c0       ??__EepsInflateFloat4@?A0xe2f7d28e@@YAXXZ 100039c0 f   GuRTreeQueries.obj
 0001:000029e0       ??__EmaxFError@_VecMathTests@aos@shdfnd@physx@@YAXXZ 100039e0 f   GuRTreeQueries.obj
 0001:00002a00       ??__EmaxV3Error@_VecMathTests@aos@shdfnd@physx@@YAXXZ 10003a00 f   GuRTreeQueries.obj
 0001:00002a10       ??__EmaxV4Error@_VecMathTests@aos@shdfnd@physx@@YAXXZ 10003a10 f   GuRTreeQueries.obj
 0001:00002a30       ??__EminFError@_VecMathTests@aos@shdfnd@physx@@YAXXZ 10003a30 f   GuRTreeQueries.obj
 0001:00002a50       ??__EminV3Error@_VecMathTests@aos@shdfnd@physx@@YAXXZ 10003a50 f   GuRTreeQueries.obj
 0001:00002a60       ??__EminV4Error@_VecMathTests@aos@shdfnd@physx@@YAXXZ 10003a60 f   GuRTreeQueries.obj
 0001:00002a80       ??__Etwos@?A0xe2f7d28e@@YAXXZ 10003a80 f   GuRTreeQueries.obj
 0001:00002aa0       ??__Ezeroes@?A0xe2f7d28e@@YAXXZ 10003aa0 f   GuRTreeQueries.obj
 0001:00002ab0       ??__EmaxFError@_VecMathTests@aos@shdfnd@physx@@YAXXZ 10003ab0 f   GuSweepsMesh.obj
 0001:00002ad0       ??__EmaxV3Error@_VecMathTests@aos@shdfnd@physx@@YAXXZ 10003ad0 f   GuSweepsMesh.obj
 0001:00002ae0       ??__EmaxV4Error@_VecMathTests@aos@shdfnd@physx@@YAXXZ 10003ae0 f   GuSweepsMesh.obj
 0001:00002b00       ??__EminFError@_VecMathTests@aos@shdfnd@physx@@YAXXZ 10003b00 f   GuSweepsMesh.obj
 0001:00002b20       ??__EminV3Error@_VecMathTests@aos@shdfnd@physx@@YAXXZ 10003b20 f   GuSweepsMesh.obj
 0001:00002b30       ??__EminV4Error@_VecMathTests@aos@shdfnd@physx@@YAXXZ 10003b30 f   GuSweepsMesh.obj
 0001:00002b50       ??__EmaxFError@_VecMathTests@aos@shdfnd@physx@@YAXXZ 10003b50 f   GuTriangleMesh.obj
 0001:00002b70       ??__EmaxV3Error@_VecMathTests@aos@shdfnd@physx@@YAXXZ 10003b70 f   GuTriangleMesh.obj
 0001:00002b80       ??__EmaxV4Error@_VecMathTests@aos@shdfnd@physx@@YAXXZ 10003b80 f   GuTriangleMesh.obj
 0001:00002ba0       ??__EminFError@_VecMathTests@aos@shdfnd@physx@@YAXXZ 10003ba0 f   GuTriangleMesh.obj
 0001:00002bc0       ??__EminV3Error@_VecMathTests@aos@shdfnd@physx@@YAXXZ 10003bc0 f   GuTriangleMesh.obj
 0001:00002bd0       ??__EminV4Error@_VecMathTests@aos@shdfnd@physx@@YAXXZ 10003bd0 f   GuTriangleMesh.obj
 0001:00002bf0       ??__EmaxFError@_VecMathTests@aos@shdfnd@physx@@YAXXZ 10003bf0 f   GuTriangleMeshBV4.obj
 0001:00002c10       ??__EmaxV3Error@_VecMathTests@aos@shdfnd@physx@@YAXXZ 10003c10 f   GuTriangleMeshBV4.obj
 0001:00002c20       ??__EmaxV4Error@_VecMathTests@aos@shdfnd@physx@@YAXXZ 10003c20 f   GuTriangleMeshBV4.obj
 0001:00002c40       ??__EminFError@_VecMathTests@aos@shdfnd@physx@@YAXXZ 10003c40 f   GuTriangleMeshBV4.obj
 0001:00002c60       ??__EminV3Error@_VecMathTests@aos@shdfnd@physx@@YAXXZ 10003c60 f   GuTriangleMeshBV4.obj
 0001:00002c70       ??__EminV4Error@_VecMathTests@aos@shdfnd@physx@@YAXXZ 10003c70 f   GuTriangleMeshBV4.obj
 0001:00002c90       ??__EmaxFError@_VecMathTests@aos@shdfnd@physx@@YAXXZ 10003c90 f   GuTriangleMeshRTree.obj
 0001:00002cb0       ??__EmaxV3Error@_VecMathTests@aos@shdfnd@physx@@YAXXZ 10003cb0 f   GuTriangleMeshRTree.obj
 0001:00002cc0       ??__EmaxV4Error@_VecMathTests@aos@shdfnd@physx@@YAXXZ 10003cc0 f   GuTriangleMeshRTree.obj
 0001:00002ce0       ??__EminFError@_VecMathTests@aos@shdfnd@physx@@YAXXZ 10003ce0 f   GuTriangleMeshRTree.obj
 0001:00002d00       ??__EminV3Error@_VecMathTests@aos@shdfnd@physx@@YAXXZ 10003d00 f   GuTriangleMeshRTree.obj
 0001:00002d10       ??__EminV4Error@_VecMathTests@aos@shdfnd@physx@@YAXXZ 10003d10 f   GuTriangleMeshRTree.obj
 0001:00002d30       ??__EmaxFError@_VecMathTests@aos@shdfnd@physx@@YAXXZ 10003d30 f   GuBV32Build.obj
 0001:00002d50       ??__EmaxV3Error@_VecMathTests@aos@shdfnd@physx@@YAXXZ 10003d50 f   GuBV32Build.obj
 0001:00002d60       ??__EmaxV4Error@_VecMathTests@aos@shdfnd@physx@@YAXXZ 10003d60 f   GuBV32Build.obj
 0001:00002d80       ??__EminFError@_VecMathTests@aos@shdfnd@physx@@YAXXZ 10003d80 f   GuBV32Build.obj
 0001:00002da0       ??__EminV3Error@_VecMathTests@aos@shdfnd@physx@@YAXXZ 10003da0 f   GuBV32Build.obj
 0001:00002db0       ??__EminV4Error@_VecMathTests@aos@shdfnd@physx@@YAXXZ 10003db0 f   GuBV32Build.obj
 0001:00002dd0       ??__EmaxFError@_VecMathTests@aos@shdfnd@physx@@YAXXZ 10003dd0 f   GuPCMContactBoxBox.obj
 0001:00002df0       ??__EmaxV3Error@_VecMathTests@aos@shdfnd@physx@@YAXXZ 10003df0 f   GuPCMContactBoxBox.obj
 0001:00002e00       ??__EmaxV4Error@_VecMathTests@aos@shdfnd@physx@@YAXXZ 10003e00 f   GuPCMContactBoxBox.obj
 0001:00002e20       ??__EminFError@_VecMathTests@aos@shdfnd@physx@@YAXXZ 10003e20 f   GuPCMContactBoxBox.obj
 0001:00002e40       ??__EminV3Error@_VecMathTests@aos@shdfnd@physx@@YAXXZ 10003e40 f   GuPCMContactBoxBox.obj
 0001:00002e50       ??__EminV4Error@_VecMathTests@aos@shdfnd@physx@@YAXXZ 10003e50 f   GuPCMContactBoxBox.obj
 0001:00002e70       ??__EmaxFError@_VecMathTests@aos@shdfnd@physx@@YAXXZ 10003e70 f   GuPCMContactBoxConvex.obj
 0001:00002e90       ??__EmaxV3Error@_VecMathTests@aos@shdfnd@physx@@YAXXZ 10003e90 f   GuPCMContactBoxConvex.obj
 0001:00002ea0       ??__EmaxV4Error@_VecMathTests@aos@shdfnd@physx@@YAXXZ 10003ea0 f   GuPCMContactBoxConvex.obj
 0001:00002ec0       ??__EminFError@_VecMathTests@aos@shdfnd@physx@@YAXXZ 10003ec0 f   GuPCMContactBoxConvex.obj
 0001:00002ee0       ??__EminV3Error@_VecMathTests@aos@shdfnd@physx@@YAXXZ 10003ee0 f   GuPCMContactBoxConvex.obj
 0001:00002ef0       ??__EminV4Error@_VecMathTests@aos@shdfnd@physx@@YAXXZ 10003ef0 f   GuPCMContactBoxConvex.obj
 0001:00002f10       ??__EmaxFError@_VecMathTests@aos@shdfnd@physx@@YAXXZ 10003f10 f   GuPCMContactCapsuleBox.obj
 0001:00002f30       ??__EmaxV3Error@_VecMathTests@aos@shdfnd@physx@@YAXXZ 10003f30 f   GuPCMContactCapsuleBox.obj
 0001:00002f40       ??__EmaxV4Error@_VecMathTests@aos@shdfnd@physx@@YAXXZ 10003f40 f   GuPCMContactCapsuleBox.obj
 0001:00002f60       ??__EminFError@_VecMathTests@aos@shdfnd@physx@@YAXXZ 10003f60 f   GuPCMContactCapsuleBox.obj
 0001:00002f80       ??__EminV3Error@_VecMathTests@aos@shdfnd@physx@@YAXXZ 10003f80 f   GuPCMContactCapsuleBox.obj
 0001:00002f90       ??__EminV4Error@_VecMathTests@aos@shdfnd@physx@@YAXXZ 10003f90 f   GuPCMContactCapsuleBox.obj
 0001:00002fb0       ??__EmaxFError@_VecMathTests@aos@shdfnd@physx@@YAXXZ 10003fb0 f   GuPCMContactCapsuleCapsule.obj
 0001:00002fd0       ??__EmaxV3Error@_VecMathTests@aos@shdfnd@physx@@YAXXZ 10003fd0 f   GuPCMContactCapsuleCapsule.obj
 0001:00002fe0       ??__EmaxV4Error@_VecMathTests@aos@shdfnd@physx@@YAXXZ 10003fe0 f   GuPCMContactCapsuleCapsule.obj
 0001:00003000       ??__EminFError@_VecMathTests@aos@shdfnd@physx@@YAXXZ 10004000 f   GuPCMContactCapsuleCapsule.obj
 0001:00003020       ??__EminV3Error@_VecMathTests@aos@shdfnd@physx@@YAXXZ 10004020 f   GuPCMContactCapsuleCapsule.obj
 0001:00003030       ??__EminV4Error@_VecMathTests@aos@shdfnd@physx@@YAXXZ 10004030 f   GuPCMContactCapsuleCapsule.obj
 0001:00003050       ??__EmaxFError@_VecMathTests@aos@shdfnd@physx@@YAXXZ 10004050 f   GuPCMContactCapsuleConvex.obj
 0001:00003070       ??__EmaxV3Error@_VecMathTests@aos@shdfnd@physx@@YAXXZ 10004070 f   GuPCMContactCapsuleConvex.obj
 0001:00003080       ??__EmaxV4Error@_VecMathTests@aos@shdfnd@physx@@YAXXZ 10004080 f   GuPCMContactCapsuleConvex.obj
 0001:000030a0       ??__EminFError@_VecMathTests@aos@shdfnd@physx@@YAXXZ 100040a0 f   GuPCMContactCapsuleConvex.obj
 0001:000030c0       ??__EminV3Error@_VecMathTests@aos@shdfnd@physx@@YAXXZ 100040c0 f   GuPCMContactCapsuleConvex.obj
 0001:000030d0       ??__EminV4Error@_VecMathTests@aos@shdfnd@physx@@YAXXZ 100040d0 f   GuPCMContactCapsuleConvex.obj
 0001:000030f0       ??__EmaxFError@_VecMathTests@aos@shdfnd@physx@@YAXXZ 100040f0 f   GuPCMContactCapsuleHeightField.obj
 0001:00003110       ??__EmaxV3Error@_VecMathTests@aos@shdfnd@physx@@YAXXZ 10004110 f   GuPCMContactCapsuleHeightField.obj
 0001:00003120       ??__EmaxV4Error@_VecMathTests@aos@shdfnd@physx@@YAXXZ 10004120 f   GuPCMContactCapsuleHeightField.obj
 0001:00003140       ??__EminFError@_VecMathTests@aos@shdfnd@physx@@YAXXZ 10004140 f   GuPCMContactCapsuleHeightField.obj
 0001:00003160       ??__EminV3Error@_VecMathTests@aos@shdfnd@physx@@YAXXZ 10004160 f   GuPCMContactCapsuleHeightField.obj
 0001:00003170       ??__EminV4Error@_VecMathTests@aos@shdfnd@physx@@YAXXZ 10004170 f   GuPCMContactCapsuleHeightField.obj
 0001:00003190       ??__EmaxFError@_VecMathTests@aos@shdfnd@physx@@YAXXZ 10004190 f   GuPCMContactCapsuleMesh.obj
 0001:000031b0       ??__EmaxV3Error@_VecMathTests@aos@shdfnd@physx@@YAXXZ 100041b0 f   GuPCMContactCapsuleMesh.obj
 0001:000031c0       ??__EmaxV4Error@_VecMathTests@aos@shdfnd@physx@@YAXXZ 100041c0 f   GuPCMContactCapsuleMesh.obj
 0001:000031e0       ??__EminFError@_VecMathTests@aos@shdfnd@physx@@YAXXZ 100041e0 f   GuPCMContactCapsuleMesh.obj
 0001:00003200       ??__EminV3Error@_VecMathTests@aos@shdfnd@physx@@YAXXZ 10004200 f   GuPCMContactCapsuleMesh.obj
 0001:00003210       ??__EminV4Error@_VecMathTests@aos@shdfnd@physx@@YAXXZ 10004210 f   GuPCMContactCapsuleMesh.obj
 0001:00003230       ??__EmaxFError@_VecMathTests@aos@shdfnd@physx@@YAXXZ 10004230 f   GuPCMContactConvexCommon.obj
 0001:00003250       ??__EmaxV3Error@_VecMathTests@aos@shdfnd@physx@@YAXXZ 10004250 f   GuPCMContactConvexCommon.obj
 0001:00003260       ??__EmaxV4Error@_VecMathTests@aos@shdfnd@physx@@YAXXZ 10004260 f   GuPCMContactConvexCommon.obj
 0001:00003280       ??__EminFError@_VecMathTests@aos@shdfnd@physx@@YAXXZ 10004280 f   GuPCMContactConvexCommon.obj
 0001:000032a0       ??__EminV3Error@_VecMathTests@aos@shdfnd@physx@@YAXXZ 100042a0 f   GuPCMContactConvexCommon.obj
 0001:000032b0       ??__EminV4Error@_VecMathTests@aos@shdfnd@physx@@YAXXZ 100042b0 f   GuPCMContactConvexCommon.obj
 0001:000032d0       ??__EmaxFError@_VecMathTests@aos@shdfnd@physx@@YAXXZ 100042d0 f   GuPCMContactConvexConvex.obj
 0001:000032f0       ??__EmaxV3Error@_VecMathTests@aos@shdfnd@physx@@YAXXZ 100042f0 f   GuPCMContactConvexConvex.obj
 0001:00003300       ??__EmaxV4Error@_VecMathTests@aos@shdfnd@physx@@YAXXZ 10004300 f   GuPCMContactConvexConvex.obj
 0001:00003320       ??__EminFError@_VecMathTests@aos@shdfnd@physx@@YAXXZ 10004320 f   GuPCMContactConvexConvex.obj
 0001:00003340       ??__EminV3Error@_VecMathTests@aos@shdfnd@physx@@YAXXZ 10004340 f   GuPCMContactConvexConvex.obj
 0001:00003350       ??__EminV4Error@_VecMathTests@aos@shdfnd@physx@@YAXXZ 10004350 f   GuPCMContactConvexConvex.obj
 0001:00003370       ??__EmaxFError@_VecMathTests@aos@shdfnd@physx@@YAXXZ 10004370 f   GuPCMContactConvexHeightField.obj
 0001:00003390       ??__EmaxV3Error@_VecMathTests@aos@shdfnd@physx@@YAXXZ 10004390 f   GuPCMContactConvexHeightField.obj
 0001:000033a0       ??__EmaxV4Error@_VecMathTests@aos@shdfnd@physx@@YAXXZ 100043a0 f   GuPCMContactConvexHeightField.obj
 0001:000033c0       ??__EminFError@_VecMathTests@aos@shdfnd@physx@@YAXXZ 100043c0 f   GuPCMContactConvexHeightField.obj
 0001:000033e0       ??__EminV3Error@_VecMathTests@aos@shdfnd@physx@@YAXXZ 100043e0 f   GuPCMContactConvexHeightField.obj
 0001:000033f0       ??__EminV4Error@_VecMathTests@aos@shdfnd@physx@@YAXXZ 100043f0 f   GuPCMContactConvexHeightField.obj
 0001:00003410       ??__EmaxFError@_VecMathTests@aos@shdfnd@physx@@YAXXZ 10004410 f   GuPCMContactConvexMesh.obj
 0001:00003430       ??__EmaxV3Error@_VecMathTests@aos@shdfnd@physx@@YAXXZ 10004430 f   GuPCMContactConvexMesh.obj
 0001:00003440       ??__EmaxV4Error@_VecMathTests@aos@shdfnd@physx@@YAXXZ 10004440 f   GuPCMContactConvexMesh.obj
 0001:00003460       ??__EminFError@_VecMathTests@aos@shdfnd@physx@@YAXXZ 10004460 f   GuPCMContactConvexMesh.obj
 0001:00003480       ??__EminV3Error@_VecMathTests@aos@shdfnd@physx@@YAXXZ 10004480 f   GuPCMContactConvexMesh.obj
 0001:00003490       ??__EminV4Error@_VecMathTests@aos@shdfnd@physx@@YAXXZ 10004490 f   GuPCMContactConvexMesh.obj
 0001:000034b0       ??__EmaxFError@_VecMathTests@aos@shdfnd@physx@@YAXXZ 100044b0 f   GuPCMContactGenBoxConvex.obj
 0001:000034d0       ??__EmaxV3Error@_VecMathTests@aos@shdfnd@physx@@YAXXZ 100044d0 f   GuPCMContactGenBoxConvex.obj
 0001:000034e0       ??__EmaxV4Error@_VecMathTests@aos@shdfnd@physx@@YAXXZ 100044e0 f   GuPCMContactGenBoxConvex.obj
 0001:00003500       ??__EminFError@_VecMathTests@aos@shdfnd@physx@@YAXXZ 10004500 f   GuPCMContactGenBoxConvex.obj
 0001:00003520       ??__EminV3Error@_VecMathTests@aos@shdfnd@physx@@YAXXZ 10004520 f   GuPCMContactGenBoxConvex.obj
 0001:00003530       ??__EminV4Error@_VecMathTests@aos@shdfnd@physx@@YAXXZ 10004530 f   GuPCMContactGenBoxConvex.obj
 0001:00003550       ??__EmaxFError@_VecMathTests@aos@shdfnd@physx@@YAXXZ 10004550 f   GuPCMContactGenSphereCapsule.obj
 0001:00003570       ??__EmaxV3Error@_VecMathTests@aos@shdfnd@physx@@YAXXZ 10004570 f   GuPCMContactGenSphereCapsule.obj
 0001:00003580       ??__EmaxV4Error@_VecMathTests@aos@shdfnd@physx@@YAXXZ 10004580 f   GuPCMContactGenSphereCapsule.obj
 0001:000035a0       ??__EminFError@_VecMathTests@aos@shdfnd@physx@@YAXXZ 100045a0 f   GuPCMContactGenSphereCapsule.obj
 0001:000035c0       ??__EminV3Error@_VecMathTests@aos@shdfnd@physx@@YAXXZ 100045c0 f   GuPCMContactGenSphereCapsule.obj
 0001:000035d0       ??__EminV4Error@_VecMathTests@aos@shdfnd@physx@@YAXXZ 100045d0 f   GuPCMContactGenSphereCapsule.obj
 0001:000035f0       ??__EmaxFError@_VecMathTests@aos@shdfnd@physx@@YAXXZ 100045f0 f   GuPCMContactPlaneBox.obj
 0001:00003610       ??__EmaxV3Error@_VecMathTests@aos@shdfnd@physx@@YAXXZ 10004610 f   GuPCMContactPlaneBox.obj
 0001:00003620       ??__EmaxV4Error@_VecMathTests@aos@shdfnd@physx@@YAXXZ 10004620 f   GuPCMContactPlaneBox.obj
 0001:00003640       ??__EminFError@_VecMathTests@aos@shdfnd@physx@@YAXXZ 10004640 f   GuPCMContactPlaneBox.obj
 0001:00003660       ??__EminV3Error@_VecMathTests@aos@shdfnd@physx@@YAXXZ 10004660 f   GuPCMContactPlaneBox.obj
 0001:00003670       ??__EminV4Error@_VecMathTests@aos@shdfnd@physx@@YAXXZ 10004670 f   GuPCMContactPlaneBox.obj
 0001:00003690       ??__EmaxFError@_VecMathTests@aos@shdfnd@physx@@YAXXZ 10004690 f   GuPCMContactPlaneCapsule.obj
 0001:000036b0       ??__EmaxV3Error@_VecMathTests@aos@shdfnd@physx@@YAXXZ 100046b0 f   GuPCMContactPlaneCapsule.obj
 0001:000036c0       ??__EmaxV4Error@_VecMathTests@aos@shdfnd@physx@@YAXXZ 100046c0 f   GuPCMContactPlaneCapsule.obj
 0001:000036e0       ??__EminFError@_VecMathTests@aos@shdfnd@physx@@YAXXZ 100046e0 f   GuPCMContactPlaneCapsule.obj
 0001:00003700       ??__EminV3Error@_VecMathTests@aos@shdfnd@physx@@YAXXZ 10004700 f   GuPCMContactPlaneCapsule.obj
 0001:00003710       ??__EminV4Error@_VecMathTests@aos@shdfnd@physx@@YAXXZ 10004710 f   GuPCMContactPlaneCapsule.obj
 0001:00003730       ??__EmaxFError@_VecMathTests@aos@shdfnd@physx@@YAXXZ 10004730 f   GuPCMContactPlaneConvex.obj
 0001:00003750       ??__EmaxV3Error@_VecMathTests@aos@shdfnd@physx@@YAXXZ 10004750 f   GuPCMContactPlaneConvex.obj
 0001:00003760       ??__EmaxV4Error@_VecMathTests@aos@shdfnd@physx@@YAXXZ 10004760 f   GuPCMContactPlaneConvex.obj
 0001:00003780       ??__EminFError@_VecMathTests@aos@shdfnd@physx@@YAXXZ 10004780 f   GuPCMContactPlaneConvex.obj
 0001:000037a0       ??__EminV3Error@_VecMathTests@aos@shdfnd@physx@@YAXXZ 100047a0 f   GuPCMContactPlaneConvex.obj
 0001:000037b0       ??__EminV4Error@_VecMathTests@aos@shdfnd@physx@@YAXXZ 100047b0 f   GuPCMContactPlaneConvex.obj
 0001:000037d0       ??__EmaxFError@_VecMathTests@aos@shdfnd@physx@@YAXXZ 100047d0 f   GuPCMContactSphereBox.obj
 0001:000037f0       ??__EmaxV3Error@_VecMathTests@aos@shdfnd@physx@@YAXXZ 100047f0 f   GuPCMContactSphereBox.obj
 0001:00003800       ??__EmaxV4Error@_VecMathTests@aos@shdfnd@physx@@YAXXZ 10004800 f   GuPCMContactSphereBox.obj
 0001:00003820       ??__EminFError@_VecMathTests@aos@shdfnd@physx@@YAXXZ 10004820 f   GuPCMContactSphereBox.obj
 0001:00003840       ??__EminV3Error@_VecMathTests@aos@shdfnd@physx@@YAXXZ 10004840 f   GuPCMContactSphereBox.obj
 0001:00003850       ??__EminV4Error@_VecMathTests@aos@shdfnd@physx@@YAXXZ 10004850 f   GuPCMContactSphereBox.obj
 0001:00003870       ??__EmaxFError@_VecMathTests@aos@shdfnd@physx@@YAXXZ 10004870 f   GuPCMContactSphereCapsule.obj
 0001:00003890       ??__EmaxV3Error@_VecMathTests@aos@shdfnd@physx@@YAXXZ 10004890 f   GuPCMContactSphereCapsule.obj
 0001:000038a0       ??__EmaxV4Error@_VecMathTests@aos@shdfnd@physx@@YAXXZ 100048a0 f   GuPCMContactSphereCapsule.obj
 0001:000038c0       ??__EminFError@_VecMathTests@aos@shdfnd@physx@@YAXXZ 100048c0 f   GuPCMContactSphereCapsule.obj
 0001:000038e0       ??__EminV3Error@_VecMathTests@aos@shdfnd@physx@@YAXXZ 100048e0 f   GuPCMContactSphereCapsule.obj
 0001:000038f0       ??__EminV4Error@_VecMathTests@aos@shdfnd@physx@@YAXXZ 100048f0 f   GuPCMContactSphereCapsule.obj
 0001:00003910       ??__EmaxFError@_VecMathTests@aos@shdfnd@physx@@YAXXZ 10004910 f   GuPCMContactSphereConvex.obj
 0001:00003930       ??__EmaxV3Error@_VecMathTests@aos@shdfnd@physx@@YAXXZ 10004930 f   GuPCMContactSphereConvex.obj
 0001:00003940       ??__EmaxV4Error@_VecMathTests@aos@shdfnd@physx@@YAXXZ 10004940 f   GuPCMContactSphereConvex.obj
 0001:00003960       ??__EminFError@_VecMathTests@aos@shdfnd@physx@@YAXXZ 10004960 f   GuPCMContactSphereConvex.obj
 0001:00003980       ??__EminV3Error@_VecMathTests@aos@shdfnd@physx@@YAXXZ 10004980 f   GuPCMContactSphereConvex.obj
 0001:00003990       ??__EminV4Error@_VecMathTests@aos@shdfnd@physx@@YAXXZ 10004990 f   GuPCMContactSphereConvex.obj
 0001:000039b0       ??__EmaxFError@_VecMathTests@aos@shdfnd@physx@@YAXXZ 100049b0 f   GuPCMContactSphereHeightField.obj
 0001:000039d0       ??__EmaxV3Error@_VecMathTests@aos@shdfnd@physx@@YAXXZ 100049d0 f   GuPCMContactSphereHeightField.obj
 0001:000039e0       ??__EmaxV4Error@_VecMathTests@aos@shdfnd@physx@@YAXXZ 100049e0 f   GuPCMContactSphereHeightField.obj
 0001:00003a00       ??__EminFError@_VecMathTests@aos@shdfnd@physx@@YAXXZ 10004a00 f   GuPCMContactSphereHeightField.obj
 0001:00003a20       ??__EminV3Error@_VecMathTests@aos@shdfnd@physx@@YAXXZ 10004a20 f   GuPCMContactSphereHeightField.obj
 0001:00003a30       ??__EminV4Error@_VecMathTests@aos@shdfnd@physx@@YAXXZ 10004a30 f   GuPCMContactSphereHeightField.obj
 0001:00003a50       ??__EmaxFError@_VecMathTests@aos@shdfnd@physx@@YAXXZ 10004a50 f   GuPCMContactSphereMesh.obj
 0001:00003a70       ??__EmaxV3Error@_VecMathTests@aos@shdfnd@physx@@YAXXZ 10004a70 f   GuPCMContactSphereMesh.obj
 0001:00003a80       ??__EmaxV4Error@_VecMathTests@aos@shdfnd@physx@@YAXXZ 10004a80 f   GuPCMContactSphereMesh.obj
 0001:00003aa0       ??__EminFError@_VecMathTests@aos@shdfnd@physx@@YAXXZ 10004aa0 f   GuPCMContactSphereMesh.obj
 0001:00003ac0       ??__EminV3Error@_VecMathTests@aos@shdfnd@physx@@YAXXZ 10004ac0 f   GuPCMContactSphereMesh.obj
 0001:00003ad0       ??__EminV4Error@_VecMathTests@aos@shdfnd@physx@@YAXXZ 10004ad0 f   GuPCMContactSphereMesh.obj
 0001:00003af0       ??__EmaxFError@_VecMathTests@aos@shdfnd@physx@@YAXXZ 10004af0 f   GuPCMContactSpherePlane.obj
 0001:00003b10       ??__EmaxV3Error@_VecMathTests@aos@shdfnd@physx@@YAXXZ 10004b10 f   GuPCMContactSpherePlane.obj
 0001:00003b20       ??__EmaxV4Error@_VecMathTests@aos@shdfnd@physx@@YAXXZ 10004b20 f   GuPCMContactSpherePlane.obj
 0001:00003b40       ??__EminFError@_VecMathTests@aos@shdfnd@physx@@YAXXZ 10004b40 f   GuPCMContactSpherePlane.obj
 0001:00003b60       ??__EminV3Error@_VecMathTests@aos@shdfnd@physx@@YAXXZ 10004b60 f   GuPCMContactSpherePlane.obj
 0001:00003b70       ??__EminV4Error@_VecMathTests@aos@shdfnd@physx@@YAXXZ 10004b70 f   GuPCMContactSpherePlane.obj
 0001:00003b90       ??__EmaxFError@_VecMathTests@aos@shdfnd@physx@@YAXXZ 10004b90 f   GuPCMContactSphereSphere.obj
 0001:00003bb0       ??__EmaxV3Error@_VecMathTests@aos@shdfnd@physx@@YAXXZ 10004bb0 f   GuPCMContactSphereSphere.obj
 0001:00003bc0       ??__EmaxV4Error@_VecMathTests@aos@shdfnd@physx@@YAXXZ 10004bc0 f   GuPCMContactSphereSphere.obj
 0001:00003be0       ??__EminFError@_VecMathTests@aos@shdfnd@physx@@YAXXZ 10004be0 f   GuPCMContactSphereSphere.obj
 0001:00003c00       ??__EminV3Error@_VecMathTests@aos@shdfnd@physx@@YAXXZ 10004c00 f   GuPCMContactSphereSphere.obj
 0001:00003c10       ??__EminV4Error@_VecMathTests@aos@shdfnd@physx@@YAXXZ 10004c10 f   GuPCMContactSphereSphere.obj
 0001:00003c30       ??__EmaxFError@_VecMathTests@aos@shdfnd@physx@@YAXXZ 10004c30 f   GuPCMShapeConvex.obj
 0001:00003c50       ??__EmaxV3Error@_VecMathTests@aos@shdfnd@physx@@YAXXZ 10004c50 f   GuPCMShapeConvex.obj
 0001:00003c60       ??__EmaxV4Error@_VecMathTests@aos@shdfnd@physx@@YAXXZ 10004c60 f   GuPCMShapeConvex.obj
 0001:00003c80       ??__EminFError@_VecMathTests@aos@shdfnd@physx@@YAXXZ 10004c80 f   GuPCMShapeConvex.obj
 0001:00003ca0       ??__EminV3Error@_VecMathTests@aos@shdfnd@physx@@YAXXZ 10004ca0 f   GuPCMShapeConvex.obj
 0001:00003cb0       ??__EminV4Error@_VecMathTests@aos@shdfnd@physx@@YAXXZ 10004cb0 f   GuPCMShapeConvex.obj
 0001:00003cd0       ??__EmaxFError@_VecMathTests@aos@shdfnd@physx@@YAXXZ 10004cd0 f   GuPCMTriangleContactGen.obj
 0001:00003cf0       ??__EmaxV3Error@_VecMathTests@aos@shdfnd@physx@@YAXXZ 10004cf0 f   GuPCMTriangleContactGen.obj
 0001:00003d00       ??__EmaxV4Error@_VecMathTests@aos@shdfnd@physx@@YAXXZ 10004d00 f   GuPCMTriangleContactGen.obj
 0001:00003d20       ??__EminFError@_VecMathTests@aos@shdfnd@physx@@YAXXZ 10004d20 f   GuPCMTriangleContactGen.obj
 0001:00003d40       ??__EminV3Error@_VecMathTests@aos@shdfnd@physx@@YAXXZ 10004d40 f   GuPCMTriangleContactGen.obj
 0001:00003d50       ??__EminV4Error@_VecMathTests@aos@shdfnd@physx@@YAXXZ 10004d50 f   GuPCMTriangleContactGen.obj
 0001:00003d70       ??__EmaxFError@_VecMathTests@aos@shdfnd@physx@@YAXXZ 10004d70 f   GuPersistentContactManifold.obj
 0001:00003d90       ??__EmaxV3Error@_VecMathTests@aos@shdfnd@physx@@YAXXZ 10004d90 f   GuPersistentContactManifold.obj
 0001:00003da0       ??__EmaxV4Error@_VecMathTests@aos@shdfnd@physx@@YAXXZ 10004da0 f   GuPersistentContactManifold.obj
 0001:00003dc0       ??__EminFError@_VecMathTests@aos@shdfnd@physx@@YAXXZ 10004dc0 f   GuPersistentContactManifold.obj
 0001:00003de0       ??__EminV3Error@_VecMathTests@aos@shdfnd@physx@@YAXXZ 10004de0 f   GuPersistentContactManifold.obj
 0001:00003df0       ??__EminV4Error@_VecMathTests@aos@shdfnd@physx@@YAXXZ 10004df0 f   GuPersistentContactManifold.obj
 0001:00003e10       ??__EmaxFError@_VecMathTests@aos@shdfnd@physx@@YAXXZ 10004e10 f   GuSweepBoxBox.obj
 0001:00003e30       ??__EmaxV3Error@_VecMathTests@aos@shdfnd@physx@@YAXXZ 10004e30 f   GuSweepBoxBox.obj
 0001:00003e40       ??__EmaxV4Error@_VecMathTests@aos@shdfnd@physx@@YAXXZ 10004e40 f   GuSweepBoxBox.obj
 0001:00003e60       ??__EminFError@_VecMathTests@aos@shdfnd@physx@@YAXXZ 10004e60 f   GuSweepBoxBox.obj
 0001:00003e80       ??__EminV3Error@_VecMathTests@aos@shdfnd@physx@@YAXXZ 10004e80 f   GuSweepBoxBox.obj
 0001:00003e90       ??__EminV4Error@_VecMathTests@aos@shdfnd@physx@@YAXXZ 10004e90 f   GuSweepBoxBox.obj
 0001:00003eb0       ??__EmaxFError@_VecMathTests@aos@shdfnd@physx@@YAXXZ 10004eb0 f   GuSweepBoxSphere.obj
 0001:00003ed0       ??__EmaxV3Error@_VecMathTests@aos@shdfnd@physx@@YAXXZ 10004ed0 f   GuSweepBoxSphere.obj
 0001:00003ee0       ??__EmaxV4Error@_VecMathTests@aos@shdfnd@physx@@YAXXZ 10004ee0 f   GuSweepBoxSphere.obj
 0001:00003f00       ??__EminFError@_VecMathTests@aos@shdfnd@physx@@YAXXZ 10004f00 f   GuSweepBoxSphere.obj
 0001:00003f20       ??__EminV3Error@_VecMathTests@aos@shdfnd@physx@@YAXXZ 10004f20 f   GuSweepBoxSphere.obj
 0001:00003f30       ??__EminV4Error@_VecMathTests@aos@shdfnd@physx@@YAXXZ 10004f30 f   GuSweepBoxSphere.obj
 0001:00003f50       ??__EmaxFError@_VecMathTests@aos@shdfnd@physx@@YAXXZ 10004f50 f   GuSweepBoxTriangle_FeatureBased.obj
 0001:00003f70       ??__EmaxV3Error@_VecMathTests@aos@shdfnd@physx@@YAXXZ 10004f70 f   GuSweepBoxTriangle_FeatureBased.obj
 0001:00003f80       ??__EmaxV4Error@_VecMathTests@aos@shdfnd@physx@@YAXXZ 10004f80 f   GuSweepBoxTriangle_FeatureBased.obj
 0001:00003fa0       ??__EminFError@_VecMathTests@aos@shdfnd@physx@@YAXXZ 10004fa0 f   GuSweepBoxTriangle_FeatureBased.obj
 0001:00003fc0       ??__EminV3Error@_VecMathTests@aos@shdfnd@physx@@YAXXZ 10004fc0 f   GuSweepBoxTriangle_FeatureBased.obj
 0001:00003fd0       ??__EminV4Error@_VecMathTests@aos@shdfnd@physx@@YAXXZ 10004fd0 f   GuSweepBoxTriangle_FeatureBased.obj
 0001:00004000       ??__EmaxFError@_VecMathTests@aos@shdfnd@physx@@YAXXZ 10005000 f   GuSweepBoxTriangle_SAT.obj
 0001:00004020       ??__EmaxV3Error@_VecMathTests@aos@shdfnd@physx@@YAXXZ 10005020 f   GuSweepBoxTriangle_SAT.obj
 0001:00004030       ??__EmaxV4Error@_VecMathTests@aos@shdfnd@physx@@YAXXZ 10005030 f   GuSweepBoxTriangle_SAT.obj
 0001:00004050       ??__EminFError@_VecMathTests@aos@shdfnd@physx@@YAXXZ 10005050 f   GuSweepBoxTriangle_SAT.obj
 0001:00004070       ??__EminV3Error@_VecMathTests@aos@shdfnd@physx@@YAXXZ 10005070 f   GuSweepBoxTriangle_SAT.obj
 0001:00004080       ??__EminV4Error@_VecMathTests@aos@shdfnd@physx@@YAXXZ 10005080 f   GuSweepBoxTriangle_SAT.obj
 0001:000040a0       ??__EmaxFError@_VecMathTests@aos@shdfnd@physx@@YAXXZ 100050a0 f   GuSweepCapsuleBox.obj
 0001:000040c0       ??__EmaxV3Error@_VecMathTests@aos@shdfnd@physx@@YAXXZ 100050c0 f   GuSweepCapsuleBox.obj
 0001:000040d0       ??__EmaxV4Error@_VecMathTests@aos@shdfnd@physx@@YAXXZ 100050d0 f   GuSweepCapsuleBox.obj
 0001:000040f0       ??__EminFError@_VecMathTests@aos@shdfnd@physx@@YAXXZ 100050f0 f   GuSweepCapsuleBox.obj
 0001:00004110       ??__EminV3Error@_VecMathTests@aos@shdfnd@physx@@YAXXZ 10005110 f   GuSweepCapsuleBox.obj
 0001:00004120       ??__EminV4Error@_VecMathTests@aos@shdfnd@physx@@YAXXZ 10005120 f   GuSweepCapsuleBox.obj
 0001:00004140       ??__EmaxFError@_VecMathTests@aos@shdfnd@physx@@YAXXZ 10005140 f   GuSweepCapsuleTriangle.obj
 0001:00004160       ??__EmaxV3Error@_VecMathTests@aos@shdfnd@physx@@YAXXZ 10005160 f   GuSweepCapsuleTriangle.obj
 0001:00004170       ??__EmaxV4Error@_VecMathTests@aos@shdfnd@physx@@YAXXZ 10005170 f   GuSweepCapsuleTriangle.obj
 0001:00004190       ??__EminFError@_VecMathTests@aos@shdfnd@physx@@YAXXZ 10005190 f   GuSweepCapsuleTriangle.obj
 0001:000041b0       ??__EminV3Error@_VecMathTests@aos@shdfnd@physx@@YAXXZ 100051b0 f   GuSweepCapsuleTriangle.obj
 0001:000041c0       ??__EminV4Error@_VecMathTests@aos@shdfnd@physx@@YAXXZ 100051c0 f   GuSweepCapsuleTriangle.obj
 0001:000041e0       ??__EmaxFError@_VecMathTests@aos@shdfnd@physx@@YAXXZ 100051e0 f   GuSweepSphereTriangle.obj
 0001:00004200       ??__EmaxV3Error@_VecMathTests@aos@shdfnd@physx@@YAXXZ 10005200 f   GuSweepSphereTriangle.obj
 0001:00004210       ??__EmaxV4Error@_VecMathTests@aos@shdfnd@physx@@YAXXZ 10005210 f   GuSweepSphereTriangle.obj
 0001:00004230       ??__EminFError@_VecMathTests@aos@shdfnd@physx@@YAXXZ 10005230 f   GuSweepSphereTriangle.obj
 0001:00004250       ??__EminV3Error@_VecMathTests@aos@shdfnd@physx@@YAXXZ 10005250 f   GuSweepSphereTriangle.obj
 0001:00004260       ??__EminV4Error@_VecMathTests@aos@shdfnd@physx@@YAXXZ 10005260 f   GuSweepSphereTriangle.obj
 0001:00004280       ??__EmaxFError@_VecMathTests@aos@shdfnd@physx@@YAXXZ 10005280 f   GuSweepTriangleUtils.obj
 0001:000042a0       ??__EmaxV3Error@_VecMathTests@aos@shdfnd@physx@@YAXXZ 100052a0 f   GuSweepTriangleUtils.obj
 0001:000042b0       ??__EmaxV4Error@_VecMathTests@aos@shdfnd@physx@@YAXXZ 100052b0 f   GuSweepTriangleUtils.obj
 0001:000042d0       ??__EminFError@_VecMathTests@aos@shdfnd@physx@@YAXXZ 100052d0 f   GuSweepTriangleUtils.obj
 0001:000042f0       ??__EminV3Error@_VecMathTests@aos@shdfnd@physx@@YAXXZ 100052f0 f   GuSweepTriangleUtils.obj
 0001:00004300       ??__EminV4Error@_VecMathTests@aos@shdfnd@physx@@YAXXZ 10005300 f   GuSweepTriangleUtils.obj
 0001:00008254       $LN128                     10009254     CmRenderOutput.obj
 0001:00009ff8       $LN24                      1000aff8     CmWindowsDelayLoadHook.obj
 0001:0000a874       $LN326                     1000b874     GuBounds.obj
 0001:0000b384       $LN874                     1000c384     GuBounds.obj
 0001:0000b514       $LN78                      1000c514     GuBounds.obj
 0001:0000b560       ?computeMeshBounds@@YAXABVPxVec3@physx@@ABVPxMat33Padded@Gu@2@PIBVCenterExtentsPadded@42@ABVPxMeshScale@2@AAVVec3p@42@4@Z 1000c560 f   GuBounds.obj
 0001:0000bd00       ?computePlaneBounds@@YAXAAVPxBounds3@physx@@ABVPxTransform@2@MM@Z 1000cd00 f   GuBounds.obj
 0001:0000bfb0       ?computeScaledMatrix@@YAXAAVPxMat33Padded@Gu@physx@@ABVPxMeshScale@3@@Z 1000cfb0 f   GuBounds.obj
 0001:0000d560       ??_GLocalReport@?1??sweepBox_HeightFieldGeom_Precise@@YA_NABVPxGeometry@physx@@ABVPxTransform@3@ABVPxBoxGeometry@3@1ABVBox@Gu@3@ABVPxVec3@3@MAAUPxSweepHit@3@V?$PxFlags@W4Enum@PxHitFlag@physx@@G@3@M@Z@UAEPAXI@Z 1000e560 f   GuCCTSweepTests.obj
 0001:0000d560       ??_GHfTrianglesEntityReport2@?A0x9cfc850e@@UAEPAXI@Z 1000e560 f   GuMeshQuery.obj
 0001:0000e110       ?onEvent@LocalReport@?1??sweepBox_HeightFieldGeom_Precise@@YA_NABVPxGeometry@physx@@ABVPxTransform@4@ABVPxBoxGeometry@4@1ABVBox@Gu@4@ABVPxVec3@4@MAAUPxSweepHit@4@V?$PxFlags@W4Enum@PxHitFlag@physx@@G@4@M@Z@UAE_NIPAI@Z 1000f110 f   GuCCTSweepTests.obj
 0001:0000e570       ?sweepBoxVsTriangles@@YA_NIPBVPxTriangle@physx@@ABVBox@Gu@2@ABVPxVec3@2@MAAUPxSweepHit@2@V?$PxFlags@W4Enum@PxHitFlag@physx@@G@2@_NPBI@Z 1000f570 f   GuCCTSweepTests.obj
 0001:00010794       $LN147                     10011794     GuGeometryQuery.obj
 0001:00010ef8       $LN272                     10011ef8     GuGeometryQuery.obj
 0001:000113a0       $LN162                     100123a0     GuGeometryQuery.obj
 0001:0001165c       $LN46                      1001265c     GuGeometryUnion.obj
 0001:00013130       ?loadMeshData@@YAPAVTriangleMeshData@Gu@physx@@AAVPxInputStream@3@@Z 10014130 f   GuMeshFactory.obj
 0001:00016a40       ?getBinaryMetaData@ShadowConvexMeshGeometry@?1??0GeometryUnion@Gu@physx@@SAXAAVPxOutputStream@4@@Z@SAX0@Z 10017a40 f   GuMetaData.obj
 0001:00016d10       ?getBinaryMetaData@ShadowHeightFieldGeometry@?1??0GeometryUnion@Gu@physx@@SAXAAVPxOutputStream@4@@Z@SAX0@Z 10017d10 f   GuMetaData.obj
 0001:00017020       ?getBinaryMetaData@ShadowTriangleMeshGeometry@?1??0GeometryUnion@Gu@physx@@SAXAAVPxOutputStream@4@@Z@SAX0@Z 10018020 f   GuMetaData.obj
 0001:00017ce0       ?getBinaryMetaData_BVDataPackedQ@@YAXAAVPxOutputStream@physx@@@Z 10018ce0 f   GuMetaData.obj
 0001:00017ff0       ?getBinaryMetaData_BigConvexRawData@@YAXAAVPxOutputStream@physx@@@Z 10018ff0 f   GuMetaData.obj
 0001:00018270       ?getBinaryMetaData_ConvexHullData@@YAXAAVPxOutputStream@physx@@@Z 10019270 f   GuMetaData.obj
 0001:00018540       ?getBinaryMetaData_HeightFieldData@@YAXAAVPxOutputStream@physx@@@Z 10019540 f   GuMetaData.obj
 0001:00018940       ?getBinaryMetaData_RTreePage@@YAXAAVPxOutputStream@physx@@@Z 10019940 f   GuMetaData.obj
 0001:000192a0       ?GeomMTDCallback_NotSupported@@YA_NAAVPxVec3@physx@@AAMABVPxGeometry@2@ABVPxTransform@2@23@Z 1001a2a0 f   GuMTD.obj
 0001:000192a0       ?GeomOverlapCallback_NotSupported@@YA_NABVPxGeometry@physx@@ABVPxTransform@2@01PAUTriggerCache@Gu@2@@Z 1001a2a0 f   GuOverlapTests.obj
 0001:000192b0       ?GeomMTDCallback_SphereSphere@@YA_NAAVPxVec3@physx@@AAMABVPxGeometry@2@ABVPxTransform@2@23@Z 1001a2b0 f   GuMTD.obj
 0001:00019380       ?GeomMTDCallback_SpherePlane@@YA_NAAVPxVec3@physx@@AAMABVPxGeometry@2@ABVPxTransform@2@23@Z 1001a380 f   GuMTD.obj
 0001:00019440       ?GeomMTDCallback_SphereCapsule@@YA_NAAVPxVec3@physx@@AAMABVPxGeometry@2@ABVPxTransform@2@23@Z 1001a440 f   GuMTD.obj
 0001:00019560       ?GeomMTDCallback_SphereBox@@YA_NAAVPxVec3@physx@@AAMABVPxGeometry@2@ABVPxTransform@2@23@Z 1001a560 f   GuMTD.obj
 0001:00019680       ?GeomMTDCallback_SphereConvex@@YA_NAAVPxVec3@physx@@AAMABVPxGeometry@2@ABVPxTransform@2@23@Z 1001a680 f   GuMTD.obj
 0001:000196e0       ?GeomMTDCallback_SphereMesh@@YA_NAAVPxVec3@physx@@AAMABVPxGeometry@2@ABVPxTransform@2@23@Z 1001a6e0 f   GuMTD.obj
 0001:00019820       ?GeomMTDCallback_PlaneCapsule@@YA_NAAVPxVec3@physx@@AAMABVPxGeometry@2@ABVPxTransform@2@23@Z 1001a820 f   GuMTD.obj
 0001:000199e0       ?GeomMTDCallback_PlaneBox@@YA_NAAVPxVec3@physx@@AAMABVPxGeometry@2@ABVPxTransform@2@23@Z 1001a9e0 f   GuMTD.obj
 0001:00019ad0       ?GeomMTDCallback_PlaneConvex@@YA_NAAVPxVec3@physx@@AAMABVPxGeometry@2@ABVPxTransform@2@23@Z 1001aad0 f   GuMTD.obj
 0001:00019b00       ?GeomMTDCallback_CapsuleCapsule@@YA_NAAVPxVec3@physx@@AAMABVPxGeometry@2@ABVPxTransform@2@23@Z 1001ab00 f   GuMTD.obj
 0001:00019cc0       ?GeomMTDCallback_CapsuleBox@@YA_NAAVPxVec3@physx@@AAMABVPxGeometry@2@ABVPxTransform@2@23@Z 1001acc0 f   GuMTD.obj
 0001:00019e70       ?GeomMTDCallback_CapsuleConvex@@YA_NAAVPxVec3@physx@@AAMABVPxGeometry@2@ABVPxTransform@2@23@Z 1001ae70 f   GuMTD.obj
 0001:00019f60       ?GeomMTDCallback_CapsuleMesh@@YA_NAAVPxVec3@physx@@AAMABVPxGeometry@2@ABVPxTransform@2@23@Z 1001af60 f   GuMTD.obj
 0001:0001a140       ?GeomMTDCallback_BoxBox@@YA_NAAVPxVec3@physx@@AAMABVPxGeometry@2@ABVPxTransform@2@23@Z 1001b140 f   GuMTD.obj
 0001:0001a300       ?GeomMTDCallback_BoxConvex@@YA_NAAVPxVec3@physx@@AAMABVPxGeometry@2@ABVPxTransform@2@23@Z 1001b300 f   GuMTD.obj
 0001:0001a3f0       ?GeomMTDCallback_BoxMesh@@YA_NAAVPxVec3@physx@@AAMABVPxGeometry@2@ABVPxTransform@2@23@Z 1001b3f0 f   GuMTD.obj
 0001:0001a610       ?GeomMTDCallback_ConvexConvex@@YA_NAAVPxVec3@physx@@AAMABVPxGeometry@2@ABVPxTransform@2@23@Z 1001b610 f   GuMTD.obj
 0001:0001a620       ?GeomMTDCallback_ConvexMesh@@YA_NAAVPxVec3@physx@@AAMABVPxGeometry@2@ABVPxTransform@2@23@Z 1001b620 f   GuMTD.obj
 0001:0001a6f0       ?GeomMTDCallback_SphereHeightField@@YA_NAAVPxVec3@physx@@AAMABVPxGeometry@2@ABVPxTransform@2@23@Z 1001b6f0 f   GuMTD.obj
 0001:0001a830       ?GeomMTDCallback_CapsuleHeightField@@YA_NAAVPxVec3@physx@@AAMABVPxGeometry@2@ABVPxTransform@2@23@Z 1001b830 f   GuMTD.obj
 0001:0001aa10       ?GeomMTDCallback_BoxHeightField@@YA_NAAVPxVec3@physx@@AAMABVPxGeometry@2@ABVPxTransform@2@23@Z 1001ba10 f   GuMTD.obj
 0001:0001ac30       ?GeomMTDCallback_ConvexHeightField@@YA_NAAVPxVec3@physx@@AAMABVPxGeometry@2@ABVPxTransform@2@23@Z 1001bc30 f   GuMTD.obj
 0001:0001bc70       $LN695                     1001cc70     GuMTD.obj
 0001:0001c260       ?PxcCapsuleOBBOverlap3@@YA_NABVSegment@Gu@physx@@MABVBox@23@PAMPAVPxVec3@3@@Z 1001d260 f   GuMTD.obj
 0001:0001c810       ?PxcTestAxis@@YA_NABVPxVec3@physx@@ABVBox@Gu@2@1AAM@Z 1001d810 f   GuMTD.obj
 0001:0001ca30       ?computeMTD_BoxBox@@YA_NAAVPxVec3@physx@@AAMABVBox@Gu@2@2@Z 1001da30 f   GuMTD.obj
 0001:0001ce90       ?computeMTD_BoxConvex@@YA_NAAVPxVec3@physx@@AAMABVBox@Gu@2@ABVPxConvexMeshGeometry@2@ABVPxTransform@2@@Z 1001de90 f   GuMTD.obj
 0001:0001d670       ?computeMTD_CapsuleBox@@YA_NAAVPxVec3@physx@@AAMABVCapsule@Gu@2@ABVBox@42@@Z 1001e670 f   GuMTD.obj
 0001:0001d860       ?computeMTD_CapsuleCapsule@@YA_NAAVPxVec3@physx@@AAMABVCapsule@Gu@2@2@Z 1001e860 f   GuMTD.obj
 0001:0001da50       ?computeMTD_CapsuleConvex@@YA_NAAVPxVec3@physx@@AAMABVCapsule@Gu@2@ABVPxTransform@2@ABVPxConvexMeshGeometry@2@3@Z 1001ea50 f   GuMTD.obj
 0001:0001e3b0       ?computeMTD_ConvexConvex@@YA_NAAVPxVec3@physx@@AAMABVPxConvexMeshGeometry@2@ABVPxTransform@2@23@Z 1001f3b0 f   GuMTD.obj
 0001:0001eee0       ?computeMTD_PlaneBox@@YA_NAAVPxVec3@physx@@AAMABVPxPlane@2@ABVBox@Gu@2@@Z 1001fee0 f   GuMTD.obj
 0001:0001f0c0       ?computeMTD_PlaneConvex@@YA_NAAVPxVec3@physx@@AAMABVPxPlane@2@ABVPxConvexMeshGeometry@2@ABVPxTransform@2@@Z 100200c0 f   GuMTD.obj
 0001:0001f3d0       ?computeMTD_SphereBox@@YA_NAAVPxVec3@physx@@AAMABVSphere@Gu@2@ABVBox@42@@Z 100203d0 f   GuMTD.obj
 0001:0001f9c0       ?computeMTD_SphereCapsule@@YA_NAAVPxVec3@physx@@AAMABVSphere@Gu@2@ABVCapsule@42@@Z 100209c0 f   GuMTD.obj
 0001:0001fbc0       ?computeMTD_SphereConvex@@YA_NAAVPxVec3@physx@@AAMABVSphere@Gu@2@ABVPxConvexMeshGeometry@2@ABVPxTransform@2@@Z 10020bc0 f   GuMTD.obj
 0001:00020f50       ?processContacts@@YA_NAAVPxVec3@physx@@AAMIPBUContactPoint@Gu@2@@Z 10021f50 f   GuMTD.obj
 0001:00021a70       ?GeomOverlapCallback_SphereSphere@@YA_NABVPxGeometry@physx@@ABVPxTransform@2@01PAUTriggerCache@Gu@2@@Z 10022a70 f   GuOverlapTests.obj
 0001:00021ad0       ?GeomOverlapCallback_SpherePlane@@YA_NABVPxGeometry@physx@@ABVPxTransform@2@01PAUTriggerCache@Gu@2@@Z 10022ad0 f   GuOverlapTests.obj
 0001:00021b30       ?GeomOverlapCallback_SphereCapsule@@YA_NABVPxGeometry@physx@@ABVPxTransform@2@01PAUTriggerCache@Gu@2@@Z 10022b30 f   GuOverlapTests.obj
 0001:00021cd0       ?GeomOverlapCallback_SphereBox@@YA_NABVPxGeometry@physx@@ABVPxTransform@2@01PAUTriggerCache@Gu@2@@Z 10022cd0 f   GuOverlapTests.obj
 0001:00021de0       ?GeomOverlapCallback_SphereConvex@@YA_NABVPxGeometry@physx@@ABVPxTransform@2@01PAUTriggerCache@Gu@2@@Z 10022de0 f   GuOverlapTests.obj
 0001:00021ea0       ?GeomOverlapCallback_PlaneCapsule@@YA_NABVPxGeometry@physx@@ABVPxTransform@2@01PAUTriggerCache@Gu@2@@Z 10022ea0 f   GuOverlapTests.obj
 0001:00022010       ?GeomOverlapCallback_PlaneBox@@YA_NABVPxGeometry@physx@@ABVPxTransform@2@01PAUTriggerCache@Gu@2@@Z 10023010 f   GuOverlapTests.obj
 0001:00022290       ?GeomOverlapCallback_PlaneConvex@@YA_NABVPxGeometry@physx@@ABVPxTransform@2@01PAUTriggerCache@Gu@2@@Z 10023290 f   GuOverlapTests.obj
 0001:00022aa0       ?GeomOverlapCallback_CapsuleCapsule@@YA_NABVPxGeometry@physx@@ABVPxTransform@2@01PAUTriggerCache@Gu@2@@Z 10023aa0 f   GuOverlapTests.obj
 0001:00022c90       ?GeomOverlapCallback_CapsuleBox@@YA_NABVPxGeometry@physx@@ABVPxTransform@2@01PAUTriggerCache@Gu@2@@Z 10023c90 f   GuOverlapTests.obj
 0001:00022f20       ?GeomOverlapCallback_CapsuleConvex@@YA_NABVPxGeometry@physx@@ABVPxTransform@2@01PAUTriggerCache@Gu@2@@Z 10023f20 f   GuOverlapTests.obj
 0001:00023000       ?GeomOverlapCallback_BoxBox@@YA_NABVPxGeometry@physx@@ABVPxTransform@2@01PAUTriggerCache@Gu@2@@Z 10024000 f   GuOverlapTests.obj
 0001:00023130       ?GeomOverlapCallback_BoxConvex@@YA_NABVPxGeometry@physx@@ABVPxTransform@2@01PAUTriggerCache@Gu@2@@Z 10024130 f   GuOverlapTests.obj
 0001:00023210       ?GeomOverlapCallback_ConvexConvex@@YA_NABVPxGeometry@physx@@ABVPxTransform@2@01PAUTriggerCache@Gu@2@@Z 10024210 f   GuOverlapTests.obj
 0001:00024080       ?GeomOverlapCallback_HeightfieldUnregistered@@YA_NABVPxGeometry@physx@@ABVPxTransform@2@01PAUTriggerCache@Gu@2@@Z 10025080 f   GuOverlapTests.obj
 0001:00025064       $LN739                     10026064     GuOverlapTests.obj
 0001:0002615c       $LN771                     1002715c     GuOverlapTests.obj
 0001:000262c0       ?intersectBoxConvex@@YA_NABVPxBoxGeometry@physx@@ABVPxTransform@2@ABVConvexMesh@Gu@2@ABVPxMeshScale@2@1PAVPxVec3@2@@Z 100272c0 f   GuOverlapTests.obj
 0001:00026ca0       ?intersectCapsuleConvex@@YA_NABVPxCapsuleGeometry@physx@@ABVPxTransform@2@ABVConvexMesh@Gu@2@ABVPxMeshScale@2@1PAVPxVec3@2@@Z 10027ca0 f   GuOverlapTests.obj
 0001:00027640       ?intersectSphereConvex@@YA_NABVPxTransform@physx@@MABVConvexMesh@Gu@2@ABVPxMeshScale@2@0PAVPxVec3@2@@Z 10028640 f   GuOverlapTests.obj
 0001:00027d30       ?projectHull_@@YA?AVPxVec3@physx@@ABUConvexHullData@Gu@2@AAM1ABV12@ABVPxMat33@2@@Z 10028d30 f   GuOverlapTests.obj
 0001:00029b30       ?raycast_heightField_unregistered@@YAIABVPxGeometry@physx@@ABVPxTransform@2@ABVPxVec3@2@2MV?$PxFlags@W4Enum@PxHitFlag@physx@@G@2@IPIAUPxRaycastHit@2@@Z 1002ab30 f   GuRaycastTests.obj
 0001:00029b60       ??$traceSegment@UHFTraceSegmentCallback@?A0x6ec84039@@$0A@$0A@@HeightFieldTraceUtil@Gu@physx@@QBEXABVPxVec3@2@0MPAUHFTraceSegmentCallback@?A0x6ec84039@@ABVPxBounds3@2@_NPBV32@@Z 1002ab60 f   GuRaycastTests.obj
 0001:0002b980       ?faceHit@HFTraceSegmentCallback@?A0x6ec84039@@QAE_NABVHeightFieldUtil@Gu@physx@@ABVPxVec3@5@IMM@Z 1002c980 f   GuRaycastTests.obj
 0001:0002d8a0       ??_GAccumCallback@?A0xb712a002@Gu@physx@@UAEPAXI@Z 1002e8a0 f i GuCCDSweepConvexMesh.obj
 0001:0002d8d0       ??_GEntityReportContainerCallback@?A0xb712a002@Gu@physx@@UAEPAXI@Z 1002e8d0 f i GuCCDSweepConvexMesh.obj
 0001:0002d960       ?calculateMTD@@YA_NABUPolygonalData@Gu@physx@@PAVSupportLocal@23@AAVPsTransformV@aos@shdfnd@3@ABVPsMatTransformV@673@_NABT__m128@@PBUMTDTriangle@@IIPAVMeshPersistentContact@23@AAIAAT9@9989@Z 1002e960 f   GuSweepMTD.obj
 0001:0002daa0       ?calculateMTD@@YA_NABVCapsuleV@Gu@physx@@ABT__m128@@_NPBUMTDTriangle@@IIPAVMeshPersistentContact@23@AAIAAT4@6656@Z 1002eaa0 f   GuSweepMTD.obj
 0001:00035b84       $LN1078                    10036b84     GuSweepSharedTests.obj
 0001:00035b94       $LN1079                    10036b94     GuSweepSharedTests.obj
 0001:000374e8       $LN1142                    100384e8     GuSweepSharedTests.obj
 0001:000374f8       $LN1143                    100384f8     GuSweepSharedTests.obj
 0001:00038ea4       $LN1192                    10039ea4     GuSweepSharedTests.obj
 0001:00038eb4       $LN1193                    10039eb4     GuSweepSharedTests.obj
 0001:00039d88       $LN727                     1003ad88     GuSweepSharedTests.obj
 0001:0003acc8       $LN815                     1003bcc8     GuSweepSharedTests.obj
 0001:0003bcfc       $LN879                     1003ccfc     GuSweepSharedTests.obj
 0001:0003c450       ?computeSweepConvexPlane@@YAIABVPxConvexMeshGeometry@physx@@PAUConvexHullData@Gu@2@ABIABVPxTransform@2@ABVPxVec3@2@4@Z 1003d450 f   GuSweepSharedTests.obj
 0001:00043340       ?sweepCapsule_HeightfieldUnregistered@@YA_NABVPxGeometry@physx@@ABVPxTransform@2@ABVPxCapsuleGeometry@2@1ABVCapsule@Gu@2@ABVPxVec3@2@MAAUPxSweepHit@2@V?$PxFlags@W4Enum@PxHitFlag@physx@@G@2@M@Z 10044340 f   GuSweepTests.obj
 0001:00043370       ?sweepBox_HeightfieldUnregistered@@YA_NABVPxGeometry@physx@@ABVPxTransform@2@ABVPxBoxGeometry@2@1ABVBox@Gu@2@ABVPxVec3@2@MAAUPxSweepHit@2@V?$PxFlags@W4Enum@PxHitFlag@physx@@G@2@M@Z 10044370 f   GuSweepTests.obj
 0001:000433a0       ?sweepConvex_HeightfieldUnregistered@@YA_NABVPxGeometry@physx@@ABVPxTransform@2@ABVPxConvexMeshGeometry@2@1ABVPxVec3@2@MAAUPxSweepHit@2@V?$PxFlags@W4Enum@PxHitFlag@physx@@G@2@M@Z 100443a0 f   GuSweepTests.obj
 0001:00044c34       $LN1028                    10045c34     GuSweepTests.obj
 0001:00044c44       $LN1029                    10045c44     GuSweepTests.obj
 0001:000464f4       $LN1092                    100474f4     GuSweepTests.obj
 0001:00046504       $LN1093                    10047504     GuSweepTests.obj
 0001:00047274       $LN631                     10048274     GuSweepTests.obj
 0001:00048080       $LN653                     10049080     GuSweepTests.obj
 0001:00048e60       $LN719                     10049e60     GuSweepTests.obj
 0001:0004c580       ??_GCB@?1??SweepEstimateAnyShapeMesh@Gu@physx@@YAMABUCCDShape@23@0ABVPxTransform@3@111MM@Z@UAEPAXI@Z 1004d580 f   GuCCDSweepConvexMesh.obj
 0001:0004fe30       ?calcCenterAndBounds@ConvexTriangles@?A0xb712a002@Gu@physx@@ABEXABVPxTransform@4@@Z 10050e30 f   GuCCDSweepConvexMesh.obj
 0001:000505e0       ?getPolygonNormal@ConvexTriangles@?A0xb712a002@Gu@physx@@QBE?AVPxVec3@4@I@Z 100515e0 f   GuCCDSweepConvexMesh.obj
 0001:000509e0       ?onEvent@EntityReportContainerCallback@?A0xb712a002@Gu@physx@@UAE_NIPAI@Z 100519e0 f   GuCCDSweepConvexMesh.obj
 0001:00050a50       ?processHit@AccumCallback@?A0xb712a002@Gu@physx@@UAE_NABUPxRaycastHit@4@ABVPxVec3@4@11AAMPBI@Z 10051a50 f   GuCCDSweepConvexMesh.obj
 0001:00050aa0       ?processHit@CB@?1??SweepEstimateAnyShapeMesh@Gu@physx@@YAMABUCCDShape@34@0ABVPxTransform@4@111MM@Z@UAE_NABUPxRaycastHit@4@ABVPxVec3@4@33AAMPBI@Z 10051aa0 f   GuCCDSweepConvexMesh.obj
 0001:00053aa0       ??$CCDSweep@VBoxV@Gu@physx@@V123@@Gu@physx@@YAMAAVBoxV@01@0ABVPxTransform@1@111ABT__m128@@AAVPxVec3@1@3M@Z 10054aa0 f   GuCCDSweepPrimitives.obj
 0001:00054000       ??$CCDSweep@VBoxV@Gu@physx@@VConvexHullV@23@@Gu@physx@@YAMAAVBoxV@01@AAVConvexHullV@01@ABVPxTransform@1@222ABT__m128@@AAVPxVec3@1@4M@Z 10055000 f   GuCCDSweepPrimitives.obj
 0001:00054560       ??$CCDSweep@VCapsuleV@Gu@physx@@V123@@Gu@physx@@YAMAAVCapsuleV@01@0ABVPxTransform@1@111ABT__m128@@AAVPxVec3@1@3M@Z 10055560 f   GuCCDSweepPrimitives.obj
 0001:00054ac0       ??$CCDSweep@VCapsuleV@Gu@physx@@VBoxV@23@@Gu@physx@@YAMAAVCapsuleV@01@AAVBoxV@01@ABVPxTransform@1@222ABT__m128@@AAVPxVec3@1@4M@Z 10055ac0 f   GuCCDSweepPrimitives.obj
 0001:00055020       ??$CCDSweep@VCapsuleV@Gu@physx@@VConvexHullV@23@@Gu@physx@@YAMAAVCapsuleV@01@AAVConvexHullV@01@ABVPxTransform@1@222ABT__m128@@AAVPxVec3@1@4M@Z 10056020 f   GuCCDSweepPrimitives.obj
 0001:00055580       ??$CCDSweep@VConvexHullV@Gu@physx@@V123@@Gu@physx@@YAMAAVConvexHullV@01@0ABVPxTransform@1@111ABT__m128@@AAVPxVec3@1@3M@Z 10056580 f   GuCCDSweepPrimitives.obj
 0001:00055ae0       ??$CCDSweep@VTriangleV@Gu@physx@@VBoxV@23@@Gu@physx@@YAMAAVTriangleV@01@AAVBoxV@01@ABVPxTransform@1@222ABT__m128@@AAVPxVec3@1@4M@Z 10056ae0 f   GuCCDSweepPrimitives.obj
 0001:00056040       ??$CCDSweep@VTriangleV@Gu@physx@@VCapsuleV@23@@Gu@physx@@YAMAAVTriangleV@01@AAVCapsuleV@01@ABVPxTransform@1@222ABT__m128@@AAVPxVec3@1@4M@Z 10057040 f   GuCCDSweepPrimitives.obj
 0001:000565a0       ??$CCDSweep@VTriangleV@Gu@physx@@VConvexHullV@23@@Gu@physx@@YAMAAVTriangleV@01@AAVConvexHullV@01@ABVPxTransform@1@222ABT__m128@@AAVPxVec3@1@4M@Z 100575a0 f   GuCCDSweepPrimitives.obj
 0001:000583b8       $LN1094                    100593b8     GuCCDSweepPrimitives.obj
 0001:000583c8       $LN1095                    100593c8     GuCCDSweepPrimitives.obj
 0001:00059cd4       $LN1096                    1005acd4     GuCCDSweepPrimitives.obj
 0001:00059ce4       $LN1097                    1005ace4     GuCCDSweepPrimitives.obj
 0001:0005b674       $LN1144                    1005c674     GuCCDSweepPrimitives.obj
 0001:0005b684       $LN1145                    1005c684     GuCCDSweepPrimitives.obj
 0001:0005cfe4       $LN1112                    1005dfe4     GuCCDSweepPrimitives.obj
 0001:0005cff4       $LN1113                    1005dff4     GuCCDSweepPrimitives.obj
 0001:0005e994       $LN1114                    1005f994     GuCCDSweepPrimitives.obj
 0001:0005e9a4       $LN1115                    1005f9a4     GuCCDSweepPrimitives.obj
 0001:000603e4       $LN1162                    100613e4     GuCCDSweepPrimitives.obj
 0001:000603f4       $LN1163                    100613f4     GuCCDSweepPrimitives.obj
 0001:00061204       $LN719                     10062204     GuCCDSweepPrimitives.obj
 0001:0006208c       $LN719                     1006308c     GuCCDSweepPrimitives.obj
 0001:00062ffc       $LN815                     10063ffc     GuCCDSweepPrimitives.obj
 0001:00063ea4       $LN741                     10064ea4     GuCCDSweepPrimitives.obj
 0001:00064dec       $LN741                     10065dec     GuCCDSweepPrimitives.obj
 0001:00065df4       $LN837                     10066df4     GuCCDSweepPrimitives.obj
 0001:00067290       ?doBoxBoxContactGeneration@@YAHAAVContactBuffer@Gu@physx@@ABVPxVec3@3@1AAIABVMatrix34@Cm@3@3M@Z 10068290 f   GuContactBoxBox.obj
 0001:00068918       $LN529                     10069918     GuContactBoxBox.obj
 0001:00068930       ?generateContacts@@YAHAAVContactBuffer@Gu@physx@@ABVPxVec3@3@MM1ABVMatrix34@Cm@3@2M@Z 10069930 f   GuContactBoxBox.obj
 0001:0006a000       ?GuCapsuleOBBOverlap3@@YA_NABVSegment@Gu@physx@@MABVBox@23@PAMPAVPxVec3@3@@Z 1006b000 f   GuContactCapsuleBox.obj
 0001:0006a5a0       ?GuGenerateEEContacts2@@YAXAAVContactBuffer@Gu@physx@@ABVSegment@23@MABVBox@23@ABVPxVec3@3@M@Z 1006b5a0 f   GuContactCapsuleBox.obj
 0001:0006abd0       ?GuGenerateEEContacts@@YAXAAVContactBuffer@Gu@physx@@ABVSegment@23@MABVBox@23@ABVPxVec3@3@@Z 1006bbd0 f   GuContactCapsuleBox.obj
 0001:0006b1d0       ?GuGenerateVFContacts@@YAXAAVContactBuffer@Gu@physx@@ABVSegment@23@MABVBox@23@ABVPxVec3@3@M@Z 1006c1d0 f   GuContactCapsuleBox.obj
 0001:0006c520       ?GuCapsuleConvexOverlap@@YA_NABVSegment@Gu@physx@@MABUPolygonalData@23@ABVFastVertex2ShapeScaling@Cm@3@ABVPxTransform@3@PAMPAVPxVec3@3@_N@Z 1006d520 f   GuContactCapsuleConvex.obj
 0001:0006cdb0       ?GuGenerateEEContacts2b@@YAXAAVContactBuffer@Gu@physx@@ABVSegment@23@MABVMatrix34@Cm@3@ABUPolygonalData@23@ABVFastVertex2ShapeScaling@63@ABVPxVec3@3@M@Z 1006ddb0 f   GuContactCapsuleConvex.obj
 0001:0006d680       ?GuGenerateEEContacts@@YAXAAVContactBuffer@Gu@physx@@ABVSegment@23@MMABUPolygonalData@23@ABVPxTransform@3@ABVFastVertex2ShapeScaling@Cm@3@ABVPxVec3@3@@Z 1006e680 f   GuContactCapsuleConvex.obj
 0001:0006e0b0       ?GuGenerateVFContacts2@@YAXAAVContactBuffer@Gu@physx@@ABVPxTransform@3@ABUPolygonalData@23@ABVPxMeshScale@3@IPIBVPxVec3@3@MABV73@M@Z 1006f0b0 f   GuContactCapsuleConvex.obj
 0001:0006f6a0       ??0CapsuleMeshContactGeneration@?A0xe6312678@@QAE@AAVContactBuffer@Gu@physx@@ABVPxTransform@4@ABVSegment@34@MMM@Z 100706a0 f   GuContactCapsuleMesh.obj
 0001:0006f8c0       ??_GCapsuleHeightfieldContactGenerationCallback@?A0xe6312678@@UAEPAXI@Z 100708c0 f   GuContactCapsuleMesh.obj
 0001:0006f8f0       ??_GCapsuleMeshContactGenerationCallback_NoScale@?A0xe6312678@@UAEPAXI@Z 100708f0 f   GuContactCapsuleMesh.obj
 0001:0006f920       ??_GCapsuleMeshContactGenerationCallback_Scale@?A0xe6312678@@UAEPAXI@Z 10070920 f   GuContactCapsuleMesh.obj
 0001:0006f950       ?PxcCapsuleTriOverlap3@@YA_NEABVSegment@Gu@physx@@MPIBVPxVec3@3@PIAMPIAV43@@Z 10070950 f   GuContactCapsuleMesh.obj
 0001:0006ff90       ?PxcGenerateEEContacts2@@YAXABVMatrix34@Cm@physx@@AAVContactBuffer@Gu@3@ABVSegment@53@MPIBVPxVec3@3@ABV73@IM@Z 10070f90 f   GuContactCapsuleMesh.obj
 0001:00070290       ?PxcGenerateEEContacts@@YAXABVMatrix34@Cm@physx@@AAVContactBuffer@Gu@3@ABVSegment@53@MPIBVPxVec3@3@ABV73@I@Z 10071290 f   GuContactCapsuleMesh.obj
 0001:000705b0       ?PxcGenerateVFContacts@@YAXABVMatrix34@Cm@physx@@AAVContactBuffer@Gu@3@ABVSegment@53@MPIBVPxVec3@3@ABV73@IM@Z 100715b0 f   GuContactCapsuleMesh.obj
 0001:00071890       ?onEvent@CapsuleHeightfieldContactGenerationCallback@?A0xe6312678@@UAE_NIPAI@Z 10072890 f   GuContactCapsuleMesh.obj
 0001:00071bd0       ?processHit@CapsuleMeshContactGenerationCallback_NoScale@?A0xe6312678@@UAE_NABUPxRaycastHit@physx@@ABVPxVec3@4@11AAMPBI@Z 10072bd0 f   GuContactCapsuleMesh.obj
 0001:00071c80       ?processHit@CapsuleMeshContactGenerationCallback_Scale@?A0xe6312678@@UAE_NABUPxRaycastHit@physx@@ABVPxVec3@4@11AAMPBI@Z 10072c80 f   GuContactCapsuleMesh.obj
 0001:00071e80       ?processTriangle@CapsuleMeshContactGeneration@?A0xe6312678@@QAEXIABVTrianglePadded@Gu@physx@@E@Z 10072e80 f   GuContactCapsuleMesh.obj
 0001:00072870       ?GuBruteForceOverlapBackfaceRoughPass@@YA_NABUPolygonalData@Gu@physx@@0ABVMatrix34@Cm@3@1ABVFastVertex2ShapeScaling@53@211ABVPxVec3@3@AAI4AAMAAV73@AAW4PxcSepAxisType@23@MM@Z 10073870 f   GuContactConvexConvex.obj
 0001:00072af0       ?GuContactHullHull@@YA_NABUPolygonalData@Gu@physx@@0ABVPxBounds3@3@1ABVPxTransform@3@2ABUNarrowPhaseParams@23@AAVContactBuffer@23@ABVFastVertex2ShapeScaling@Cm@3@5_N6@Z 10073af0 f   GuContactConvexConvex.obj
 0001:00074930       ?GuTestFacesSepAxesBackfaceRoughPass@@YA_NABUPolygonalData@Gu@physx@@0ABVMatrix34@Cm@3@1ABVFastVertex2ShapeScaling@53@21ABVPxVec3@3@3AAMAAV73@AAIMM3@Z 10075930 f   GuContactConvexConvex.obj
 0001:00074fe0       ?PxcBruteForceOverlapBackface@@YA_NABVPxBounds3@physx@@0ABUPolygonalData@Gu@2@1ABVMatrix34@Cm@2@2ABVFastVertex2ShapeScaling@62@322ABVPxVec3@2@AAI5AAMAAV82@AAW4PxcSepAxisType@42@MM@Z 10075fe0 f   GuContactConvexConvex.obj
 0001:000757a0       ?PxcFindSeparatingAxes@@YAXAAVSeparatingAxes@Gu@physx@@PIBIIABUPolygonalData@23@ABVMatrix34@Cm@3@ABVPxPlane@3@3ABVPxBounds3@3@MABVFastVertex2ShapeScaling@63@@Z 100767a0 f   GuContactConvexConvex.obj
 0001:00075b50       ?PxcSegmentAABBIntersect@@YA_NABVPxVec3@physx@@000ABVMatrix34@Cm@2@@Z 10076b50 f   GuContactConvexConvex.obj
 0001:00075e90       ?PxcTestFacesSepAxesBackface@@YA_NABUPolygonalData@Gu@physx@@0ABVMatrix34@Cm@3@1ABVFastVertex2ShapeScaling@53@21ABVPxVec3@3@AAMAAV73@AAIPIAI6MM3@Z 10076e90 f   GuContactConvexConvex.obj
 0001:00076770       ?prepareData@@YAXAAVPxPlane@physx@@0AAVPxBounds3@2@1ABV32@2ABV12@3ABVFastVertex2ShapeScaling@Cm@2@4ABVMatrix34@52@5M@Z 10077770 f   GuContactConvexConvex.obj
 0001:00076b40       ??0ConvexMeshContactGeneration@?A0x3a9ab7f1@@QAE@AAV?$InlineArray@I$0EEA@V?$ReflectionAllocator@I@shdfnd@physx@@@shdfnd@physx@@ABVPxTransform@4@1ABUPolygonalData@Gu@4@ABVMatrix34@Cm@4@3ABVFastVertex2ShapeScaling@94@MM_NM11AAVContactBuffer@74@@Z 10077b40 f   GuContactConvexMesh.obj
 0001:00077050       ??_GConvexVsHeightfieldContactGenerationCallback@?A0x3a9ab7f1@@UAEPAXI@Z 10078050 f   GuContactConvexMesh.obj
 0001:00077270       ?computeFeatureCode@@YA?AW4FeatureCode@@ABVPxVec3@physx@@PBV23@@Z 10078270 f   GuContactConvexMesh.obj
 0001:000779e0       ?contactHullHeightfield2@@YA_NABUPolygonalData@Gu@physx@@ABVPxBounds3@3@ABVPxHeightFieldGeometry@3@ABVPxTransform@3@3ABUNarrowPhaseParams@23@AAVContactBuffer@23@ABVFastVertex2ShapeScaling@Cm@3@_N@Z 100789e0 f   GuContactConvexMesh.obj
 0001:00078350       ?contactHullMesh2@@YA_NABUPolygonalData@Gu@physx@@ABVPxBounds3@3@ABUPxTriangleMeshGeometryLL@3@ABVPxTransform@3@3ABUNarrowPhaseParams@23@AAVContactBuffer@23@ABVFastVertex2ShapeScaling@Cm@3@6_N7@Z 10079350 f   GuContactConvexMesh.obj
 0001:00078d60       ?generateContacts@ConvexMeshContactGeneration@?A0x3a9ab7f1@@QBE_NABVPxPlane@physx@@PIBVPxVec3@4@ABV54@AAV54@MI@Z 10079d60 f   GuContactConvexMesh.obj
 0001:00079c00       ?generateLastContacts@ConvexMeshContactGeneration@?A0x3a9ab7f1@@QAEXXZ 1007ac00 f   GuContactConvexMesh.obj
 0001:00079f68       $LN136                     1007af68     GuContactConvexMesh.obj
 0001:00079f90       ?onEvent@ConvexVsHeightfieldContactGenerationCallback@?A0x3a9ab7f1@@UAE_NIPAI@Z 1007af90 f   GuContactConvexMesh.obj
 0001:0007a2e0       ?performEETests@@YA_NABUPolygonalData@Gu@physx@@EABVMatrix34@Cm@3@1PIBVPxVec3@3@IPIBIABVPxPlane@3@ABVFastVertex2ShapeScaling@53@AAV63@AAMMMII@Z 1007b2e0 f   GuContactConvexMesh.obj
 0001:0007b380       ?processTriangle@ConvexMeshContactGeneration@?A0x3a9ab7f1@@QAEXPBVPxVec3@physx@@IEPBI@Z 1007c380 f   GuContactConvexMesh.obj
 0001:0007b8a0       ?testFacesSepAxesBackface@@YA_NABUPolygonalData@Gu@physx@@ABVMatrix34@Cm@3@11ABVPxVec3@3@PIBV63@ABVFastVertex2ShapeScaling@53@AAIPAIAAMAAV63@5M_N@Z 1007c8a0 f   GuContactConvexMesh.obj
 0001:0007c390       ?triangleConvexTest@@YA_NABUPolygonalData@Gu@physx@@EIPIBVPxVec3@3@ABVPxPlane@3@ABV43@ABVMatrix34@Cm@3@444ABVFastVertex2ShapeScaling@73@MMAAV43@AAMAA_N_N@Z 1007d390 f   GuContactConvexMesh.obj
 0001:0007e760       ?ContactReductionAllIn@@YAXAAVContactBuffer@Gu@physx@@IIABVPxMat33@3@PIBVPxVec3@3@PIBE@Z 1007f760 f   GuContactPolygonPolygon.obj
 0001:0007f0e0       ?PointInConvexPolygon2D_OutCodes@@YA_NPIBMIMMMMAAE@Z 100800e0 f   GuContactPolygonPolygon.obj
 0001:000805f0       ?transformVertices@@YAXAAM000PIAMIPIBVPxVec3@physx@@PIBEABVPxMat33@2@@Z 100815f0 f   GuContactPolygonPolygon.obj
 0001:00081110       ??$sort@USortKey@@U?$Less@USortKey@@@shdfnd@physx@@VNullAllocator@?A0xc0209be5@@@shdfnd@physx@@YAXPAUSortKey@@IABU?$Less@USortKey@@@01@ABVNullAllocator@?A0xc0209be5@@I@Z 10082110 f   GuContactSphereMesh.obj
 0001:000815a0       ??_GSphereHeightfieldContactGenerationCallback@?A0xc0209be5@@UAEPAXI@Z 100825a0 f   GuContactSphereMesh.obj
 0001:000815d0       ??_GSphereMeshContactGenerationCallback_NoScale@?A0xc0209be5@@UAEPAXI@Z 100825d0 f   GuContactSphereMesh.obj
 0001:00081610       ??_GSphereMeshContactGenerationCallback_Scale@?A0xc0209be5@@UAEPAXI@Z 10082610 f   GuContactSphereMesh.obj
 0001:00081650       ?closestPtPointTriangle@@YA?AVPxVec3@physx@@ABV12@000AAM1AAW4FeatureCode@Gu@2@@Z 10082650 f   GuContactSphereMesh.obj
 0001:000826bc       $LN260                     100836bc     GuContactSphereMesh.obj
 0001:00083d24       $LN520                     10084d24     GuContactSphereMesh.obj
 0001:00083d3c       $LN521                     10084d3c     GuContactSphereMesh.obj
 0001:00083d60       ?generateLastContacts@SphereMeshContactGeneration@?A0xc0209be5@@QAEXXZ 10084d60 f   GuContactSphereMesh.obj
 0001:00084364       $LN140                     10085364     GuContactSphereMesh.obj
 0001:00084380       ?onEvent@SphereHeightfieldContactGenerationCallback@?A0xc0209be5@@UAE_NIPAI@Z 10085380 f   GuContactSphereMesh.obj
 0001:000849f0       ?processHit@SphereMeshContactGenerationCallback_NoScale@?A0xc0209be5@@UAE_NABUPxRaycastHit@physx@@ABVPxVec3@4@11AAMPBI@Z 100859f0 f   GuContactSphereMesh.obj
 0001:00084a20       ?processHit@SphereMeshContactGenerationCallback_Scale@?A0xc0209be5@@UAE_NABUPxRaycastHit@physx@@ABVPxVec3@4@11AAMPBI@Z 10085a20 f   GuContactSphereMesh.obj
 0001:00084bf0       ?processTriangle@SphereMeshContactGeneration@?A0xc0209be5@@QAEXIABVPxVec3@physx@@00PBI@Z 10085bf0 f   GuContactSphereMesh.obj
 0001:00085230       ?validateEdge@@YA_NIIPBUCachedTriangleIndices@@I@Z 10086230 f   GuContactSphereMesh.obj
 0001:00086430       ?convexHullLoad@@YA_NAAUConvexHullData@Gu@physx@@AAVPxInputStream@3@AAV?$PxBitAndDataT@I$0IAAAAAAA@@3@@Z 10087430 f   GuConvexMesh.obj
 0001:00088ab0       ?HullProjectionCB_BigConvex@@YAXABUPolygonalData@Gu@physx@@ABVPxVec3@3@ABVMatrix34@Cm@3@ABVFastVertex2ShapeScaling@63@AAM4@Z 10089ab0 f   GuShapeConvex.obj
 0001:00088e50       ?HullProjectionCB_Box@@YAXABUPolygonalData@Gu@physx@@ABVPxVec3@3@ABVMatrix34@Cm@3@ABVFastVertex2ShapeScaling@63@AAM4@Z 10089e50 f   GuShapeConvex.obj
 0001:00088f60       ?HullProjectionCB_SmallConvex@@YAXABUPolygonalData@Gu@physx@@ABVPxVec3@3@ABVMatrix34@Cm@3@ABVFastVertex2ShapeScaling@63@AAM4@Z 10089f60 f   GuShapeConvex.obj
 0001:000890d0       ?SelectClosestEdgeCB_Box@@YAIABUPolygonalData@Gu@physx@@ABVFastVertex2ShapeScaling@Cm@3@ABVPxVec3@3@@Z 1008a0d0 f   GuShapeConvex.obj
 0001:000892c0       ?SelectClosestEdgeCB_Convex@@YAIABUPolygonalData@Gu@physx@@ABVFastVertex2ShapeScaling@Cm@3@ABVPxVec3@3@@Z 1008a2c0 f   GuShapeConvex.obj
 0001:0008a010       ?distanceLineBoxSquared@@YAMABVPxVec3@physx@@000ABVPxMat33@2@PAMPAV12@@Z 1008b010 f   GuDistanceSegmentBox.obj
 0001:0008ae20       ?face@@YAXIIIAAVPxVec3@physx@@ABV12@11PAMAAM@Z 1008be20 f   GuDistanceSegmentBox.obj
 0001:0008f2ec       $LN419                     100902ec     GuEPA.obj
 0001:0008f4e0       ?calculateContactInformation@Gu@physx@@YAXPIBT__m128@@0PAVFacet@12@ABUGjkConvex@12@2_NAAUGjkOutput@12@@Z 100904e0 f   GuEPA.obj
 0001:00090d10       ?getClosestPtPointTriangle@Gu@physx@@YA?AT__m128@@PIAT3@ABT3@PAIAAI@Z 10091d10 f   GuGJKSimplex.obj
 0001:0009313c       $LN647                     1009413c     GuGJKTest.obj
 0001:00094974       $LN994                     10095974     GuGJKTest.obj
 0001:00094984       $LN995                     10095984     GuGJKTest.obj
 0001:0009b0b0       ?intersectHeightFieldBox@@YA_NABVHeightFieldTraceUtil@Gu@physx@@ABVBox@23@@Z 1009c0b0 f   GuOverlapTestsHF.obj
 0001:0009bd50       ?intersectHeightFieldCapsule@@YA_NABVHeightFieldUtil@Gu@physx@@ABVPxCapsuleGeometry@3@ABVPxTransform@3@@Z 1009cd50 f   GuOverlapTestsHF.obj
 0001:0009c590       ?intersectHeightFieldConvex@@YA_NABVHeightFieldTraceUtil@Gu@physx@@ABVPxTransform@3@ABVConvexMesh@23@1ABVPxMeshScale@3@@Z 1009d590 f   GuOverlapTestsHF.obj
 0001:0009dac0       ?intersectHeightFieldSphere@@YA_NABVHeightFieldUtil@Gu@physx@@ABVSphere@23@@Z 1009eac0 f   GuOverlapTestsHF.obj
 0001:0009dfd0       ?multiplyInverseRTLeft@@YA?AVMatrix34@Cm@physx@@ABV123@0@Z 1009efd0 f   GuOverlapTestsHF.obj
 0001:0009f200       $LN749                     100a0200     GuSweepsHF.obj
 0001:000a8ad0       ?BuildBV4FromRoot@@YA_NAAVBV4Tree@Gu@physx@@PAUBV4Node@@AAUBV4BuildParams@@_NM@Z 100a9ad0 f   GuBV4Build.obj
 0001:000a8f70       ?_BuildBV4@@YAXABVAABBTree@Gu@physx@@PAUBV4Node@@PBVAABBTreeNode@23@AAUBV4BuildParams@@@Z 100a9f70 f   GuBV4Build.obj
 0001:000a91e0       ?_Check@Local@?5??BuildBV32Internal@@YA_NAAVBV32Tree@Gu@physx@@ABVAABBTree@45@PAVSourceMesh@45@M@Z@SAXPAVAABBTreeNode@45@@Z 100aa1e0 f   GuBV32Build.obj
 0001:000a91e0       ?_Check@Local@?4??BuildBV4Internal@@YA_NAAVBV4Tree@Gu@physx@@ABVAABBTree@45@PAVSourceMesh@45@M_N@Z@SAXPAVAABBTreeNode@45@@Z 100aa1e0 f   GuBV4Build.obj
 0001:000a9340       ?_CheckMD@Local@?5??BuildBV32Internal@@YA_NAAVBV32Tree@Gu@physx@@ABVAABBTree@45@PAVSourceMesh@45@M@Z@SAXPBVAABBTreeNode@45@AAI4@Z 100aa340 f   GuBV32Build.obj
 0001:000a9340       ?_CheckMD@Local@?4??BuildBV4Internal@@YA_NAAVBV4Tree@Gu@physx@@ABVAABBTree@45@PAVSourceMesh@45@M_N@Z@SAXPBVAABBTreeNode@45@AAI5@Z 100aa340 f   GuBV4Build.obj
 0001:000a9390       ?_ComputeMaxValues@@YAXPBUBV4Node@@AAVPxVec3@physx@@1@Z 100aa390 f   GuBV4Build.obj
 0001:000a94a0       ?_FlattenQ@@YAXQAU?$BVDataPackedT@VQuantizedAABB@Gu@physx@@@Gu@physx@@IAAIPBUBV4Node@@11ABVPxVec3@3@333@Z 100aa4a0 f   GuBV4Build.obj
 0001:000a97e0       ?_Walk@Local@?1??walk@AABBTree@Gu@physx@@QBEIP6A_NPBVAABBTreeNode@45@IPAX@Z1@Z@SAX0AAI321@Z 100aa7e0 f   GuBV4Build.obj
